EXPORTS
	NewInterfaceFactoryL @ 1 NONAME
	??0TIeee802Addr@@IAE@ABVTDesC8@@@Z @ 2 NONAME ; TIeee802Addr::TIeee802Addr(class TDesC8 const &)
	??0TIeee802Addr@@IAE@AB_J@Z @ 3 NONAME ; TIeee802Addr::TIeee802Addr(long long const &)
	??0TIeee802Addr@@IAE@XZ @ 4 NONAME ; TIeee802Addr::TIeee802Addr(void)
	??0CPktDrvBase@@QAE@AAVCPktDrvFactory@@@Z @ 5 NONAME ; public: __thiscall CPktDrvBase::CPktDrvBase(class CPktDrvFactory &)
	??1CPktDrvBase@@UAE@XZ @ 6 NONAME ; public: virtual __thiscall CPktDrvBase::~CPktDrvBase(void)
	?Close@CPktDrvFactory@@UAEXXZ @ 7 NONAME ; public: virtual void __thiscall CPktDrvFactory::Close(void)
	?FoundMACAddrL@CLANLinkCommon@@QAEXXZ @ 8 NONAME ; public: void __thiscall CLANLinkCommon::FoundMACAddrL(void)
	?LinkLayerUp@CLANLinkCommon@@QAEXXZ @ 9 NONAME ; public: void __thiscall CLANLinkCommon::LinkLayerUp(void)
	?Process@CLANLinkCommon@@QAEXAAVRMBufChain@@PAX@Z @ 10 NONAME ; public: void __thiscall CLANLinkCommon::Process(class RMBufChain &,void *)
	?ResumeSending@CLANLinkCommon@@QAEXXZ @ 11 NONAME ; public: void __thiscall CLANLinkCommon::ResumeSending(void)
	?SetNameL@CPktDrvBase@@QAEXABVTDesC16@@@Z @ 12 NONAME ; public: void __thiscall CPktDrvBase::SetNameL(class TDesC16 const &)
	??0TEthernetAddr@@QAE@ABVTDesC8@@@Z @ 13 NONAME ; TEthernetAddr::TEthernetAddr(class TDesC8 const &)
	??0TEthernetAddr@@QAE@AB_J@Z @ 14 NONAME ; TEthernetAddr::TEthernetAddr(long long const &)
	??0TEthernetAddr@@QAE@XZ @ 15 NONAME ; TEthernetAddr::TEthernetAddr(void)
	?Reset@TIeee802Addr@@QAEXXZ @ 16 NONAME ; void TIeee802Addr::Reset(void)
	?IfProgress@CLANLinkCommon@@QAEXHH@Z @ 17 NONAME ; void CLANLinkCommon::IfProgress(int, int)
	?IfProgress@CLANLinkCommon@@QAEXIHH@Z @ 18 NONAME ; void CLANLinkCommon::IfProgress(unsigned int, int, int)
	?NifEvent@CLANLinkCommon@@QAEXW4TNetworkAdaptorEventType@@IABVTDesC8@@PAX@Z @ 19 NONAME ; void CLANLinkCommon::NifEvent(enum TNetworkAdaptorEventType, unsigned int, class TDesC8 const &, void *)
	?ReadBool@CLANLinkCommon@@QAEHABVTDesC16@@AAH@Z @ 20 NONAME ; int CLANLinkCommon::ReadBool(class TDesC16 const &, int &)
	?ReadDes@CLANLinkCommon@@QAEHABVTDesC16@@AAVTDes16@@@Z @ 21 NONAME ; int CLANLinkCommon::ReadDes(class TDesC16 const &, class TDes16 &)
	?ReadDes@CLANLinkCommon@@QAEHABVTDesC16@@AAVTDes8@@@Z @ 22 NONAME ; int CLANLinkCommon::ReadDes(class TDesC16 const &, class TDes8 &)
	?ReadInt@CLANLinkCommon@@QAEHABVTDesC16@@AAK@Z @ 23 NONAME ; int CLANLinkCommon::ReadInt(class TDesC16 const &, unsigned long &)
	?WriteBool@CLANLinkCommon@@QAEHABVTDesC16@@H@Z @ 24 NONAME ; int CLANLinkCommon::WriteBool(class TDesC16 const &, int)
	?WriteDes@CLANLinkCommon@@QAEHABVTDesC16@@0@Z @ 25 NONAME ; int CLANLinkCommon::WriteDes(class TDesC16 const &, class TDesC16 const &)
	?WriteDes@CLANLinkCommon@@QAEHABVTDesC16@@ABVTDesC8@@@Z @ 26 NONAME ; int CLANLinkCommon::WriteDes(class TDesC16 const &, class TDesC8 const &)
	?WriteInt@CLANLinkCommon@@QAEHABVTDesC16@@K@Z @ 27 NONAME ; int CLANLinkCommon::WriteInt(class TDesC16 const &, unsigned long)
	?LinkLayerDown@CLANLinkCommon@@QAEXHW4TAction@1@@Z @ 28 NONAME ; void CLANLinkCommon::LinkLayerDown(int, enum CLANLinkCommon::TAction)

