EXPORTS
	_Z18NewTestSuiteIpsecLv @ 1 NONAME
	_ZTI11CConnTester @ 2 NONAME ; #<TI>#
	_ZTI13CReaderWriter @ 3 NONAME ; #<TI>#
	_ZTI15CIpsecPolTest_1 @ 4 NONAME ; #<TI>#
	_ZTI15CIpsecPolTest_2 @ 5 NONAME ; #<TI>#
	_ZTI15CIpsecTestCypto @ 6 NONAME ; #<TI>#
	_ZTI15CIpsecVpnTest_1 @ 7 NONAME ; #<TI>#
	_ZTI15CTestSuiteIpsec @ 8 NONAME ; #<TI>#
	_ZTI16CIpsecConnTest_1 @ 9 NONAME ; #<TI>#
	_ZTI16CIpsecConnTest_2 @ 10 NONAME ; #<TI>#
	_ZTI16CIpsecConnTest_3 @ 11 NONAME ; #<TI>#
	_ZTI7CSender @ 12 NONAME ; #<TI>#
	_ZTI9CProgress @ 13 NONAME ; #<TI>#
	_ZTV11CConnTester @ 14 NONAME ; #<VT>#
	_ZTV13CReaderWriter @ 15 NONAME ; #<VT>#
	_ZTV15CIpsecPolTest_1 @ 16 NONAME ; #<VT>#
	_ZTV15CIpsecPolTest_2 @ 17 NONAME ; #<VT>#
	_ZTV15CIpsecTestCypto @ 18 NONAME ; #<VT>#
	_ZTV15CIpsecVpnTest_1 @ 19 NONAME ; #<VT>#
	_ZTV15CTestSuiteIpsec @ 20 NONAME ; #<VT>#
	_ZTV16CIpsecConnTest_1 @ 21 NONAME ; #<VT>#
	_ZTV16CIpsecConnTest_2 @ 22 NONAME ; #<VT>#
	_ZTV16CIpsecConnTest_3 @ 23 NONAME ; #<VT>#
	_ZTV7CSender @ 24 NONAME ; #<VT>#
	_ZTV9CProgress @ 25 NONAME ; #<VT>#
	_ZTI16CIpsecConnTest_4 @ 26 NONAME ; #<TI>#
	_ZTV16CIpsecConnTest_4 @ 27 NONAME ; #<VT>#

