EXPORTS
	_ZN13CBCAProvision19GetVDataTableStaticEv @ 1 NONAME
	_ZN13CBCAProvision5NewLCEPN5ESock16CCommsDatIapViewE @ 2 NONAME
	_ZN13CBCAProvisionD0Ev @ 3 NONAME
	_ZN13CBCAProvisionD1Ev @ 4 NONAME
	_ZN13CBCAProvisionD2Ev @ 5 NONAME
	_ZN14AgentCprStates18agentCprActivities4SelfEv @ 6 NONAME
	_ZN15AgentSCprStates10TSendError12GetVTablePtrER6TDesC8Pv @ 7 NONAME
	_ZN15AgentSCprStates10TSendError3DoLEv @ 8 NONAME
	_ZN15AgentSCprStates10TStopAgent12GetVTablePtrER6TDesC8Pv @ 9 NONAME
	_ZN15AgentSCprStates10TStopAgent3DoLEv @ 10 NONAME
	_ZN15AgentSCprStates11TStartAgent12GetVTablePtrER6TDesC8Pv @ 11 NONAME
	_ZN15AgentSCprStates11TStartAgent3DoLEv @ 12 NONAME
	_ZN15AgentSCprStates12TNotifyAgent12GetVTablePtrER6TDesC8Pv @ 13 NONAME
	_ZN15AgentSCprStates12TNotifyAgent3DoLEv @ 14 NONAME
	_ZN15AgentSCprStates17TSendAuthenticate12GetVTablePtrER6TDesC8Pv @ 15 NONAME
	_ZN15AgentSCprStates17TSendAuthenticate3DoLEv @ 16 NONAME
	_ZN15AgentSCprStates18TAwaitingAgentDown12GetVTablePtrER6TDesC8Pv @ 17 NONAME
	_ZN15AgentSCprStates18TAwaitingAgentDown6AcceptEv @ 18 NONAME
	_ZN15AgentSCprStates21TAwaitingAuthenticate12GetVTablePtrER6TDesC8Pv @ 19 NONAME
	_ZN15AgentSCprStates21TAwaitingAuthenticate6AcceptEv @ 20 NONAME
	_ZN15AgentSCprStates23TNoTagOrProviderStarted12GetVTablePtrER6TDesC8Pv @ 21 NONAME
	_ZN15AgentSCprStates23TNoTagOrProviderStarted13TransitionTagEv @ 22 NONAME
	_ZN15AgentSCprStates23TNoTagOrProviderStopped12GetVTablePtrER6TDesC8Pv @ 23 NONAME
	_ZN15AgentSCprStates23TNoTagOrProviderStopped13TransitionTagEv @ 24 NONAME
	_ZN15AgentSCprStates23TSendDataClientGoneDown12GetVTablePtrER6TDesC8Pv @ 25 NONAME
	_ZN15AgentSCprStates23TSendDataClientGoneDown3DoLEv @ 26 NONAME
	_ZN15AgentSCprStates25TSendAuthenticateComplete12GetVTablePtrER6TDesC8Pv @ 27 NONAME
	_ZN15AgentSCprStates25TSendAuthenticateComplete3DoLEv @ 28 NONAME
	_ZN15AgentSCprStates26TProcessDataClientGoneDown12GetVTablePtrER6TDesC8Pv @ 29 NONAME
	_ZN15AgentSCprStates26TProcessDataClientGoneDown3DoLEv @ 30 NONAME
	_ZN15AgentSCprStates29TAwaitingAuthenticateComplete12GetVTablePtrER6TDesC8Pv @ 31 NONAME
	_ZN15AgentSCprStates29TAwaitingAuthenticateComplete6AcceptEv @ 32 NONAME
	_ZN15AgentSCprStates29TAwaitingAuthenticateComplete6CancelEv @ 33 NONAME
	_ZN15AgentSCprStates29TAwaitingNotificationFromFlow12GetVTablePtrER6TDesC8Pv @ 34 NONAME
	_ZN15AgentSCprStates29TAwaitingNotificationFromFlow6AcceptEv @ 35 NONAME
	_ZN17CRawIpAgentConfig19GetVDataTableStaticEv @ 36 NONAME
	_ZN17CRawIpAgentConfig5NewLCEPN5ESock16CCommsDatIapViewEPKN14RPacketContext18TContextConfigGPRSE @ 37 NONAME ABSENT
	_ZN18CCredentialsConfig5NewLCEPN5ESock16CCommsDatIapViewE @ 38 NONAME
	_ZN19AgentMCprActivities19agentMCprActivities4SelfEv @ 39 NONAME
	_ZN19AgentSCprActivities19agentSCprActivities4SelfEv @ 40 NONAME
	_ZN19CAgentProvisionInfoD0Ev @ 41 NONAME
	_ZN19CAgentProvisionInfoD1Ev @ 42 NONAME
	_ZN19CAgentProvisionInfoD2Ev @ 43 NONAME
	_ZN20TunnelAgentCprStates12TJoinRealIAP12GetVTablePtrER6TDesC8Pv @ 44 NONAME
	_ZN20TunnelAgentCprStates12TJoinRealIAP3DoLEv @ 45 NONAME
	_ZN24CAgentConnectionProvider4NewLERN5ESock30CConnectionProviderFactoryBaseE @ 46 NONAME
	_ZN24CAgentConnectionProviderD0Ev @ 47 NONAME
	_ZN24CAgentConnectionProviderD1Ev @ 48 NONAME
	_ZN24CAgentConnectionProviderD2Ev @ 49 NONAME
	_ZN25CAgentNotificationHandler11ReadNifNameER6TDes16 @ 50 NONAME
	_ZN25CAgentNotificationHandler12ReadIfParamsER6TDes16 @ 51 NONAME
	_ZN25CAgentNotificationHandler12ReadPortNameER6TDes16 @ 52 NONAME
	_ZN25CAgentNotificationHandler13QueryIsDialInEv @ 53 NONAME
	_ZN25CAgentNotificationHandler14ReadExcessDataER5TDes8 @ 54 NONAME
	_ZN25CAgentNotificationHandler14ReadIfNetworksER6TDes16 @ 55 NONAME
	_ZN25CAgentNotificationHandler14ServiceStartedEv @ 56 NONAME
	_ZN25CAgentNotificationHandler16ConnectCompleteLEv @ 57 NONAME
	_ZN25CAgentNotificationHandler17PostMessageToFlowERKN8Messages13TRuntimeCtxIdERNS0_14TSignatureBaseE @ 58 NONAME
	_ZN25CAgentNotificationHandler19NotificationToAgentE21TFlowToAgentEventTypePv @ 59 NONAME
	_ZN25CAgentNotificationHandler20NotificationFromFlowE21TFlowToAgentEventType @ 60 NONAME
	_ZN25CAgentNotificationHandler21AnonPostMessageToFlowERKN8Messages14TSignatureBaseE @ 61 NONAME
	_ZN25CAgentNotificationHandler21NotificationFromAgentE21TAgentToFlowEventTypePv @ 62 NONAME
	_ZN25CAgentNotificationHandlerC1Ev @ 63 NONAME
	_ZN25CAgentNotificationHandlerC2Ev @ 64 NONAME
	_ZN27CAgentSubConnectionProvider12ConnectAgentE17TAgentConnectType @ 65 NONAME
	_ZN27CAgentSubConnectionProvider19NotificationToAgentE21TFlowToAgentEventTypePv @ 66 NONAME
	_ZN27CAgentSubConnectionProvider23CleanupProvisioningInfoEv @ 67 NONAME
	_ZN27CAgentSubConnectionProvider4NewLERN5ESock33CSubConnectionProviderFactoryBaseE @ 68 NONAME
	_ZN27CAgentSubConnectionProvider9ReceivedLERKN8Messages13TRuntimeCtxIdERKNS0_7TNodeIdERNS0_14TSignatureBaseE @ 69 NONAME
	_ZN27CAgentSubConnectionProviderC1ERN5ESock33CSubConnectionProviderFactoryBaseERKN11MeshMachine16TNodeActivityMapE @ 70 NONAME
	_ZN27CAgentSubConnectionProviderC2ERN5ESock33CSubConnectionProviderFactoryBaseERKN11MeshMachine16TNodeActivityMapE @ 71 NONAME
	_ZN27CAgentSubConnectionProviderD0Ev @ 72 NONAME
	_ZN27CAgentSubConnectionProviderD1Ev @ 73 NONAME
	_ZN27CAgentSubConnectionProviderD2Ev @ 74 NONAME
	_ZN28CAgentMetaConnectionProvider10ConstructLEv @ 75 NONAME
	_ZN28CAgentMetaConnectionProvider10GetIp4AddrEPN5ESock16CCommsDatIapViewEmRm @ 76 NONAME
	_ZN28CAgentMetaConnectionProvider10GetIp6AddrEPN5ESock16CCommsDatIapViewEmR8TIp6Addr @ 77 NONAME
	_ZN28CAgentMetaConnectionProvider11GetIp4AddrLEPN5ESock16CCommsDatIapViewEmRm @ 78 NONAME
	_ZN28CAgentMetaConnectionProvider11GetIp6AddrLEPN5ESock16CCommsDatIapViewEmR8TIp6Addr @ 79 NONAME
	_ZN28CAgentMetaConnectionProvider12CloseIapViewEv @ 80 NONAME
	_ZN28CAgentMetaConnectionProvider12OpenIapViewLEv @ 81 NONAME
	_ZN28CAgentMetaConnectionProvider13OpenIapViewLCEv @ 82 NONAME
	_ZN28CAgentMetaConnectionProvider19CleanupCloseIapViewEPv @ 83 NONAME
	_ZN28CAgentMetaConnectionProvider28CancelAvailabilityMonitoringEv @ 84 NONAME
	_ZN28CAgentMetaConnectionProvider28SetAgentNotificationHandlerLEP25CAgentNotificationHandler @ 85 NONAME
	_ZN28CAgentMetaConnectionProvider28StartAvailabilityMonitoringLERKN8Messages10TNodeCtxIdE @ 86 NONAME
	_ZN28CAgentMetaConnectionProvider7IapViewEv @ 87 NONAME
	_ZN28CAgentMetaConnectionProviderC1ERN5ESock34CMetaConnectionProviderFactoryBaseERKNS0_13TProviderInfoERKN11MeshMachine16TNodeActivityMapE @ 88 NONAME
	_ZN28CAgentMetaConnectionProviderC2ERN5ESock34CMetaConnectionProviderFactoryBaseERKNS0_13TProviderInfoERKN11MeshMachine16TNodeActivityMapE @ 89 NONAME
	_ZN28CAgentMetaConnectionProviderD0Ev @ 90 NONAME
	_ZN28CAgentMetaConnectionProviderD1Ev @ 91 NONAME
	_ZN28CAgentMetaConnectionProviderD2Ev @ 92 NONAME
	_ZN30CTunnelAgentConnectionProvider4NewLERN5ESock30CConnectionProviderFactoryBaseE @ 93 NONAME
	_ZN30CTunnelAgentConnectionProviderD0Ev @ 94 NONAME
	_ZN30CTunnelAgentConnectionProviderD1Ev @ 95 NONAME
	_ZN30CTunnelAgentConnectionProviderD2Ev @ 96 NONAME
	_ZN9CIPConfig16NewFromGPRSOutLCEPN5ESock16CCommsDatIapViewE @ 97 NONAME
	_ZN9CIPConfig19GetVDataTableStaticEv @ 98 NONAME
	_ZN9CIPConfig5NewLCEPN5ESock16CCommsDatIapViewE @ 99 NONAME
	_ZN9CIPConfigD0Ev @ 100 NONAME
	_ZN9CIPConfigD1Ev @ 101 NONAME
	_ZN9CIPConfigD2Ev @ 102 NONAME
	_ZNK13CBCAProvision12GetAttribPtrEi @ 103 NONAME
	_ZNK13CBCAProvision13GetVDataTableEv @ 104 NONAME
	_ZNK17CRawIpAgentConfig12GetAttribPtrEi @ 105 NONAME
	_ZNK17CRawIpAgentConfig13GetVDataTableEv @ 106 NONAME
	_ZNK25CAgentNotificationHandler12GetExtensionERKN4Meta7STypeIdE @ 107 NONAME
	_ZNK25CAgentNotificationHandler15RemoveExtensionERKN4Meta7STypeIdE @ 108 NONAME ABSENT
	_ZN25CAgentNotificationHandler16AppendExtensionLEPKN4Meta9SMetaDataE @ 109 NONAME
	_ZNK27CAgentSubConnectionProvider18AgentProvisionInfoEv @ 110 NONAME
	_ZNK9CIPConfig12GetAttribPtrEi @ 111 NONAME
	_ZNK9CIPConfig13GetVDataTableEv @ 112 NONAME
	_ZTI13CBCAProvision @ 113 NONAME
	_ZTI17CRawIpAgentConfig @ 114 NONAME
	_ZTI18CCredentialsConfig @ 115 NONAME
	_ZTI19CAgentProvisionInfo @ 116 NONAME
	_ZTI24CAgentConnectionProvider @ 117 NONAME
	_ZTI25CAgentNotificationHandler @ 118 NONAME
	_ZTI27CAgentQueryConnSettingsImpl @ 119 NONAME
	_ZTI27CAgentSubConnectionProvider @ 120 NONAME
	_ZTI28CAgentMetaConnectionProvider @ 121 NONAME
	_ZTI30CTunnelAgentConnectionProvider @ 122 NONAME
	_ZTI9CIPConfig @ 123 NONAME
	_ZTIN15AgentSCprStates10TSendErrorE @ 124 NONAME
	_ZTIN15AgentSCprStates10TStopAgentE @ 125 NONAME
	_ZTIN15AgentSCprStates11TStartAgentE @ 126 NONAME
	_ZTIN15AgentSCprStates12TNotifyAgentE @ 127 NONAME
	_ZTIN15AgentSCprStates17TSendAuthenticateE @ 128 NONAME
	_ZTIN15AgentSCprStates18TAwaitingAgentDownE @ 129 NONAME
	_ZTIN15AgentSCprStates21TAwaitingAuthenticateE @ 130 NONAME
	_ZTIN15AgentSCprStates23TNoTagOrProviderStartedE @ 131 NONAME
	_ZTIN15AgentSCprStates23TNoTagOrProviderStoppedE @ 132 NONAME
	_ZTIN15AgentSCprStates23TSendDataClientGoneDownE @ 133 NONAME
	_ZTIN15AgentSCprStates25TSendAuthenticateCompleteE @ 134 NONAME
	_ZTIN15AgentSCprStates26TProcessDataClientGoneDownE @ 135 NONAME
	_ZTIN15AgentSCprStates29TAwaitingAuthenticateCompleteE @ 136 NONAME
	_ZTIN15AgentSCprStates29TAwaitingNotificationFromFlowE @ 137 NONAME
	_ZTV13CBCAProvision @ 138 NONAME
	_ZTV17CRawIpAgentConfig @ 139 NONAME
	_ZTV18CCredentialsConfig @ 140 NONAME
	_ZTV19CAgentProvisionInfo @ 141 NONAME
	_ZTV24CAgentConnectionProvider @ 142 NONAME
	_ZTV25CAgentNotificationHandler @ 143 NONAME
	_ZTV27CAgentQueryConnSettingsImpl @ 144 NONAME
	_ZTV27CAgentSubConnectionProvider @ 145 NONAME
	_ZTV28CAgentMetaConnectionProvider @ 146 NONAME
	_ZTV30CTunnelAgentConnectionProvider @ 147 NONAME
	_ZTV9CIPConfig @ 148 NONAME
	_ZTVN15AgentSCprStates10TSendErrorE @ 149 NONAME
	_ZTVN15AgentSCprStates10TStopAgentE @ 150 NONAME
	_ZTVN15AgentSCprStates11TStartAgentE @ 151 NONAME
	_ZTVN15AgentSCprStates12TNotifyAgentE @ 152 NONAME
	_ZTVN15AgentSCprStates17TSendAuthenticateE @ 153 NONAME
	_ZTVN15AgentSCprStates18TAwaitingAgentDownE @ 154 NONAME
	_ZTVN15AgentSCprStates21TAwaitingAuthenticateE @ 155 NONAME
	_ZTVN15AgentSCprStates23TNoTagOrProviderStartedE @ 156 NONAME
	_ZTVN15AgentSCprStates23TNoTagOrProviderStoppedE @ 157 NONAME
	_ZTVN15AgentSCprStates23TSendDataClientGoneDownE @ 158 NONAME
	_ZTVN15AgentSCprStates25TSendAuthenticateCompleteE @ 159 NONAME
	_ZTVN15AgentSCprStates26TProcessDataClientGoneDownE @ 160 NONAME
	_ZTVN15AgentSCprStates29TAwaitingAuthenticateCompleteE @ 161 NONAME
	_ZTVN15AgentSCprStates29TAwaitingNotificationFromFlowE @ 162 NONAME
	_ZThn12_N24CAgentConnectionProviderD0Ev @ 163 NONAME
	_ZThn12_N24CAgentConnectionProviderD1Ev @ 164 NONAME
	_ZThn12_N27CAgentSubConnectionProviderD0Ev @ 165 NONAME
	_ZThn12_N27CAgentSubConnectionProviderD1Ev @ 166 NONAME
	_ZThn12_N28CAgentMetaConnectionProviderD0Ev @ 167 NONAME
	_ZThn12_N28CAgentMetaConnectionProviderD1Ev @ 168 NONAME
	_ZThn12_N30CTunnelAgentConnectionProviderD0Ev @ 169 NONAME
	_ZThn12_N30CTunnelAgentConnectionProviderD1Ev @ 170 NONAME
	_ZThn20_N27CAgentSubConnectionProvider9ReceivedLERKN8Messages13TRuntimeCtxIdERKNS0_7TNodeIdERNS0_14TSignatureBaseE @ 171 NONAME
	_ZThn4_N13CBCAProvisionD0Ev @ 172 NONAME
	_ZThn4_N13CBCAProvisionD1Ev @ 173 NONAME
	_ZThn4_N19CAgentProvisionInfoD0Ev @ 174 NONAME
	_ZThn4_N19CAgentProvisionInfoD1Ev @ 175 NONAME
	_ZThn4_N9CIPConfigD0Ev @ 176 NONAME
	_ZThn4_N9CIPConfigD1Ev @ 177 NONAME
	_ZThn4_NK13CBCAProvision12GetAttribPtrEi @ 178 NONAME
	_ZThn4_NK13CBCAProvision13GetVDataTableEv @ 179 NONAME
	_ZThn4_NK17CRawIpAgentConfig12GetAttribPtrEi @ 180 NONAME
	_ZThn4_NK17CRawIpAgentConfig13GetVDataTableEv @ 181 NONAME
	_ZThn4_NK9CIPConfig12GetAttribPtrEi @ 182 NONAME
	_ZThn4_NK9CIPConfig13GetVDataTableEv @ 183 NONAME
	_ZN17CRawIpAgentConfig5NewLCEPN5ESock16CCommsDatIapViewEPK21TPacketDataConfigBase @ 184 NONAME
	_ZTIN20TunnelAgentCprStates12TJoinRealIAPE @ 185 NONAME
	_ZTVN20TunnelAgentCprStates12TJoinRealIAPE @ 186 NONAME
	_ZN28CAgentMetaConnectionProvider14GetIntSettingLERK7TDesC16RmPN5ESock14MPlatsecApiExtE @ 187 NONAME
	_ZN28CAgentMetaConnectionProvider15GetBoolSettingLERK7TDesC16RiPN5ESock14MPlatsecApiExtE @ 188 NONAME
	_ZN28CAgentMetaConnectionProvider15GetDes8SettingLERK7TDesC16R5TDes8PN5ESock14MPlatsecApiExtE @ 189 NONAME
	_ZN28CAgentMetaConnectionProvider16GetDes16SettingLERK7TDesC16R6TDes16PN5ESock14MPlatsecApiExtE @ 190 NONAME
	_ZN28CAgentMetaConnectionProvider18GetLongDesSettingLERK7TDesC16RP7HBufC16PN5ESock14MPlatsecApiExtE @ 191 NONAME
	_ZThn180_N28CAgentMetaConnectionProvider14GetIntSettingLERK7TDesC16RmPN5ESock14MPlatsecApiExtE @ 192 NONAME
	_ZThn180_N28CAgentMetaConnectionProvider15GetBoolSettingLERK7TDesC16RiPN5ESock14MPlatsecApiExtE @ 193 NONAME
	_ZThn180_N28CAgentMetaConnectionProvider15GetDes8SettingLERK7TDesC16R5TDes8PN5ESock14MPlatsecApiExtE @ 194 NONAME
	_ZThn180_N28CAgentMetaConnectionProvider16GetDes16SettingLERK7TDesC16R6TDes16PN5ESock14MPlatsecApiExtE @ 195 NONAME
	_ZThn180_N28CAgentMetaConnectionProvider18GetLongDesSettingLERK7TDesC16RP7HBufC16PN5ESock14MPlatsecApiExtE @ 196 NONAME

