EXPORTS
	Install @ 1 NONAME ; Install
	NonExistentImport1 @ 2 NONAME ; NonExistentImport1
	_Z18ClientStubOrdinal1v @ 3 NONAME ; ClientStubOrdinal1(void)
	_ZN10CNifIfLink20AuthenticateCompleteEi @ 4 NONAME ; CNifIfLink::AuthenticateComplete(int)
	_ZN10CNifIfBase5BindLEPv @ 5 NONAME ; CNifIfBase::BindL(void*)
	_ZN3Nif5BindLER10MNifIfUserPvR6TDes16RK7TDesC16 @ 6 NONAME ; Nif::BindL(MNifIfUser&, void*, TDes16&, TDesC16 const&)
	_ZN4RNif26CancelProgressNotificationEv @ 7 NONAME ; RNif::CancelProgressNotification(void)
	_ZN6Nifman14CheckIniConfigEv @ 8 NONAME ; Nifman::CheckIniConfig(void)
	_ZN3Nif15CheckInstalledLEv @ 9 NONAME ; Nif::CheckInstalledL(void)
	_ZN3Nif26CheckInstalledMBufManagerLEv @ 10 NONAME ; Nif::CheckInstalledMBufManagerL(void)
	_ZN10CNifIfBase7CleanupEPv @ 11 NONAME ; CNifIfBase::Cleanup(void*)
	_ZN11CNifFactory7CleanupEPv @ 12 NONAME ; CNifFactory::Cleanup(void*)
	_ZN10CNifIfBase5CloseEv @ 13 NONAME ; CNifIfBase::Close(void)
	_ZN11CNifFactory5CloseEv @ 14 NONAME ; CNifFactory::Close(void)
	_ZN5MComm10CommCancelEv @ 15 NONAME ; MComm::CommCancel(void)
	_ZN5MComm9CommCloseEv @ 16 NONAME ; MComm::CommClose(void)
	_ZN5MComm14CommConstructLEii @ 17 NONAME ; MComm::CommConstructL(int, int)
	_ZN5MComm10CommDeleteEv @ 18 NONAME ; MComm::CommDelete(void)
	_ZNK5MComm13CommIsReadingEv @ 19 NONAME ; MComm::CommIsReading(void) const
	_ZNK5MComm13CommIsWritingEv @ 20 NONAME ; MComm::CommIsWriting(void) const
	_ZN5MComm8CommOpenERK7TDesC1611TCommAccess @ 21 NONAME ; MComm::CommOpen(TDesC16 const&, TCommAccess)
	_ZN5MComm8CommOpenERK7TDesC16S2_11TCommAccess @ 22 NONAME ; MComm::CommOpen(TDesC16 const&, TDesC16 const&, TCommAccess)
	_ZN5MComm14CommReadCancelEv @ 23 NONAME ; MComm::CommReadCancel(void)
	_ZN5MComm17CommReadOneOrMoreER5TDes8 @ 24 NONAME ; MComm::CommReadOneOrMore(TDes8&)
	_ZN5MComm13CommReadReadyEv @ 25 NONAME ; MComm::CommReadReady(void)
	_ZN5MComm8CommReadER5TDes8 @ 26 NONAME ; MComm::CommRead(TDes8&)
	_ZN5MComm15CommWriteCancelEv @ 27 NONAME ; MComm::CommWriteCancel(void)
	_ZN5MComm14CommWriteReadyEv @ 28 NONAME ; MComm::CommWriteReady(void)
	_ZN5MComm9CommWriteERK6TDesC8 @ 29 NONAME ; MComm::CommWrite(TDesC8 const&)
	_ZN10CNifIfBase7ControlEjjR5TDes8Pv @ 30 NONAME ; CNifIfBase::Control(unsigned int, unsigned int, TDes8&, void*)
	_ZN11CNifFactory16ControlledDeleteEPv @ 31 NONAME ; CNifFactory::ControlledDelete(void*)
	_Z19ClientStubOrdinal30v @ 32 NONAME ; ClientStubOrdinal30(void)
	_Z19ClientStubOrdinal31v @ 33 NONAME ; ClientStubOrdinal31(void)
	_Z19ClientStubOrdinal32v @ 34 NONAME ; ClientStubOrdinal32(void)
	_Z19ClientStubOrdinal33v @ 35 NONAME ; ClientStubOrdinal33(void)
	_Z19ClientStubOrdinal34v @ 36 NONAME ; ClientStubOrdinal34(void)
	_Z19ClientStubOrdinal35v @ 37 NONAME ; ClientStubOrdinal35(void)
	_Z19ClientStubOrdinal36v @ 38 NONAME ; ClientStubOrdinal36(void)
	_ZN22CStateMachineAgentBaseC2Ev @ 39 NONAME ; CStateMachineAgentBase::CStateMachineAgentBase[not-in-charge](void)
	_ZN3Nif16CreateInterfaceLERK7TDesC16 @ 40 NONAME ; Nif::CreateInterfaceL(TDesC16 const&)
	_ZN13CNifAgentBaseC2Ev @ 41 NONAME ; CNifAgentBase::CNifAgentBase[not-in-charge](void)
	_ZN19TConnectionSettingsC2Ev @ 42 NONAME ; TConnectionSettings::TConnectionSettings[not-in-charge](void)
	_Z18ClientStubOrdinal5v @ 43 NONAME ; ClientStubOrdinal5(void)
	_ZN4RNif13DisableTimersEi @ 44 NONAME ; RNif::DisableTimers(int)
	_ZN15CAgentStateBaseC2ER21MAgentStateMachineEnv @ 45 NONAME ; CAgentStateBase::CAgentStateBase[not-in-charge](MAgentStateMachineEnv&)
	_Z19ClientStubOrdinal28v @ 46 NONAME ; ClientStubOrdinal28(void)
	_ZN10CAgentBaseC2Ev @ 47 NONAME ; CAgentBase::CAgentBase[not-in-charge](void)
	_ZN12CAgentSMBaseD2Ev @ 48 NONAME ; CAgentSMBase::~CAgentSMBase [not-in-charge](void)
	_ZN11CNifFactoryD2Ev @ 49 NONAME ; CNifFactory::~CNifFactory [not-in-charge](void)
	_ZN11CNifFactory5InitLER8RLibraryR10CObjectCon @ 50 NONAME ; CNifFactory::InitL(RLibrary&, CObjectCon&)
	_ZN3Nif16IsProtocolLoadedERK7TDesC16 @ 51 NONAME ; Nif::IsProtocolLoaded(TDesC16 const&)
	_ZN4RNif17LastProgressErrorER12TNifProgress @ 52 NONAME ; RNif::LastProgressError(TNifProgress&)
	_ZN4RNif13NetworkActiveERi @ 53 NONAME ; RNif::NetworkActive(int&)
	_ZN3Nif18NetworkLayerClosedER10MNifIfUser @ 54 NONAME ; Nif::NetworkLayerClosed(MNifIfUser&)
	_ZN10CAgentBaseD2Ev @ 55 NONAME ; CAgentBase::~CAgentBase [not-in-charge](void)
	_ZN10CNifIfBase4OpenEv @ 56 NONAME ; CNifIfBase::Open(void)
	_ZN11CNifFactory4OpenEv @ 57 NONAME ; CNifFactory::Open(void)
	_ZN11RNifMonitor4OpenERK7TDesC16i @ 58 NONAME ; RNifMonitor::Open(TDesC16 const&, int)
	_ZN4RNif4OpenERK7TDesC16i @ 59 NONAME ; RNif::Open(TDesC16 const&, int)
	_Z19ClientStubOrdinal21v @ 60 NONAME ; ClientStubOrdinal21(void)
	_ZN11CNifFactoryD0Ev @ 61 NONAME ; CNifFactory::~CNifFactory [in-charge deleting](void)
	_ZN22CNetworkControllerBaseC2Ev @ 62 NONAME ; CNetworkControllerBase::CNetworkControllerBase[not-in-charge](void)
	_ZN3Nif9ProgressLER12TNifProgressPvP10CNifIfBase @ 63 NONAME ; Nif::ProgressL(TNifProgress&, void*, CNifIfBase*)
	_ZN3Nif9ProgressLER12TNifProgressRK7TDesC16 @ 64 NONAME ; Nif::ProgressL(TNifProgress&, TDesC16 const&)
	_ZN4RNif20ProgressNotificationER8TPckgBufI12TNifProgressER14TRequestStatus @ 65 NONAME ; RNif::ProgressNotification(TPckgBuf<TNifProgress>&, TRequestStatus&)
	_ZN4RNif8ProgressER12TNifProgress @ 66 NONAME ; RNif::Progress(TNifProgress&)
	_Z18ClientStubOrdinal7v @ 67 NONAME ; ClientStubOrdinal7(void)
	_ZN3Nif14SetSocketStateE15TNifSocketStateP17CServProviderBase @ 68 NONAME ; Nif::SetSocketState(TNifSocketState, CServProviderBase*)
	_ZN22CNetworkControllerBaseD0Ev @ 69 NONAME ; CNetworkControllerBase::~CNetworkControllerBase [in-charge deleting](void)
	_Z18ClientStubOrdinal3v @ 70 NONAME ; ClientStubOrdinal3(void)
	_ZN3Nif6StartLER6TDes16RK7TDesC16 @ 71 NONAME ; Nif::StartL(TDes16&, TDesC16 const&)
	_ZN4RNif5StartEPv @ 72 NONAME ; RNif::Start(void*)
	_ZN10CNifIfBase5StateEv @ 73 NONAME ; CNifIfBase::State(void)
	_ZN3Nif4StopEPvP10CNifIfBase @ 74 NONAME ; Nif::Stop(void*, CNifIfBase*)
	_ZN3Nif4StopERK7TDesC16 @ 75 NONAME ; Nif::Stop(TDesC16 const&)
	_ZN4RNif4StopEv @ 76 NONAME ; RNif::Stop(void)
	_ZN6MTimer10TimerAfterE27TTimeIntervalMicroSeconds32 @ 77 NONAME ; MTimer::TimerAfter(TTimeIntervalMicroSeconds32)
	_ZN6MTimer7TimerAtERK5TTime @ 78 NONAME ; MTimer::TimerAt(TTime const&)
	_ZN6MTimer11TimerCancelEv @ 79 NONAME ; MTimer::TimerCancel(void)
	_ZN6MTimer15TimerConstructLEi @ 80 NONAME ; MTimer::TimerConstructL(int)
	_ZN6MTimer11TimerDeleteEv @ 81 NONAME ; MTimer::TimerDelete(void)
	_ZN6MTimer9TimerLockE14TTimerLockSpec @ 82 NONAME ; MTimer::TimerLock(TTimerLockSpec)
	_ZN10CNifIfBaseD2Ev @ 83 NONAME ; CNifIfBase::~CNifIfBase [not-in-charge](void)
	_Z18ClientStubOrdinal2v @ 84 NONAME ; ClientStubOrdinal2(void)
	_Z18ClientStubOrdinal9v @ 85 NONAME ; ClientStubOrdinal9(void)
	_Z19ClientStubOrdinal26v @ 86 NONAME ; ClientStubOrdinal26(void)
	_ZN4RNif7VersionEv @ 87 NONAME ; RNif::Version(void)
	_ZN10CNifIfBaseD1Ev @ 88 NONAME ; CNifIfBase::~CNifIfBase(void)
	_ZN11CNifFactoryD1Ev @ 89 NONAME ; CNifFactory::~CNifFactory(void)
	_Z19ClientStubOrdinal22v @ 90 NONAME ; ClientStubOrdinal22(void)
	_Z19ClientStubOrdinal25v @ 91 NONAME ; ClientStubOrdinal25(void)
	_ZThn8_N10CAgentBase25ServiceChangeNotificationEmRK7TDesC16 @ 92 NONAME ; non-virtual thunk [nv:-8] to CAgentBase::ServiceChangeNotification(unsigned long, TDesC16 const&)
	_ZThn308_N22CStateMachineAgentBase26IncomingConnectionReceivedEv @ 93 NONAME ; non-virtual thunk [nv:-308] to CStateMachineAgentBase::IncomingConnectionReceived(void)
	_ZThn308_N22CStateMachineAgentBase24PreventConnectionRetriesEv @ 94 NONAME ; non-virtual thunk [nv:-308] to CStateMachineAgentBase::PreventConnectionRetries(void)
	_ZN11CBearerBaseC2EP15MBearerObserver @ 95 NONAME ; CBearerBase::CBearerBase[not-in-charge](MBearerObserver*)
	_ZThn308_N22CStateMachineAgentBase18DisconnectCompleteEv @ 96 NONAME ; non-virtual thunk [nv:-308] to CStateMachineAgentBase::DisconnectComplete(void)
	_ZN15CAgentStateBaseD2Ev @ 97 NONAME ; CAgentStateBase::~CAgentStateBase [not-in-charge](void)
	_ZN11CBearerBaseD2Ev @ 98 NONAME ; CBearerBase::~CBearerBase [not-in-charge](void)
	MCommReplacementImport1 @ 99 NONAME ; MComm::MComm(void) replacement ordinal
	MTimerReplacementImport1 @ 100 NONAME ; MTimer::MTimer(void) replacement ordinal
	_Z19ClientStubOrdinal12v @ 101 NONAME ; ClientStubOrdinal12(void)
	_ZN16CDialogProcessorD0Ev @ 102 NONAME ; CDialogProcessor::~CDialogProcessor [in-charge deleting](void)
	_Z19ClientStubOrdinal10v @ 103 NONAME ; ClientStubOrdinal10(void)
	_ZN14CCommsDbAccessD0Ev @ 104 NONAME ; CCommsDbAccess::~CCommsDbAccess [in-charge deleting](void)
	_ZN11CNifFactoryC2Ev @ 105 NONAME ; CNifFactory::CNifFactory[not-in-charge](void)
	_ZN4RNif9AgentInfoER13TNifAgentInfo @ 106 NONAME ; RNif::AgentInfo(TNifAgentInfo&)
	_ZN8CNetwork9AddAgentLEP13CNifAgentBase @ 107 NONAME ; CNetwork::AddAgentL(CNifAgentBase*)
	_ZN22CNetworkControllerBase10AddBearerLEP11CBearerBase @ 108 NONAME ; CNetworkControllerBase::AddBearerL(CBearerBase*)
	_ZN22CNetworkControllerBase11AddNetworkLEP8CNetwork @ 109 NONAME ; CNetworkControllerBase::AddNetworkL(CNetwork*)
	_ZN11CBearerBase18AnyBearerAvailableERi @ 110 NONAME ; CBearerBase::AnyBearerAvailable(int&)
	_ZN10CAgentBase12AuthenticateER6TDes16S1_ @ 111 NONAME ; CAgentBase::Authenticate(TDes16&, TDes16&)
	_ZN16CDialogProcessor12AuthenticateER24MDialogProcessorObserverR6TDes16S3_i @ 112 NONAME ; CDialogProcessor::Authenticate(MDialogProcessorObserver&, TDes16&, TDes16&, int)
	_ZNK11CBearerBase18AvailableBearerSetEv @ 113 NONAME ; CBearerBase::AvailableBearerSet(void) const
	_ZN10CAgentBase18CancelAuthenticateEv @ 114 NONAME ; CAgentBase::CancelAuthenticate(void)
	_ZN22CStateMachineAgentBase13CancelConnectEv @ 115 NONAME ; CStateMachineAgentBase::CancelConnect(void)
	_ZN16CDialogProcessor16CancelEverythingEv @ 116 NONAME ; CDialogProcessor::CancelEverything(void)
	_ZN10CAgentBase15CancelReconnectEv @ 117 NONAME ; CAgentBase::CancelReconnect(void)
	_ZN10CAgentBase40CancelRequestNotificationOfServiceChangeEP19MAgentSessionNotify @ 118 NONAME ; CAgentBase::CancelRequestNotificationOfServiceChange(MAgentSessionNotify*)
	_ZN12CEventLogger6CancelEv @ 119 NONAME ; CEventLogger::Cancel(void)
	_ZN16CDialogProcessor8ClosePctEv @ 120 NONAME ; CDialogProcessor::ClosePct(void)
	_ZN14CCommsDbAccess5CloseEv @ 121 NONAME ; CCommsDbAccess::Close(void)
	_ZN12CAgentSMBase13CompleteStateEi @ 122 NONAME ; CAgentSMBase::CompleteState(int)
	_ZN22CStateMachineAgentBase7ConnectE17TAgentConnectType @ 123 NONAME ; CStateMachineAgentBase::Connect(TAgentConnectType)
	_ZN22CStateMachineAgentBase7ConnectE17TAgentConnectTypeP26CStoreableOverrideSettings @ 124 NONAME ; CStateMachineAgentBase::Connect(TAgentConnectType, CStoreableOverrideSettings*)
	_ZN12CAgentSMBase18ConnectionCompleteEi @ 125 NONAME ; CAgentSMBase::ConnectionComplete(int)
	_ZN12CAgentSMBase18ConnectionCompleteEii @ 126 NONAME ; CAgentSMBase::ConnectionComplete(int, int)
	_ZN22CStateMachineAgentBase18ConnectionCompleteEi @ 127 NONAME ; CStateMachineAgentBase::ConnectionComplete(int)
	_ZN22CStateMachineAgentBase18ConnectionCompleteEii @ 128 NONAME ; CStateMachineAgentBase::ConnectionComplete(int, int)
	_ZN12CAgentSMBase22ConnectionContinuationENS_22TSMContinueConnectTypeE @ 129 NONAME ; CAgentSMBase::ConnectionContinuation(CAgentSMBase::TSMContinueConnectType)
	_ZN10CAgentBase19ConnectionSettingsLEv @ 130 NONAME ; CAgentBase::ConnectionSettingsL(void)
	_ZN10CAgentBase10ConstructLEv @ 131 NONAME ; CAgentBase::ConstructL(void)
	_ZN11CBearerBase10ConstructLEv @ 132 NONAME ; CBearerBase::ConstructL(void)
	_ZN22CStateMachineAgentBase10ConstructLEv @ 133 NONAME ; CStateMachineAgentBase::ConstructL(void)
	_ZN8CNetwork10ConstructLEv @ 134 NONAME ; CNetwork::ConstructL(void)
	_ZN13CNifAgentBase7ControlEjjR5TDes8 @ 135 NONAME ; CNifAgentBase::Control(unsigned int, unsigned int, TDes8&)
	_ZN3Nif12CreateAgentLERK7TDesC16i @ 136 NONAME ; Nif::CreateAgentL(TDesC16 const&, int)
	_ZN3Nif16CreateInterfaceLERK7TDesC16P12MNifIfNotify @ 137 NONAME ; Nif::CreateInterfaceL(TDesC16 const&, MNifIfNotify*)
	_ZN12CAgentSMBase2DbEv @ 138 NONAME ; CAgentSMBase::Db(void)
	_ZN16CDialogProcessor22DestroyPctNotificationER24MDialogProcessorObserver @ 139 NONAME ; CDialogProcessor::DestroyPctNotification(MDialogProcessorObserver&)
	_ZN12CAgentSMBase18DisconnectCompleteEv @ 140 NONAME ; CAgentSMBase::DisconnectComplete(void)
	_ZN22CStateMachineAgentBase18DisconnectCompleteEv @ 141 NONAME ; CStateMachineAgentBase::DisconnectComplete(void)
	_ZN22CStateMachineAgentBase10DisconnectEi @ 142 NONAME ; CStateMachineAgentBase::Disconnect(int)
	_ZN12CAgentSMBase6DlgPrcEv @ 143 NONAME ; CAgentSMBase::DlgPrc(void)
	_ZN12CAgentSMBase8DoCancelEv @ 144 NONAME ; CAgentSMBase::DoCancel(void)
	_ZNK8CNetwork14FindAgentByIapEmRP13CNifAgentBase @ 145 NONAME ; CNetwork::FindAgentByIap(unsigned long, CNifAgentBase*&) const
	_ZNK22CNetworkControllerBase15FindNetworkByIdEmRP8CNetwork @ 146 NONAME ; CNetworkControllerBase::FindNetworkById(unsigned long, CNetwork*&) const
	_ZN14CCommsDbAccess29GetBearerAvailabilityTsyNameLER6TDes16 @ 147 NONAME ; CCommsDbAccess::GetBearerAvailabilityTsyNameL(TDes16&)
	_ZN14CCommsDbAccess8GetBoolLERK7TDesC16S2_Ri @ 148 NONAME ; CCommsDbAccess::GetBoolL(TDesC16 const&, TDesC16 const&, int&)
	_ZN14CCommsDbAccess21GetConnectionAttemptsEv @ 149 NONAME ; CCommsDbAccess::GetConnectionAttempts(void)
	_ZNK14CCommsDbAccess22GetConnectionDirectionEv @ 150 NONAME ; CCommsDbAccess::GetConnectionDirection(void) const
	_ZN14CCommsDbAccess19GetCurrentSettingsLER19TConnectionSettings26TCommDbConnectionDirectionm @ 151 NONAME ; CCommsDbAccess::GetCurrentSettingsL(TConnectionSettings&, TCommDbConnectionDirection, unsigned long)
	_ZN14CCommsDbAccess7GetDesLERK7TDesC16S2_R5TDes8 @ 152 NONAME ; CCommsDbAccess::GetDesL(TDesC16 const&, TDesC16 const&, TDes8&)
	_ZN14CCommsDbAccess7GetDesLERK7TDesC16S2_R6TDes16 @ 153 NONAME ; CCommsDbAccess::GetDesL(TDesC16 const&, TDesC16 const&, TDes16&)
	_ZN22CStateMachineAgentBase13GetExcessDataER5TDes8 @ 154 NONAME ; CStateMachineAgentBase::GetExcessData(TDes8&)
	_ZN14CCommsDbAccess10GetGlobalLERK7TDesC16Rm @ 155 NONAME ; CCommsDbAccess::GetGlobalL(TDesC16 const&, unsigned long&)
	_ZN14CCommsDbAccess7GetIntLERK7TDesC16S2_Rm @ 156 NONAME ; CCommsDbAccess::GetIntL(TDesC16 const&, TDesC16 const&, unsigned long&)
	_ZN12CAgentSMBase12GetLastErrorERi @ 157 NONAME ; CAgentSMBase::GetLastError(int&)
	_ZN22CStateMachineAgentBase12GetLastErrorERi @ 158 NONAME ; CStateMachineAgentBase::GetLastError(int&)
	_ZN14CCommsDbAccess19GetLengthOfLongDesLERK7TDesC16S2_ @ 159 NONAME ; CCommsDbAccess::GetLengthOfLongDesL(TDesC16 const&, TDesC16 const&)
	_ZN14CCommsDbAccess12GetLongDesLCERK7TDesC16S2_ @ 160 NONAME ; CCommsDbAccess::GetLongDesLC(TDesC16 const&, TDesC16 const&)
	_ZN14CCommsDbAccess19GetServiceSettingsLER19TConnectionSettings @ 161 NONAME ; CCommsDbAccess::GetServiceSettingsL(TConnectionSettings&)
	_ZN14CCommsDbAccess15GetServiceTypeLER6TDes16 @ 162 NONAME ; CCommsDbAccess::GetServiceTypeL(TDes16&)
	_ZN14CCommsDbAccess11GetTsyNameLER6TDes16 @ 163 NONAME ; CCommsDbAccess::GetTsyNameL(TDes16&)
	_ZN12CAgentSMBase26IncomingConnectionReceivedEv @ 164 NONAME ; CAgentSMBase::IncomingConnectionReceived(void)
	_ZN22CStateMachineAgentBase26IncomingConnectionReceivedEv @ 165 NONAME ; CStateMachineAgentBase::IncomingConnectionReceived(void)
	_ZNK10CAgentBase8IsActiveEv @ 166 NONAME ; CAgentBase::IsActive(void) const
	_ZNK22CStateMachineAgentBase11IsReconnectEv @ 167 NONAME ; CStateMachineAgentBase::IsReconnect(void) const
	_ZN14CCommsDbAccess35IsTelNumLengthZeroForRasConnectionLER19TConnectionSettings @ 168 NONAME ; CCommsDbAccess::IsTelNumLengthZeroForRasConnectionL(TConnectionSettings&)
	_ZN15CAgentStateBase10JumpToRunlEi @ 169 NONAME ; CAgentStateBase::JumpToRunl(int)
	_ZNK14CCommsDbAccess10LocationIdEv @ 170 NONAME ; CCommsDbAccess::LocationId(void) const
	_ZN12CEventLogger10LogCallEndER14TRequestStatus @ 171 NONAME ; CEventLogger::LogCallEnd(TRequestStatus&)
	_ZN12CEventLogger12LogCallStartERK7TDesC16iS2_4TUidR14TRequestStatus @ 172 NONAME ; CEventLogger::LogCallStart(TDesC16 const&, int, TDesC16 const&, TUid, TRequestStatus&)
	_ZN12CEventLogger18LogDataTransferredExx4TUidR14TRequestStatus @ 173 NONAME ; CEventLogger::LogDataTransferred(long long, long long, TUid, TRequestStatus&)
	_ZN16CDialogProcessor5LoginER24MDialogProcessorObserverR6TDes16S3_i @ 174 NONAME ; CDialogProcessor::Login(MDialogProcessorObserver&, TDes16&, TDes16&, int)
	_ZN10CAgentBase24MDPOAuthenticateCompleteEi @ 175 NONAME ; CAgentBase::MDPOAuthenticateComplete(int)
	_ZN24MDialogProcessorObserver24MDPOAuthenticateCompleteEi @ 176 NONAME ; MDialogProcessorObserver::MDPOAuthenticateComplete(int)
	_ZN24MDialogProcessorObserver22MDPODestroyPctCompleteEi @ 177 NONAME ; MDialogProcessorObserver::MDPODestroyPctComplete(int)
	_ZN24MDialogProcessorObserver17MDPOLoginCompleteEi @ 178 NONAME ; MDialogProcessorObserver::MDPOLoginComplete(int)
	_ZN24MDialogProcessorObserver22MDPOQoSWarningCompleteEii @ 179 NONAME ; MDialogProcessorObserver::MDPOQoSWarningComplete(int, int)
	_ZN24MDialogProcessorObserver19MDPOReadPctCompleteEi @ 180 NONAME ; MDialogProcessorObserver::MDPOReadPctComplete(int)
	_ZN24MDialogProcessorObserver21MDPOReconnectCompleteEi @ 181 NONAME ; MDialogProcessorObserver::MDPOReconnectComplete(int)
	_ZN24MDialogProcessorObserver18MDPOSelectCompleteEiRK19TConnectionSettings @ 182 NONAME ; MDialogProcessorObserver::MDPOSelectComplete(int, TConnectionSettings const&)
	_ZN24MDialogProcessorObserver34MDPOSelectModemAndLocationCompleteEiRK19TConnectionSettings @ 183 NONAME ; MDialogProcessorObserver::MDPOSelectModemAndLocationComplete(int, TConnectionSettings const&)
	_ZN24MDialogProcessorObserver16MDPOWarnCompleteEii @ 184 NONAME ; MDialogProcessorObserver::MDPOWarnComplete(int, int)
	_ZN14CCommsDbAccess10ModemTableEv @ 185 NONAME ; CCommsDbAccess::ModemTable(void)
	_ZNK8CNetwork9NetworkIdEv @ 186 NONAME ; CNetwork::NetworkId(void) const
	_ZNK14CCommsDbAccess11NetworkModeEv @ 187 NONAME ; CCommsDbAccess::NetworkMode(void) const
	_ZN3Nif14NewConnectionLEP17MConnectionNotify @ 188 NONAME ; Nif::NewConnectionL(MConnectionNotify*)
	_ZN13CNifIfFactory13NewInterfaceLERK7TDesC16P12MNifIfNotify @ 189 NONAME ; CNifIfFactory::NewInterfaceL(TDesC16 const&, MNifIfNotify*)
	_ZN8CNetwork5NewLCEmP22CNetworkControllerBase @ 190 NONAME ; CNetwork::NewLC(unsigned long, CNetworkControllerBase*)
	_ZN12CEventLogger4NewLEv @ 191 NONAME ; CEventLogger::NewL(void)
	_ZN14CCommsDbAccess4NewLEv @ 192 NONAME ; CCommsDbAccess::NewL(void)
	_ZN16CDialogProcessor4NewLEi @ 193 NONAME ; CDialogProcessor::NewL(int)
	_ZN8CNetwork4NewLEmP22CNetworkControllerBase @ 194 NONAME ; CNetwork::NewL(unsigned long, CNetworkControllerBase*)
	_ZN12CAgentSMBase12NotificationE20TAgentToNifEventTypePv @ 195 NONAME ; CAgentSMBase::Notification(TAgentToNifEventType, void*)
	_ZN22CStateMachineAgentBase12NotificationE20TAgentToNifEventTypePv @ 196 NONAME ; CStateMachineAgentBase::Notification(TAgentToNifEventType, void*)
	_ZN22CStateMachineAgentBase12NotificationE20TNifToAgentEventTypePv @ 197 NONAME ; CStateMachineAgentBase::Notification(TNifToAgentEventType, void*)
	_ZN16CDialogProcessor7OpenPctEv @ 198 NONAME ; CDialogProcessor::OpenPct(void)
	_ZN10CAgentBase10OverridesLEv @ 199 NONAME ; CAgentBase::OverridesL(void)
	_ZN12CAgentSMBase24PreventConnectionRetriesEv @ 200 NONAME ; CAgentSMBase::PreventConnectionRetries(void)
	_ZN22CStateMachineAgentBase24PreventConnectionRetriesEv @ 201 NONAME ; CStateMachineAgentBase::PreventConnectionRetries(void)
	_ZN16CDialogProcessor10QoSWarningER24MDialogProcessorObserver @ 202 NONAME ; CDialogProcessor::QoSWarning(MDialogProcessorObserver&)
	_ZN10CAgentBase8ReadBoolERK7TDesC16Ri @ 203 NONAME ; CAgentBase::ReadBool(TDesC16 const&, int&)
	_ZN14CCommsDbAccess8ReadBoolERK7TDesC16Ri @ 204 NONAME ; CCommsDbAccess::ReadBool(TDesC16 const&, int&)
	_ZN10CAgentBase7ReadDesERK7TDesC16R5TDes8 @ 205 NONAME ; CAgentBase::ReadDes(TDesC16 const&, TDes8&)
	_ZN10CAgentBase7ReadDesERK7TDesC16R6TDes16 @ 206 NONAME ; CAgentBase::ReadDes(TDesC16 const&, TDes16&)
	_ZN14CCommsDbAccess7ReadDesERK7TDesC16R5TDes8 @ 207 NONAME ; CCommsDbAccess::ReadDes(TDesC16 const&, TDes8&)
	_ZN14CCommsDbAccess7ReadDesERK7TDesC16R6TDes16 @ 208 NONAME ; CCommsDbAccess::ReadDes(TDesC16 const&, TDes16&)
	_ZN10CAgentBase7ReadIntERK7TDesC16Rm @ 209 NONAME ; CAgentBase::ReadInt(TDesC16 const&, unsigned long&)
	_ZN14CCommsDbAccess7ReadIntERK7TDesC16Rm @ 210 NONAME ; CCommsDbAccess::ReadInt(TDesC16 const&, unsigned long&)
	_ZN10CAgentBase13ReadLongDesLCERK7TDesC16 @ 211 NONAME ; CAgentBase::ReadLongDesLC(TDesC16 const&)
	_ZN14CCommsDbAccess13ReadLongDesLCERK7TDesC16 @ 212 NONAME ; CCommsDbAccess::ReadLongDesLC(TDesC16 const&)
	_ZN16CDialogProcessor7ReadPctER24MDialogProcessorObserverR6TDes16 @ 213 NONAME ; CDialogProcessor::ReadPct(MDialogProcessorObserver&, TDes16&)
	_ZN10CAgentBase17ReconnectCompleteEi @ 214 NONAME ; CAgentBase::ReconnectComplete(int)
	_ZN10CAgentBase9ReconnectEv @ 215 NONAME ; CAgentBase::Reconnect(void)
	_ZN16CDialogProcessor9ReconnectER24MDialogProcessorObserver @ 216 NONAME ; CDialogProcessor::Reconnect(MDialogProcessorObserver&)
	_ZN11CBearerBase12RemoveAgentLEP13CNifAgentBase @ 217 NONAME ; CBearerBase::RemoveAgentL(CNifAgentBase*)
	_ZN8CNetwork12RemoveAgentLEP13CNifAgentBase @ 218 NONAME ; CNetwork::RemoveAgentL(CNifAgentBase*)
	_ZN10CAgentBase35RequestNotificationOfServiceChangeLEP19MAgentSessionNotify @ 219 NONAME ; CAgentBase::RequestNotificationOfServiceChangeL(MAgentSessionNotify*)
	_ZN12CAgentSMBase4RunLEv @ 220 NONAME ; CAgentSMBase::RunL(void)
	_ZN11CBearerBase23SecondPhaseAvailabilityEv @ 221 NONAME ; CBearerBase::SecondPhaseAvailability(void)
	_ZN10CAgentBase14SelectCompleteERK7TDesC16 @ 222 NONAME ; CAgentBase::SelectComplete(TDesC16 const&)
	_ZN10CAgentBase14SelectCompleteEi @ 223 NONAME ; CAgentBase::SelectComplete(int)
	_ZN16CDialogProcessor16SelectConnectionER24MDialogProcessorObserverRK16TConnectionPrefs @ 224 NONAME ; CDialogProcessor::SelectConnection(MDialogProcessorObserver&, TConnectionPrefs const&)
	_ZN16CDialogProcessor16SelectConnectionER24MDialogProcessorObserverRK16TConnectionPrefsi @ 225 NONAME ; CDialogProcessor::SelectConnection(MDialogProcessorObserver&, TConnectionPrefs const&, int)
	_ZN16CDialogProcessor22SelectModemAndLocationER24MDialogProcessorObserver @ 226 NONAME ; CDialogProcessor::SelectModemAndLocation(MDialogProcessorObserver&)
	_ZN10CAgentBase25ServiceChangeNotificationEmRK7TDesC16 @ 227 NONAME ; CAgentBase::ServiceChangeNotification(unsigned long, TDesC16 const&)
	_ZN12CAgentSMBase14ServiceStartedEv @ 228 NONAME ; CAgentSMBase::ServiceStarted(void)
	_ZN22CStateMachineAgentBase14ServiceStartedEv @ 229 NONAME ; CStateMachineAgentBase::ServiceStarted(void)
	_ZN14CCommsDbAccess12SetCommPortLERKN5RCall9TCommPortE @ 230 NONAME ; CCommsDbAccess::SetCommPortL(RCall::TCommPort const&)
	_ZN10CAgentBase22SetConnectionSettingsLERK19TConnectionSettings @ 231 NONAME ; CAgentBase::SetConnectionSettingsL(TConnectionSettings const&)
	_ZN14CCommsDbAccess19SetCurrentSettingsLERK19TConnectionSettings @ 232 NONAME ; CCommsDbAccess::SetCurrentSettingsL(TConnectionSettings const&)
	_ZN14CCommsDbAccess20SetModemAndLocationLERK19TConnectionSettings @ 233 NONAME ; CCommsDbAccess::SetModemAndLocationL(TConnectionSettings const&)
	_ZN14CCommsDbAccess14SetNetworkModeEN12RMobilePhone23TMobilePhoneNetworkModeE @ 234 NONAME ; CCommsDbAccess::SetNetworkMode(RMobilePhone::TMobilePhoneNetworkMode)
	_ZN10CAgentBase13SetOverridesLEP26CStoreableOverrideSettings @ 235 NONAME ; CAgentBase::SetOverridesL(CStoreableOverrideSettings*)
	_ZN14CCommsDbAccess13SetOverridesLEP23CCommDbOverrideSettings @ 236 NONAME ; CCommsDbAccess::SetOverridesL(CCommDbOverrideSettings*)
	_ZN4RNif5StartEPvR14TRequestStatus @ 237 NONAME ; RNif::Start(void*, TRequestStatus&)
	_ZNK11CBearerBase18SupportedBearerSetEv @ 238 NONAME ; CBearerBase::SupportedBearerSet(void) const
	_ZN11CBearerBase14UpdateObserverEv @ 239 NONAME ; CBearerBase::UpdateObserver(void)
	_ZN12CAgentSMBase14UpdateProgressEii @ 240 NONAME ; CAgentSMBase::UpdateProgress(int, int)
	_ZN22CStateMachineAgentBase14UpdateProgressEii @ 241 NONAME ; CStateMachineAgentBase::UpdateProgress(int, int)
	_ZN16CDialogProcessor17WarnNewConnectionER24MDialogProcessorObserverRK16TConnectionPrefsPK7TDesC16PK19TIspConnectionNamesi @ 242 NONAME ; CDialogProcessor::WarnNewConnection(MDialogProcessorObserver&, TConnectionPrefs const&, TDesC16 const*, TIspConnectionNames const*, int)
	_ZN10CAgentBase9WriteBoolERK7TDesC16i @ 243 NONAME ; CAgentBase::WriteBool(TDesC16 const&, int)
	_ZN14CCommsDbAccess9WriteBoolERK7TDesC16i @ 244 NONAME ; CCommsDbAccess::WriteBool(TDesC16 const&, int)
	_ZN10CAgentBase8WriteDesERK7TDesC16RK6TDesC8 @ 245 NONAME ; CAgentBase::WriteDes(TDesC16 const&, TDesC8 const&)
	_ZN10CAgentBase8WriteDesERK7TDesC16S2_ @ 246 NONAME ; CAgentBase::WriteDes(TDesC16 const&, TDesC16 const&)
	_ZN14CCommsDbAccess8WriteDesERK7TDesC16RK6TDesC8 @ 247 NONAME ; CCommsDbAccess::WriteDes(TDesC16 const&, TDesC8 const&)
	_ZN14CCommsDbAccess8WriteDesERK7TDesC16S2_ @ 248 NONAME ; CCommsDbAccess::WriteDes(TDesC16 const&, TDesC16 const&)
	_ZN10CAgentBase8WriteIntERK7TDesC16m @ 249 NONAME ; CAgentBase::WriteInt(TDesC16 const&, unsigned long)
	_ZN14CCommsDbAccess8WriteIntERK7TDesC16m @ 250 NONAME ; CCommsDbAccess::WriteInt(TDesC16 const&, unsigned long)
	_ZN16CDialogProcessor8WritePctERK7TDesC16 @ 251 NONAME ; CDialogProcessor::WritePct(TDesC16 const&)
	_ZN10CAgentBaseD1Ev @ 252 NONAME ; CAgentBase::~CAgentBase(void)
	_ZN11CBearerBaseD1Ev @ 253 NONAME ; CBearerBase::~CBearerBase(void)
	_ZN12CAgentSMBaseD1Ev @ 254 NONAME ; CAgentSMBase::~CAgentSMBase(void)
	_ZN12CEventLoggerD1Ev @ 255 NONAME ; CEventLogger::~CEventLogger(void)
	_ZN14CCommsDbAccessD1Ev @ 256 NONAME ; CCommsDbAccess::~CCommsDbAccess(void)
	_ZN15CAgentStateBaseD1Ev @ 257 NONAME ; CAgentStateBase::~CAgentStateBase(void)
	_ZN16CDialogProcessorD1Ev @ 258 NONAME ; CDialogProcessor::~CDialogProcessor(void)
	_ZN22CNetworkControllerBaseD1Ev @ 259 NONAME ; CNetworkControllerBase::~CNetworkControllerBase(void)
	_ZN22CStateMachineAgentBaseD1Ev @ 260 NONAME ; CStateMachineAgentBase::~CStateMachineAgentBase(void)
	_ZN8CNetworkD1Ev @ 261 NONAME ; CNetwork::~CNetwork(void)
	_ZThn308_N22CStateMachineAgentBase14UpdateProgressEii @ 262 NONAME ; non-virtual thunk [nv:-308] to CStateMachineAgentBase::UpdateProgress(int, int)
	_ZThn308_N22CStateMachineAgentBase14ServiceStartedEv @ 263 NONAME ; non-virtual thunk [nv:-308] to CStateMachineAgentBase::ServiceStarted(void)
	_ZThn308_N22CStateMachineAgentBase12NotificationE20TAgentToNifEventTypePv @ 264 NONAME ; non-virtual thunk [nv:-308] to CStateMachineAgentBase::Notification(TAgentToNifEventType, void*)
	_ZThn24_N12CAgentSMBase6DlgPrcEv @ 265 NONAME ; non-virtual thunk [nv:-24] to CAgentSMBase::DlgPrc(void)
	_ZN19TConnectionSettingsC1Ev @ 266 NONAME ; TConnectionSettings::TConnectionSettings(void)
	_ZThn24_N12CAgentSMBase2DbEv @ 267 NONAME ; non-virtual thunk [nv:-24] to CAgentSMBase::Db(void)
	_ZThn24_N12CAgentSMBase26IncomingConnectionReceivedEv @ 268 NONAME ; non-virtual thunk [nv:-24] to CAgentSMBase::IncomingConnectionReceived(void)
	_ZN8CNetworkC1EmP22CNetworkControllerBase @ 269 NONAME ; CNetwork::CNetwork(unsigned long, CNetworkControllerBase*)
	_ZN11CBearerBase9AddAgentLEP13CNifAgentBase @ 270 NONAME ; CBearerBase::AddAgentL(CNifAgentBase*)
	_ZN10CNifIfLink7RestartEP10CNifIfBase @ 271 NONAME ; CNifIfLink::Restart(CNifIfBase*)
	_ZN14CCommsDbAccess40CancelRequestNotificationOfServiceChangeEP22MServiceChangeObserver @ 272 NONAME ; CCommsDbAccess::CancelRequestNotificationOfServiceChange(MServiceChangeObserver*)
	_ZN14CCommsDbAccess35RequestNotificationOfServiceChangeLEP22MServiceChangeObserver @ 273 NONAME ; CCommsDbAccess::RequestNotificationOfServiceChangeL(MServiceChangeObserver*)
	_ZN12CEventLogger15LogDataAddEventEiRK7TDesC16iS2_4TUid @ 274 NONAME ; CEventLogger::LogDataAddEvent(int, TDesC16 const&, int, TDesC16 const&, TUid)
	_ZN12CEventLogger28LogDataNotifyLastEventUpdateEP14TRequestStatus @ 275 NONAME ; CEventLogger::LogDataNotifyLastEventUpdate(TRequestStatus*)
	_ZN12CEventLogger18LogDataUpdateEventEiRK4TUid @ 276 NONAME ; CEventLogger::LogDataUpdateEvent(int, TUid const&)
	_ZN12CEventLogger18LogDataUpdateEventEiRK4TUidRKxS4_ @ 277 NONAME ; CEventLogger::LogDataUpdateEvent(int, TUid const&, long long const&, long long const&)
	_ZN14CCommsDbAccess15GetPreferedIapLERm26TCommDbConnectionDirectionm @ 278 NONAME ; CCommsDbAccess::GetPreferedIapL(unsigned long&, TCommDbConnectionDirection, unsigned long)
	_ZN14CCommsDbAccess15SetPreferedIapLERm26TCommDbConnectionDirectionm @ 279 NONAME ; CCommsDbAccess::SetPreferedIapL(unsigned long&, TCommDbConnectionDirection, unsigned long)
	_ZN14CCommsDbAccess13DoesIapExistLEm @ 280 NONAME ; CCommsDbAccess::DoesIapExistL(unsigned long)
	_ZN14CCommsDbAccess17GetFirstValidIapLERm @ 281 NONAME ; CCommsDbAccess::GetFirstValidIapL(unsigned long&)
	_ZN14CCommsDbAccess22IsShowingHiddenRecordsEv @ 282 NONAME ; CCommsDbAccess::IsShowingHiddenRecords(void)
	_ZN14CCommsDbAccess4NewLEi @ 283 NONAME ; CCommsDbAccess::NewL(int)
	_Z19ClientStubOrdinal19v @ 284 NONAME ; ClientStubOrdinal19(void)
	_Z19ClientStubOrdinal20v @ 285 NONAME ; ClientStubOrdinal20(void)
	_Z19ClientStubOrdinal24v @ 286 NONAME ; ClientStubOrdinal24(void)
	_Z19ClientStubOrdinal14v @ 287 NONAME ; ClientStubOrdinal14(void)
	_Z19ClientStubOrdinal27v @ 288 NONAME ; ClientStubOrdinal27(void)
	_Z19ClientStubOrdinal29v @ 289 NONAME ; ClientStubOrdinal29(void)
	MCommReplacementImport2 @ 290 NONAME ; MComm::MComm[not-in-charge](void) replacement ordinal
	_ZN22CStateMachineAgentBaseD2Ev @ 291 NONAME ; CStateMachineAgentBase::~CStateMachineAgentBase [not-in-charge](void)
	_ZN10CNifIfBaseC2ER13CNifIfFactory @ 292 NONAME ; CNifIfBase::CNifIfBase[not-in-charge](CNifIfFactory&)
	_ZN10CNifIfBaseD0Ev @ 293 NONAME ; CNifIfBase::~CNifIfBase [in-charge deleting](void)
	_ZN10CNifIfBaseC2Ev @ 294 NONAME ; CNifIfBase::CNifIfBase[not-in-charge](void)
	_ZN10CNifIfBaseC2ER10CNifIfLink @ 295 NONAME ; CNifIfBase::CNifIfBase[not-in-charge](CNifIfLink&)
	_ZN10CAgentBaseD0Ev @ 296 NONAME ; CAgentBase::~CAgentBase [in-charge deleting](void)
	_ZN16CDialogProcessorD2Ev @ 297 NONAME ; CDialogProcessor::~CDialogProcessor [not-in-charge](void)
	MTimerReplacementImport2 @ 298 NONAME ; MTimer::MTimer[not-in-charge](void)
	_Z18ClientStubOrdinal6v @ 299 NONAME ; ClientStubOrdinal6(void)
	_Z19ClientStubOrdinal13v @ 300 NONAME ; ClientStubOrdinal13(void)
	_ZN22CNetworkControllerBaseD2Ev @ 301 NONAME ; CNetworkControllerBase::~CNetworkControllerBase [not-in-charge](void)
	_ZN12CAgentSMBaseC2ER12MAgentNotifyP16CDialogProcessorR14CCommsDbAccess @ 302 NONAME ; CAgentSMBase::CAgentSMBase[not-in-charge](MAgentNotify&, CDialogProcessor*, CCommsDbAccess&)
	_Z18ClientStubOrdinal8v @ 303 NONAME ; ClientStubOrdinal8(void)
	_Z19ClientStubOrdinal15v @ 304 NONAME ; ClientStubOrdinal15(void)
	_ZN11CBearerBaseD0Ev @ 305 NONAME ; CBearerBase::~CBearerBase [in-charge deleting](void)
	_ZN8CNetworkC2EmP22CNetworkControllerBase @ 306 NONAME ; CNetwork::CNetwork[not-in-charge](unsigned long, CNetworkControllerBase*)
	_ZN8CNetworkD0Ev @ 307 NONAME ; CNetwork::~CNetwork [in-charge deleting](void)
	_Z19ClientStubOrdinal11v @ 308 NONAME ; ClientStubOrdinal11(void)
	_ZN8CNetworkD2Ev @ 309 NONAME ; CNetwork::~CNetwork [not-in-charge](void)
	_ZN22CStateMachineAgentBaseD0Ev @ 310 NONAME ; CStateMachineAgentBase::~CStateMachineAgentBase [in-charge deleting](void)
	_ZN12CAgentSMBaseD0Ev @ 311 NONAME ; CAgentSMBase::~CAgentSMBase [in-charge deleting](void)
	_Z18ClientStubOrdinal4v @ 312 NONAME ; ClientStubOrdinal4(void)
	_Z19ClientStubOrdinal16v @ 313 NONAME ; ClientStubOrdinal16(void)
	_ZN14CCommsDbAccessD2Ev @ 314 NONAME ; CCommsDbAccess::~CCommsDbAccess [not-in-charge](void)
	_ZN12CEventLoggerD2Ev @ 315 NONAME ; CEventLogger::~CEventLogger [not-in-charge](void)
	_Z19ClientStubOrdinal23v @ 316 NONAME ; ClientStubOrdinal23(void)
	_ZN10CNifIfLinkC2ER13CNifIfFactory @ 317 NONAME ; CNifIfLink::CNifIfLink[not-in-charge](CNifIfFactory&)
	_Z19ClientStubOrdinal17v @ 318 NONAME ; ClientStubOrdinal17(void)
	_Z19ClientStubOrdinal18v @ 319 NONAME ; ClientStubOrdinal18(void)
	_ZN15CAgentStateBaseD0Ev @ 320 NONAME ; CAgentStateBase::~CAgentStateBase [in-charge deleting](void)
	_ZN12CEventLoggerD0Ev @ 321 NONAME ; CEventLogger::~CEventLogger [in-charge deleting](void)
	_ZTI10CAgentBase @ 322 NONAME ; typeinfo for CAgentBase
	_ZTI10CNifIfBase @ 323 NONAME ; typeinfo for CNifIfBase
	_ZTI10CNifIfLink @ 324 NONAME ; typeinfo for CNifIfLink
	_ZTI11CBearerBase @ 325 NONAME ; typeinfo for CBearerBase
	_ZTI11CNifFactory @ 326 NONAME ; typeinfo for CNifFactory
	_ZTI12CAgentSMBase @ 327 NONAME ; typeinfo for CAgentSMBase
	_ZTI12CEventLogger @ 328 NONAME ; typeinfo for CEventLogger
	_ZTI13CNifAgentBase @ 329 NONAME ; typeinfo for CNifAgentBase
	_ZTI13CNifIfFactory @ 330 NONAME ; typeinfo for CNifIfFactory
	_ZTI15CAgentStateBase @ 331 NONAME ; typeinfo for CAgentStateBase
	_ZTI22CNetworkControllerBase @ 332 NONAME ; typeinfo for CNetworkControllerBase
	_ZTI22CStateMachineAgentBase @ 333 NONAME ; typeinfo for CStateMachineAgentBase
	_ZTI24MDialogProcessorObserver @ 334 NONAME ; typeinfo for MDialogProcessorObserver
	MCommReplacementImport3 @ 335 NONAME ; typeinfo for MComm replacement
	MTimerReplacementImport3 @ 336 NONAME ; typeinfo for MTimer
	_ZTI8CNetwork @ 337 NONAME ; typeinfo for CNetwork
	_ZTV10CAgentBase @ 338 NONAME ; vtable for CAgentBase
	_ZTV10CNifIfBase @ 339 NONAME ; vtable for CNifIfBase
	_ZTV10CNifIfLink @ 340 NONAME ; vtable for CNifIfLink
	_ZTV11CBearerBase @ 341 NONAME ; vtable for CBearerBase
	_ZTV11CNifFactory @ 342 NONAME ; vtable for CNifFactory
	_ZTV12CAgentSMBase @ 343 NONAME ; vtable for CAgentSMBase
	_ZTV12CEventLogger @ 344 NONAME ; vtable for CEventLogger
	_ZTV13CNifAgentBase @ 345 NONAME ; vtable for CNifAgentBase
	_ZTV13CNifIfFactory @ 346 NONAME ; vtable for CNifIfFactory
	_ZTV15CAgentStateBase @ 347 NONAME ; vtable for CAgentStateBase
	_ZTV22CNetworkControllerBase @ 348 NONAME ; vtable for CNetworkControllerBase
	_ZTV22CStateMachineAgentBase @ 349 NONAME ; vtable for CStateMachineAgentBase
	_ZTV24MDialogProcessorObserver @ 350 NONAME ; vtable for MDialogProcessorObserver
	_ZTV8CNetwork @ 351 NONAME ; vtable for CNetwork
	_ZThn12_N10CAgentBase24MDPOAuthenticateCompleteEi @ 352 NONAME ; non-virtual thunk [nv:-12] to CAgentBase::MDPOAuthenticateComplete(int)
	_ZThn16_N10CAgentBase14SelectCompleteERK7TDesC16 @ 353 NONAME ; non-virtual thunk [nv:-16] to CAgentBase::SelectComplete(TDesC16 const&)
	_ZThn16_N10CAgentBase14SelectCompleteEi @ 354 NONAME ; non-virtual thunk [nv:-16] to CAgentBase::SelectComplete(int)
	_ZThn16_N10CAgentBase17ReconnectCompleteEi @ 355 NONAME ; non-virtual thunk [nv:-16] to CAgentBase::ReconnectComplete(int)
	_ZThn24_N12CAgentSMBase12NotificationE20TAgentToNifEventTypePv @ 356 NONAME ; non-virtual thunk [nv:-24] to CAgentSMBase::Notification(TAgentToNifEventType, void*)
	_ZThn24_N12CAgentSMBase13CompleteStateEi @ 357 NONAME ; non-virtual thunk [nv:-24] to CAgentSMBase::CompleteState(int)
	_ZThn24_N12CAgentSMBase14ServiceStartedEv @ 358 NONAME ; non-virtual thunk [nv:-24] to CAgentSMBase::ServiceStarted(void)
	_ZThn24_N12CAgentSMBase14UpdateProgressEii @ 359 NONAME ; non-virtual thunk [nv:-24] to CAgentSMBase::UpdateProgress(int, int)
	_ZThn24_N12CAgentSMBase18ConnectionCompleteEi @ 360 NONAME ; non-virtual thunk [nv:-24] to CAgentSMBase::ConnectionComplete(int)
	_ZThn24_N12CAgentSMBase18ConnectionCompleteEii @ 361 NONAME ; non-virtual thunk [nv:-24] to CAgentSMBase::ConnectionComplete(int, int)
	_ZThn24_N12CAgentSMBase18DisconnectCompleteEv @ 362 NONAME ; non-virtual thunk [nv:-24] to CAgentSMBase::DisconnectComplete(void)
	_ZThn24_N12CAgentSMBase24PreventConnectionRetriesEv @ 363 NONAME ; non-virtual thunk [nv:-24] to CAgentSMBase::PreventConnectionRetries(void)
	_ZN5MComm8CommOpenERK7TDesC16S2_11TCommAccess9TCommRole @ 364 NONAME ; MComm::CommOpen(TDesC16 const &, TDesC16 const &, TCommAccess, TCommRole)
	_ZThn308_N22CStateMachineAgentBase18ConnectionCompleteEii @ 365 NONAME ; non-virtual thunk [nv:-308] to CStateMachineAgentBase::ConnectionComplete(int, int)
	_ZThn308_N22CStateMachineAgentBase18ConnectionCompleteEi @ 366 NONAME ; non-virtual thunk [nv:-308] to CStateMachineAgentBase::ConnectionComplete(int)
	_ZN14CCommsDbAccess4NewLEP14MCommsDbAccess @ 367 NONAME ; CCommsDbAccess::NewL(MCommsDbAccess*)
	_ZN14MCommsDbAccessD0Ev @ 368 NONAME ; MCommsDbAccess::~MCommsDbAccess [in-charge deleting](void)
	_ZN14MCommsDbAccessD1Ev @ 369 NONAME ; MCommsDbAccess::~MCommsDbAccess(void)
	_ZN14MCommsDbAccessD2Ev @ 370 NONAME ; MCommsDbAccess::~MCommsDbAccess [not-in-charge](void)
	_ZTI14MCommsDbAccess @ 371 NONAME ; #<TI># ; typeinfo for MCommsDbAccess
	_ZTV14MCommsDbAccess @ 372 NONAME ; #<VT># ; vtable for MCommsDbAccess
	_ZTI14CCommsDbAccess @ 373 NONAME ; #<TI>#
	_ZTI16CDialogProcessor @ 374 NONAME ; #<TI>#
	_ZTV14CCommsDbAccess @ 375 NONAME ; #<VT>#
	_ZTV16CDialogProcessor @ 376 NONAME ; #<VT>#


