EXPORTS
	??0CAgentMetaConnectionProvider@@IAE@AAVCMetaConnectionProviderFactoryBase@ESock@@ABVTProviderInfo@2@ABUTNodeActivityMap@MeshMachine@@@Z @ 1 NONAME ; CAgentMetaConnectionProvider::CAgentMetaConnectionProvider(class ESock::CMetaConnectionProviderFactoryBase &, class ESock::TProviderInfo const &, struct MeshMachine::TNodeActivityMap const &)
	??0CAgentNotificationHandler@@IAE@XZ @ 2 NONAME ; CAgentNotificationHandler::CAgentNotificationHandler(void)
	??0CAgentSubConnectionProvider@@IAE@AAVCSubConnectionProviderFactoryBase@ESock@@ABUTNodeActivityMap@MeshMachine@@@Z @ 3 NONAME ; CAgentSubConnectionProvider::CAgentSubConnectionProvider(class ESock::CSubConnectionProviderFactoryBase &, struct MeshMachine::TNodeActivityMap const &)
	??1CAgentConnectionProvider@@UAE@XZ @ 4 NONAME ; CAgentConnectionProvider::~CAgentConnectionProvider(void)
	??1CAgentMetaConnectionProvider@@UAE@XZ @ 5 NONAME ; CAgentMetaConnectionProvider::~CAgentMetaConnectionProvider(void)
	??1CAgentProvisionInfo@@UAE@XZ @ 6 NONAME ; CAgentProvisionInfo::~CAgentProvisionInfo(void)
	??1CAgentSubConnectionProvider@@UAE@XZ @ 7 NONAME ; CAgentSubConnectionProvider::~CAgentSubConnectionProvider(void)
	??1CBCAProvision@@MAE@XZ @ 8 NONAME ; CBCAProvision::~CBCAProvision(void)
	??1CIPConfig@@MAE@XZ @ 9 NONAME ; CIPConfig::~CIPConfig(void)
	??1CTunnelAgentConnectionProvider@@UAE@XZ @ 10 NONAME ; CTunnelAgentConnectionProvider::~CTunnelAgentConnectionProvider(void)
	?Accept@TAwaitingAgentDown@AgentSCprStates@@UAEHXZ @ 11 NONAME ; int AgentSCprStates::TAwaitingAgentDown::Accept(void)
	?Accept@TAwaitingAuthenticate@AgentSCprStates@@UAEHXZ @ 12 NONAME ; int AgentSCprStates::TAwaitingAuthenticate::Accept(void)
	?Accept@TAwaitingAuthenticateComplete@AgentSCprStates@@UAEHXZ @ 13 NONAME ; int AgentSCprStates::TAwaitingAuthenticateComplete::Accept(void)
	?Accept@TAwaitingNotificationFromFlow@AgentSCprStates@@UAEHXZ @ 14 NONAME ; int AgentSCprStates::TAwaitingNotificationFromFlow::Accept(void)
	?AgentProvisionInfo@CAgentSubConnectionProvider@@IBEPBVCAgentProvisionInfo@@XZ @ 15 NONAME ; class CAgentProvisionInfo const * CAgentSubConnectionProvider::AgentProvisionInfo(void) const
	?AnonPostMessageToFlow@CAgentNotificationHandler@@IAEHABVTSignatureBase@Messages@@@Z @ 16 NONAME ; int CAgentNotificationHandler::AnonPostMessageToFlow(class Messages::TSignatureBase const &)
	?AppendExtensionL@CAgentNotificationHandler@@IAEXPBUSMetaData@Meta@@@Z @ 17  NONAME ; void CAgentNotificationHandler::AppendExtensionL(struct Meta::SMetaData const *)
	?Cancel@TAwaitingAuthenticateComplete@AgentSCprStates@@UAEXXZ @ 18 NONAME ; void AgentSCprStates::TAwaitingAuthenticateComplete::Cancel(void)
	?CancelAvailabilityMonitoring@CAgentMetaConnectionProvider@@MAEXXZ @ 19 NONAME ; void CAgentMetaConnectionProvider::CancelAvailabilityMonitoring(void)
	?CleanupCloseIapView@CAgentMetaConnectionProvider@@KAXPAX@Z @ 20 NONAME ; void CAgentMetaConnectionProvider::CleanupCloseIapView(void *)
	?CleanupProvisioningInfo@CAgentSubConnectionProvider@@IAEXXZ @ 21 NONAME ; void CAgentSubConnectionProvider::CleanupProvisioningInfo(void)
	?CloseIapView@CAgentMetaConnectionProvider@@IAEXXZ @ 22 NONAME ; void CAgentMetaConnectionProvider::CloseIapView(void)
	?ConnectAgent@CAgentSubConnectionProvider@@IAEXW4TAgentConnectType@@@Z @ 23 NONAME ; void CAgentSubConnectionProvider::ConnectAgent(enum TAgentConnectType)
	?ConnectCompleteL@CAgentNotificationHandler@@UAEXXZ @ 24 NONAME ; void CAgentNotificationHandler::ConnectCompleteL(void)
	?ConstructL@CAgentMetaConnectionProvider@@IAEXXZ @ 25 NONAME ; void CAgentMetaConnectionProvider::ConstructL(void)
	?DoL@TJoinRealIAP@TunnelAgentCprStates@@UAEXXZ @ 26 NONAME ; void TunnelAgentCprStates::TJoinRealIAP::DoL(void)
	?DoL@TNotifyAgent@AgentSCprStates@@UAEXXZ @ 27 NONAME ; void AgentSCprStates::TNotifyAgent::DoL(void)
	?DoL@TProcessDataClientGoneDown@AgentSCprStates@@UAEXXZ @ 28 NONAME ; void AgentSCprStates::TProcessDataClientGoneDown::DoL(void)
	?DoL@TSendAuthenticate@AgentSCprStates@@UAEXXZ @ 29 NONAME ; void AgentSCprStates::TSendAuthenticate::DoL(void)
	?DoL@TSendAuthenticateComplete@AgentSCprStates@@UAEXXZ @ 30 NONAME ; void AgentSCprStates::TSendAuthenticateComplete::DoL(void)
	?DoL@TSendDataClientGoneDown@AgentSCprStates@@UAEXXZ @ 31 NONAME ; void AgentSCprStates::TSendDataClientGoneDown::DoL(void)
	?DoL@TSendError@AgentSCprStates@@UAEXXZ @ 32 NONAME ; void AgentSCprStates::TSendError::DoL(void)
	?DoL@TStartAgent@AgentSCprStates@@UAEXXZ @ 33 NONAME ; void AgentSCprStates::TStartAgent::DoL(void)
	?DoL@TStopAgent@AgentSCprStates@@UAEXXZ @ 34 NONAME ; void AgentSCprStates::TStopAgent::DoL(void)
	?GetAttribPtr@CBCAProvision@@UBEPAEH@Z @ 35 NONAME ; unsigned char * CBCAProvision::GetAttribPtr(int) const
	?GetAttribPtr@CIPConfig@@UBEPAEH@Z @ 36 NONAME ; unsigned char * CIPConfig::GetAttribPtr(int) const
	?GetAttribPtr@CRawIpAgentConfig@@UBEPAEH@Z @ 37 NONAME ; unsigned char * CRawIpAgentConfig::GetAttribPtr(int) const
	?GetExtension@CAgentNotificationHandler@@IBEPBUSMetaData@Meta@@ABUSTypeId@3@@Z @ 38 NONAME ; struct Meta::SMetaData const * CAgentNotificationHandler::GetExtension(struct Meta::STypeId const &) const
	?GetIp4Addr@CAgentMetaConnectionProvider@@SAHPAVCCommsDatIapView@ESock@@KAAK@Z @ 39 NONAME ; int CAgentMetaConnectionProvider::GetIp4Addr(class ESock::CCommsDatIapView *, unsigned long, unsigned long &)
	?GetIp4AddrL@CAgentMetaConnectionProvider@@SAXPAVCCommsDatIapView@ESock@@KAAK@Z @ 40 NONAME ; void CAgentMetaConnectionProvider::GetIp4AddrL(class ESock::CCommsDatIapView *, unsigned long, unsigned long &)
	?GetIp6Addr@CAgentMetaConnectionProvider@@SAHPAVCCommsDatIapView@ESock@@KAAVTIp6Addr@@@Z @ 41 NONAME ; int CAgentMetaConnectionProvider::GetIp6Addr(class ESock::CCommsDatIapView *, unsigned long, class TIp6Addr &)
	?GetIp6AddrL@CAgentMetaConnectionProvider@@SAXPAVCCommsDatIapView@ESock@@KAAVTIp6Addr@@@Z @ 42 NONAME ; void CAgentMetaConnectionProvider::GetIp6AddrL(class ESock::CCommsDatIapView *, unsigned long, class TIp6Addr &)
	?GetVDataTable@CBCAProvision@@UBEPBUSVDataTableEntry@Meta@@XZ @ 43 NONAME ; struct Meta::SVDataTableEntry const * CBCAProvision::GetVDataTable(void) const
	?GetVDataTable@CIPConfig@@UBEPBUSVDataTableEntry@Meta@@XZ @ 44 NONAME ; struct Meta::SVDataTableEntry const * CIPConfig::GetVDataTable(void) const
	?GetVDataTable@CRawIpAgentConfig@@UBEPBUSVDataTableEntry@Meta@@XZ @ 45 NONAME ; struct Meta::SVDataTableEntry const * CRawIpAgentConfig::GetVDataTable(void) const
	?GetVDataTableStatic@CBCAProvision@@SAPBUSVDataTableEntry@Meta@@XZ @ 46 NONAME ; struct Meta::SVDataTableEntry const * CBCAProvision::GetVDataTableStatic(void)
	?GetVDataTableStatic@CIPConfig@@SAPBUSVDataTableEntry@Meta@@XZ @ 47 NONAME ; struct Meta::SVDataTableEntry const * CIPConfig::GetVDataTableStatic(void)
	?GetVDataTableStatic@CRawIpAgentConfig@@SAPBUSVDataTableEntry@Meta@@XZ @ 48 NONAME ; struct Meta::SVDataTableEntry const * CRawIpAgentConfig::GetVDataTableStatic(void)
	?GetVTablePtr@TAwaitingAgentDown@AgentSCprStates@@SAPAVMState@NetStateMachine@@AAVTDesC8@@PAX@Z @ 49 NONAME ; class NetStateMachine::MState * AgentSCprStates::TAwaitingAgentDown::GetVTablePtr(class TDesC8 &, void *)
	?GetVTablePtr@TAwaitingAuthenticate@AgentSCprStates@@SAPAVMState@NetStateMachine@@AAVTDesC8@@PAX@Z @ 50 NONAME ; class NetStateMachine::MState * AgentSCprStates::TAwaitingAuthenticate::GetVTablePtr(class TDesC8 &, void *)
	?GetVTablePtr@TAwaitingAuthenticateComplete@AgentSCprStates@@SAPAVMState@NetStateMachine@@AAVTDesC8@@PAX@Z @ 51 NONAME ; class NetStateMachine::MState * AgentSCprStates::TAwaitingAuthenticateComplete::GetVTablePtr(class TDesC8 &, void *)
	?GetVTablePtr@TAwaitingNotificationFromFlow@AgentSCprStates@@SAPAVMState@NetStateMachine@@AAVTDesC8@@PAX@Z @ 52 NONAME ; class NetStateMachine::MState * AgentSCprStates::TAwaitingNotificationFromFlow::GetVTablePtr(class TDesC8 &, void *)
	?GetVTablePtr@TJoinRealIAP@TunnelAgentCprStates@@SAPAVMStateTransition@NetStateMachine@@AAVTDesC8@@PAX@Z @ 53 NONAME ; class NetStateMachine::MStateTransition * TunnelAgentCprStates::TJoinRealIAP::GetVTablePtr(class TDesC8 &, void *)
	?GetVTablePtr@TNoTagOrProviderStarted@AgentSCprStates@@SAPAVMStateFork@NetStateMachine@@AAVTDesC8@@PAX@Z @ 54 NONAME ; class NetStateMachine::MStateFork * AgentSCprStates::TNoTagOrProviderStarted::GetVTablePtr(class TDesC8 &, void *)
	?GetVTablePtr@TNoTagOrProviderStopped@AgentSCprStates@@SAPAVMStateFork@NetStateMachine@@AAVTDesC8@@PAX@Z @ 55 NONAME ; class NetStateMachine::MStateFork * AgentSCprStates::TNoTagOrProviderStopped::GetVTablePtr(class TDesC8 &, void *)
	?GetVTablePtr@TNotifyAgent@AgentSCprStates@@SAPAVMStateTransition@NetStateMachine@@AAVTDesC8@@PAX@Z @ 56 NONAME ; class NetStateMachine::MStateTransition * AgentSCprStates::TNotifyAgent::GetVTablePtr(class TDesC8 &, void *)
	?GetVTablePtr@TProcessDataClientGoneDown@AgentSCprStates@@SAPAVMStateTransition@NetStateMachine@@AAVTDesC8@@PAX@Z @ 57 NONAME ; class NetStateMachine::MStateTransition * AgentSCprStates::TProcessDataClientGoneDown::GetVTablePtr(class TDesC8 &, void *)
	?GetVTablePtr@TSendAuthenticate@AgentSCprStates@@SAPAVMStateTransition@NetStateMachine@@AAVTDesC8@@PAX@Z @ 58 NONAME ; class NetStateMachine::MStateTransition * AgentSCprStates::TSendAuthenticate::GetVTablePtr(class TDesC8 &, void *)
	?GetVTablePtr@TSendAuthenticateComplete@AgentSCprStates@@SAPAVMStateTransition@NetStateMachine@@AAVTDesC8@@PAX@Z @ 59 NONAME ; class NetStateMachine::MStateTransition * AgentSCprStates::TSendAuthenticateComplete::GetVTablePtr(class TDesC8 &, void *)
	?GetVTablePtr@TSendDataClientGoneDown@AgentSCprStates@@SAPAVMStateTransition@NetStateMachine@@AAVTDesC8@@PAX@Z @ 60 NONAME ; class NetStateMachine::MStateTransition * AgentSCprStates::TSendDataClientGoneDown::GetVTablePtr(class TDesC8 &, void *)
	?GetVTablePtr@TSendError@AgentSCprStates@@SAPAVMStateTransition@NetStateMachine@@AAVTDesC8@@PAX@Z @ 61 NONAME ; class NetStateMachine::MStateTransition * AgentSCprStates::TSendError::GetVTablePtr(class TDesC8 &, void *)
	?GetVTablePtr@TStartAgent@AgentSCprStates@@SAPAVMStateTransition@NetStateMachine@@AAVTDesC8@@PAX@Z @ 62 NONAME ; class NetStateMachine::MStateTransition * AgentSCprStates::TStartAgent::GetVTablePtr(class TDesC8 &, void *)
	?GetVTablePtr@TStopAgent@AgentSCprStates@@SAPAVMStateTransition@NetStateMachine@@AAVTDesC8@@PAX@Z @ 63 NONAME ; class NetStateMachine::MStateTransition * AgentSCprStates::TStopAgent::GetVTablePtr(class TDesC8 &, void *)
	?IapView@CAgentMetaConnectionProvider@@IAEPAVCCommsDatIapView@ESock@@XZ @ 64 NONAME ; class ESock::CCommsDatIapView * CAgentMetaConnectionProvider::IapView(void)
	?NewFromGPRSOutLC@CIPConfig@@SAPAV1@PAVCCommsDatIapView@ESock@@@Z @ 65 NONAME ; class CIPConfig * CIPConfig::NewFromGPRSOutLC(class ESock::CCommsDatIapView *)
	?NewL@CAgentConnectionProvider@@SAPAV1@AAVCConnectionProviderFactoryBase@ESock@@@Z @ 66 NONAME ; class CAgentConnectionProvider * CAgentConnectionProvider::NewL(class ESock::CConnectionProviderFactoryBase &)
	?NewL@CAgentSubConnectionProvider@@SAPAV1@AAVCSubConnectionProviderFactoryBase@ESock@@@Z @ 67 NONAME ; class CAgentSubConnectionProvider * CAgentSubConnectionProvider::NewL(class ESock::CSubConnectionProviderFactoryBase &)
	?NewL@CTunnelAgentConnectionProvider@@SAPAV1@AAVCConnectionProviderFactoryBase@ESock@@@Z @ 68 NONAME ; class CTunnelAgentConnectionProvider * CTunnelAgentConnectionProvider::NewL(class ESock::CConnectionProviderFactoryBase &)
	?NewLC@CBCAProvision@@SAPAV1@PAVCCommsDatIapView@ESock@@@Z @ 69 NONAME ; class CBCAProvision * CBCAProvision::NewLC(class ESock::CCommsDatIapView *)
	?NewLC@CCredentialsConfig@@SAPAV1@PAVCCommsDatIapView@ESock@@@Z @ 70 NONAME ; class CCredentialsConfig * CCredentialsConfig::NewLC(class ESock::CCommsDatIapView *)
	?NewLC@CIPConfig@@SAPAV1@PAVCCommsDatIapView@ESock@@@Z @ 71 NONAME ; class CIPConfig * CIPConfig::NewLC(class ESock::CCommsDatIapView *)
	?NewLC@CRawIpAgentConfig@@SAPAV1@PAVCCommsDatIapView@ESock@@PBVTPacketDataConfigBase@@@Z @ 72 NONAME ; class CRawIpAgentConfig * CRawIpAgentConfig::NewLC(class ESock::CCommsDatIapView *, class TPacketDataConfigBase const *)
	?NotificationFromAgent@CAgentNotificationHandler@@UAEHW4TAgentToFlowEventType@@PAX@Z @ 73 NONAME ; int CAgentNotificationHandler::NotificationFromAgent(enum TAgentToFlowEventType, void *)
	?NotificationFromFlow@CAgentNotificationHandler@@UAEHW4TFlowToAgentEventType@@@Z @ 74 NONAME ; int CAgentNotificationHandler::NotificationFromFlow(enum TFlowToAgentEventType)
	?NotificationToAgent@CAgentNotificationHandler@@IAEHW4TFlowToAgentEventType@@PAX@Z @ 75 NONAME ; int CAgentNotificationHandler::NotificationToAgent(enum TFlowToAgentEventType, void *)
	?NotificationToAgent@CAgentSubConnectionProvider@@IAEHW4TFlowToAgentEventType@@PAX@Z @ 76 NONAME ; int CAgentSubConnectionProvider::NotificationToAgent(enum TFlowToAgentEventType, void *)
	?OpenIapViewL@CAgentMetaConnectionProvider@@IAEPAVCCommsDatIapView@ESock@@XZ @ 77 NONAME ; class ESock::CCommsDatIapView * CAgentMetaConnectionProvider::OpenIapViewL(void)
	?OpenIapViewLC@CAgentMetaConnectionProvider@@IAEPAVCCommsDatIapView@ESock@@XZ @ 78 NONAME ; class ESock::CCommsDatIapView * CAgentMetaConnectionProvider::OpenIapViewLC(void)
	?PostMessageToFlow@CAgentNotificationHandler@@IAEHABVTRuntimeCtxId@Messages@@AAVTSignatureBase@3@@Z @ 79 NONAME ; int CAgentNotificationHandler::PostMessageToFlow(class Messages::TRuntimeCtxId const &, class Messages::TSignatureBase &)
	?QueryIsDialIn@CAgentNotificationHandler@@IAEHXZ @ 80 NONAME ; int CAgentNotificationHandler::QueryIsDialIn(void)
	?ReadExcessData@CAgentNotificationHandler@@IAEHAAVTDes8@@@Z @ 81 NONAME ; int CAgentNotificationHandler::ReadExcessData(class TDes8 &)
	?ReadIfNetworks@CAgentNotificationHandler@@IAEHAAVTDes16@@@Z @ 82 NONAME ; int CAgentNotificationHandler::ReadIfNetworks(class TDes16 &)
	?ReadIfParams@CAgentNotificationHandler@@IAEHAAVTDes16@@@Z @ 83 NONAME ; int CAgentNotificationHandler::ReadIfParams(class TDes16 &)
	?ReadNifName@CAgentNotificationHandler@@IAEHAAVTDes16@@@Z @ 84 NONAME ; int CAgentNotificationHandler::ReadNifName(class TDes16 &)
	?ReadPortName@CAgentNotificationHandler@@IAEHAAVTDes16@@@Z @ 85 NONAME ; int CAgentNotificationHandler::ReadPortName(class TDes16 &)
	?ReceivedL@CAgentSubConnectionProvider@@MAEXABVTRuntimeCtxId@Messages@@ABVTNodeId@3@AAVTSignatureBase@3@@Z @ 86 NONAME ; void CAgentSubConnectionProvider::ReceivedL(class Messages::TRuntimeCtxId const &, class Messages::TNodeId const &, class Messages::TSignatureBase &)
	?RemoveExtension@CAgentNotificationHandler@@IBEXABUSTypeId@Meta@@@Z @ 87 NONAME ABSENT ; void CAgentNotificationHandler::RemoveExtension(struct Meta::STypeId const &) const
	?Self@agentCprActivities@AgentCprStates@@SAABUTNodeActivityMap@MeshMachine@@XZ @ 88 NONAME ; struct MeshMachine::TNodeActivityMap const & AgentCprStates::agentCprActivities::Self(void)
	?Self@agentMCprActivities@AgentMCprActivities@@SAABUTNodeActivityMap@MeshMachine@@XZ @ 89 NONAME ; struct MeshMachine::TNodeActivityMap const & AgentMCprActivities::agentMCprActivities::Self(void)
	?Self@agentSCprActivities@AgentSCprActivities@@SAABUTNodeActivityMap@MeshMachine@@XZ @ 90 NONAME ; struct MeshMachine::TNodeActivityMap const & AgentSCprActivities::agentSCprActivities::Self(void)
	?ServiceStarted@CAgentNotificationHandler@@UAEXXZ @ 91 NONAME ; void CAgentNotificationHandler::ServiceStarted(void)
	?SetAgentNotificationHandlerL@CAgentMetaConnectionProvider@@IAEXPAVCAgentNotificationHandler@@@Z @ 92 NONAME ; void CAgentMetaConnectionProvider::SetAgentNotificationHandlerL(class CAgentNotificationHandler *)
	?StartAvailabilityMonitoringL@CAgentMetaConnectionProvider@@MAEXABVTNodeCtxId@Messages@@@Z @ 93 NONAME ; void CAgentMetaConnectionProvider::StartAvailabilityMonitoringL(class Messages::TNodeCtxId const &)
	?TransitionTag@TNoTagOrProviderStarted@AgentSCprStates@@UAEHXZ @ 94 NONAME ; int AgentSCprStates::TNoTagOrProviderStarted::TransitionTag(void)
	?TransitionTag@TNoTagOrProviderStopped@AgentSCprStates@@UAEHXZ @ 95 NONAME ; int AgentSCprStates::TNoTagOrProviderStopped::TransitionTag(void)
	?GetDes8SettingL@CAgentMetaConnectionProvider@@UAEXABVTDesC16@@AAVTDes8@@PAVMPlatsecApiExt@ESock@@@Z @ 96 NONAME ; void CAgentMetaConnectionProvider::GetDes8SettingL(class TDesC16 const &, class TDes8 &, class ESock::MPlatsecApiExt *)
	?GetBoolSettingL@CAgentMetaConnectionProvider@@UAEXABVTDesC16@@AAHPAVMPlatsecApiExt@ESock@@@Z @ 97 NONAME ; void CAgentMetaConnectionProvider::GetBoolSettingL(class TDesC16 const &, int &, class ESock::MPlatsecApiExt *)
	?GetIntSettingL@CAgentMetaConnectionProvider@@UAEXABVTDesC16@@AAKPAVMPlatsecApiExt@ESock@@@Z @ 98 NONAME ; void CAgentMetaConnectionProvider::GetIntSettingL(class TDesC16 const &, unsigned long &, class ESock::MPlatsecApiExt *)
	?GetDes16SettingL@CAgentMetaConnectionProvider@@UAEXABVTDesC16@@AAVTDes16@@PAVMPlatsecApiExt@ESock@@@Z @ 99 NONAME ; void CAgentMetaConnectionProvider::GetDes16SettingL(class TDesC16 const &, class TDes16 &, class ESock::MPlatsecApiExt *)
	?GetLongDesSettingL@CAgentMetaConnectionProvider@@UAEXABVTDesC16@@AAPAVHBufC16@@PAVMPlatsecApiExt@ESock@@@Z @ 100 NONAME ; void CAgentMetaConnectionProvider::GetLongDesSettingL(class TDesC16 const &, class HBufC16 * &, class ESock::MPlatsecApiExt *)


