EXPORTS
	??0RGenConAgentDialogServer@@QAE@XZ @ 1 NONAME ; RGenConAgentDialogServer::RGenConAgentDialogServer(void)
	??1RGenConAgentDialogServer@@QAE@XZ @ 2 NONAME ; RGenConAgentDialogServer::~RGenConAgentDialogServer(void)
	?Authenticate@RGenConAgentDialogServer@@QAEXAAVTDes16@@0HAAVTRequestStatus@@@Z @ 3 NONAME ; void RGenConAgentDialogServer::Authenticate(class TDes16 &, class TDes16 &, int, class TRequestStatus &)
	?CancelAuthenticate@RGenConAgentDialogServer@@QAEXXZ @ 4 NONAME ; void RGenConAgentDialogServer::CancelAuthenticate(void)
	?CancelDestroyPctNotification@RGenConAgentDialogServer@@QAEXXZ @ 5 NONAME ; void RGenConAgentDialogServer::CancelDestroyPctNotification(void)
	?CancelIapConnection@RGenConAgentDialogServer@@QAEXXZ @ 6 NONAME ; void RGenConAgentDialogServer::CancelIapConnection(void)
	?CancelLogin@RGenConAgentDialogServer@@QAEXXZ @ 7 NONAME ; void RGenConAgentDialogServer::CancelLogin(void)
	?CancelModemAndLocationSelection@RGenConAgentDialogServer@@QAEXXZ @ 8 NONAME ; void RGenConAgentDialogServer::CancelModemAndLocationSelection(void)
	?CancelQoSWarning@RGenConAgentDialogServer@@QAEXXZ @ 9 NONAME ; void RGenConAgentDialogServer::CancelQoSWarning(void)
	?CancelReadPct@RGenConAgentDialogServer@@QAEXXZ @ 10 NONAME ; void RGenConAgentDialogServer::CancelReadPct(void)
	?CancelReconnect@RGenConAgentDialogServer@@QAEXXZ @ 11 NONAME ; void RGenConAgentDialogServer::CancelReconnect(void)
	?CancelWarnNewIapConnection@RGenConAgentDialogServer@@QAEXXZ @ 12 NONAME ; void RGenConAgentDialogServer::CancelWarnNewIapConnection(void)
	?Close@RGenConAgentDialogServer@@QAEXXZ @ 13 NONAME ; void RGenConAgentDialogServer::Close(void)
	?ClosePct@RGenConAgentDialogServer@@QAEXXZ @ 14 NONAME ; void RGenConAgentDialogServer::ClosePct(void)
	?Connect@RGenConAgentDialogServer@@QAEHXZ @ 15 NONAME ; int RGenConAgentDialogServer::Connect(void)
	?DestroyPctNotification@RGenConAgentDialogServer@@QAEXAAVTRequestStatus@@@Z @ 16 NONAME ; void RGenConAgentDialogServer::DestroyPctNotification(class TRequestStatus &)
	?IapConnection@RGenConAgentDialogServer@@QAEXAAKABVTConnectionPrefs@@AAVTRequestStatus@@@Z @ 17 NONAME ; void RGenConAgentDialogServer::IapConnection(unsigned long &, class TConnectionPrefs const &, class TRequestStatus &)
	?IapConnection@RGenConAgentDialogServer@@QAEXAAKABVTConnectionPrefs@@HAAVTRequestStatus@@@Z @ 18 NONAME ; void RGenConAgentDialogServer::IapConnection(unsigned long &, class TConnectionPrefs const &, int, class TRequestStatus &)
	?Login@RGenConAgentDialogServer@@QAEXAAVTDes16@@0HAAVTRequestStatus@@@Z @ 19 NONAME ; void RGenConAgentDialogServer::Login(class TDes16 &, class TDes16 &, int, class TRequestStatus &)
	?ModemAndLocationSelection@RGenConAgentDialogServer@@QAEXAAK0AAVTRequestStatus@@@Z @ 20 NONAME ; void RGenConAgentDialogServer::ModemAndLocationSelection(unsigned long &, unsigned long &, class TRequestStatus &)
	?OpenPct@RGenConAgentDialogServer@@QAEHXZ @ 21 NONAME ; int RGenConAgentDialogServer::OpenPct(void)
	?QoSWarning@RGenConAgentDialogServer@@QAEXAAHAAVTRequestStatus@@@Z @ 22 NONAME ; void RGenConAgentDialogServer::QoSWarning(int &, class TRequestStatus &)
	?ReadPct@RGenConAgentDialogServer@@QAEXAAVTDes16@@AAVTRequestStatus@@@Z @ 23 NONAME ; void RGenConAgentDialogServer::ReadPct(class TDes16 &, class TRequestStatus &)
	?Reconnect@RGenConAgentDialogServer@@QAEXAAHAAVTRequestStatus@@@Z @ 24 NONAME ; void RGenConAgentDialogServer::Reconnect(int &, class TRequestStatus &)
	?StartDialogThread@@YAHXZ @ 25 NONAME ; int StartDialogThread(void)
	?Version@RGenConAgentDialogServer@@QBE?AVTVersion@@XZ @ 26 NONAME ; class TVersion RGenConAgentDialogServer::Version(void) const
	?WarnNewIapConnection@RGenConAgentDialogServer@@QAEXABVTConnectionPrefs@@HABVTDesC16@@AAHAAVTRequestStatus@@@Z @ 27 NONAME ; void RGenConAgentDialogServer::WarnNewIapConnection(class TConnectionPrefs const &, int, class TDesC16 const &, int &, class TRequestStatus &)
	?WritePct@RGenConAgentDialogServer@@QAEHABVTDesC16@@@Z @ 28 NONAME ; int RGenConAgentDialogServer::WritePct(class TDesC16 const &)
	?RequestDialogAppearanceNotification@RGenConAgentDialogServer@@QAEXAAVTRequestStatus@@@Z @ 29 NONAME ; void RGenConAgentDialogServer::RequestDialogAppearanceNotification(class TRequestStatus &)
	?SetQoSWarnDialogResponse@RGenConAgentDialogServer@@QAEXH@Z @ 30 NONAME ; void RGenConAgentDialogServer::SetQoSWarnDialogResponse(int)
	?SetReconnectDialogResponse@RGenConAgentDialogServer@@QAEXH@Z @ 31 NONAME ; void RGenConAgentDialogServer::SetReconnectDialogResponse(int)
	?CancelDialogAppearanceNotification@RGenConAgentDialogServer@@QAEXXZ @ 32 NONAME ; void RGenConAgentDialogServer::CancelDialogAppearanceNotification(void)
	?SetTestNumber@RGenConAgentDialogServer@@QAEHH@Z @ 33 NONAME ; int RGenConAgentDialogServer::SetTestNumber(int)

