EXPORTS
	??0ADataMonitoringProvider@ESock@@IAE@XZ @ 1 NONAME ; ESock::ADataMonitoringProvider::ADataMonitoringProvider(void)
	??0AExtensionInterfaceThickBase@ESock@@IAE@ABUSTypeId@Meta@@@Z @ 2 NONAME ; ESock::AExtensionInterfaceThickBase::AExtensionInterfaceThickBase(struct Meta::STypeId const &)
	??0AFactoryObject@ESock@@IAE@AAVCCommsFactoryBase@1@@Z @ 3 NONAME ; ESock::AFactoryObject::AFactoryObject(class ESock::CCommsFactoryBase &)
	??0ASubSessionPlatsecApiExt@ESock@@QAE@I@Z @ 4 NONAME ; ESock::ASubSessionPlatsecApiExt::ASubSessionPlatsecApiExt(unsigned int)
	??0CCFMessageHookEntry@ESock@@QAE@ABVTMessageId@TCFNodeSignalBase@1@HABUTCommsId@1@1@Z @ 5 NONAME ; ESock::CCFMessageHookEntry::CCFMessageHookEntry(class ESock::TCFNodeSignalBase::TMessageId const &, int, struct ESock::TCommsId const &, struct ESock::TCommsId const &)
	??0CCFNodeActivityBase@ESock@@IAE@ABUTCFNodeActivity@1@AAVACFNodeBase@1@@Z @ 6 NONAME ; ESock::CCFNodeActivityBase::CCFNodeActivityBase(struct ESock::TCFNodeActivity const &, class ESock::ACFNodeBase &)
	??0CCFNodeParallelActivityBase@ESock@@IAE@ABUTCFNodeActivity@1@AAVACFNodeBase@1@I@Z @ 7 NONAME ; ESock::CCFNodeParallelActivityBase::CCFNodeParallelActivityBase(struct ESock::TCFNodeActivity const &, class ESock::ACFNodeBase &, unsigned int)
	??0CCFNodeRetryParallelActivity@ESock@@IAE@ABUTCFNodeActivity@1@AAVACFNodeBase@1@I@Z @ 8 NONAME ; ESock::CCFNodeRetryParallelActivity::CCFNodeRetryParallelActivity(struct ESock::TCFNodeActivity const &, class ESock::ACFNodeBase &, unsigned int)
	??0CCFNodeRetrySynchronisedParallelActivity@ESock@@IAE@ABUTCFNodeActivity@1@AAVACFNodeBase@1@I@Z @ 9 NONAME ; ESock::CCFNodeRetrySynchronisedParallelActivity::CCFNodeRetrySynchronisedParallelActivity(struct ESock::TCFNodeActivity const &, class ESock::ACFNodeBase &, unsigned int)
	??0CCFNodeSynchronisedActivity@ESock@@IAE@ABUTCFNodeActivity@1@AAVACFNodeBase@1@@Z @ 10 NONAME ; ESock::CCFNodeSynchronisedActivity::CCFNodeSynchronisedActivity(struct ESock::TCFNodeActivity const &, class ESock::ACFNodeBase &)
	??0CCFNodeSynchronisedParallelActivity@ESock@@IAE@ABUTCFNodeActivity@1@AAVACFNodeBase@1@I@Z @ 11 NONAME ; ESock::CCFNodeSynchronisedParallelActivity::CCFNodeSynchronisedParallelActivity(struct ESock::TCFNodeActivity const &, class ESock::ACFNodeBase &, unsigned int)
	??0CCommsApiExtResponder@ESock@@IAE@XZ @ 12 NONAME ; ESock::CCommsApiExtResponder::CCommsApiExtResponder(void)
	??0CCommsDataObjectBase@ESock@@IAE@PAVXCommsDataObject@1@@Z @ 13 NONAME ; ESock::CCommsDataObjectBase::CCommsDataObjectBase(class ESock::XCommsDataObject *)
	??0CCommsFactoryBase@ESock@@IAE@VTUid@@AAVCCommsFactoryContainer@1@@Z @ 14 NONAME ; ESock::CCommsFactoryBase::CCommsFactoryBase(class TUid, class ESock::CCommsFactoryContainer &)
	??0CConnDataTransfer@@IAE@XZ @ 15 NONAME ; CConnDataTransfer::CConnDataTransfer(void)
	??0CConnectionProvdBase@@IAE@I@Z @ 16 NONAME ; CConnectionProvdBase::CConnectionProvdBase(unsigned int)
	??0CConnectionProviderBase@ESock@@IAE@AAVCConnectionProviderFactoryBase@1@ABUTCFNodeActivityMap@1@@Z @ 17 NONAME ; ESock::CConnectionProviderBase::CConnectionProviderBase(class ESock::CConnectionProviderFactoryBase &, struct ESock::TCFNodeActivityMap const &)
	??0CConnectionProviderFactoryBase@ESock@@IAE@VTUid@@AAVCConnectionFactoryContainer@1@@Z @ 18 NONAME ; ESock::CConnectionProviderFactoryBase::CConnectionProviderFactoryBase(class TUid, class ESock::CConnectionFactoryContainer &)
	??0CConnectionSettings@@QAE@XZ @ 19 NONAME ; CConnectionSettings::CConnectionSettings(void)
	??0CCountLoopActivityBase@CoreActivities@@IAE@ABUTCFNodeActivity@ESock@@AAVACFNodeBase@3@@Z @ 20 NONAME ; CoreActivities::CCountLoopActivityBase::CCountLoopActivityBase(struct ESock::TCFNodeActivity const &, class ESock::ACFNodeBase &)
	??0CESockIniData@@IAE@PBVCOwnEntryList@CommsFW@@@Z @ 21 NONAME ; CESockIniData::CESockIniData(class CommsFW::COwnEntryList const *)
	??0CESockIniData@@IAE@XZ @ 22 NONAME ; CESockIniData::CESockIniData(void)
	??0CMetaConnectionProviderBase@ESock@@IAE@AAVCMetaConnectionProviderFactoryBase@1@ABVTProviderInfo@1@ABUTCFNodeActivityMap@1@@Z @ 23 NONAME ; ESock::CMetaConnectionProviderBase::CMetaConnectionProviderBase(class ESock::CMetaConnectionProviderFactoryBase &, class ESock::TProviderInfo const &, struct ESock::TCFNodeActivityMap const &)
	??0CMetaConnectionProviderFactoryBase@ESock@@IAE@VTUid@@AAVCMetaConnectionFactoryContainer@1@@Z @ 24 NONAME ; ESock::CMetaConnectionProviderFactoryBase::CMetaConnectionProviderFactoryBase(class TUid, class ESock::CMetaConnectionFactoryContainer &)
	??0CNetworkFlow@ESock@@IAE@AAVCSubConnectionFlowFactoryBase@1@ABUTCommsId@1@PAVCProtocolIntfBase@1@@Z @ 25 NONAME ; ESock::CNetworkFlow::CNetworkFlow(class ESock::CSubConnectionFlowFactoryBase &, struct ESock::TCommsId const &, class ESock::CProtocolIntfBase *)
	??0CProtocolBase@@QAE@XZ @ 26 NONAME ; CProtocolBase::CProtocolBase(void)
	??0CProtocolFamilyBase@@QAE@XZ @ 27 NONAME ; CProtocolFamilyBase::CProtocolFamilyBase(void)
	??0CProtocolFamilyFactoryBase@ESock@@IAE@VTUid@@AAVCProtocolFamilyFactoryContainer@1@@Z @ 28 NONAME ; ESock::CProtocolFamilyFactoryBase::CProtocolFamilyFactoryBase(class TUid, class ESock::CProtocolFamilyFactoryContainer &)
	??0CProtocolIntfBase@ESock@@IAE@AAVCProtocolIntfFactoryBase@1@ABUTCommsId@1@@Z @ 29 NONAME ; ESock::CProtocolIntfBase::CProtocolIntfBase(class ESock::CProtocolIntfFactoryBase &, struct ESock::TCommsId const &)
	??0CProtocolIntfFactoryBase@ESock@@IAE@VTUid@@AAVCProtocolIntfFactoryContainer@1@@Z @ 30 NONAME ; ESock::CProtocolIntfFactoryBase::CProtocolIntfFactoryBase(class TUid, class ESock::CProtocolIntfFactoryContainer &)
	??0CRefCountOwnerBase@ESock@@IAE@PBX@Z @ 31 NONAME ; ESock::CRefCountOwnerBase::CRefCountOwnerBase(void const *)
	??0CServProviderBase@@QAE@XZ @ 32 NONAME ; CServProviderBase::CServProviderBase(void)
	??0CSocketServExtBase@@IAE@XZ @ 33 NONAME ; CSocketServExtBase::CSocketServExtBase(void)
	??0CSubConExtensionParameterSet@@IAE@XZ @ 34 NONAME ; CSubConExtensionParameterSet::CSubConExtensionParameterSet(void)
	??0CSubConGenericParameterSet@@IAE@XZ @ 35 NONAME ; CSubConGenericParameterSet::CSubConGenericParameterSet(void)
	??0CSubConnectionFlowBase@ESock@@IAE@AAVCSubConnectionFlowFactoryBase@1@ABUTCommsId@1@PAVCProtocolIntfBase@1@@Z @ 36 NONAME ; ESock::CSubConnectionFlowBase::CSubConnectionFlowBase(class ESock::CSubConnectionFlowFactoryBase &, struct ESock::TCommsId const &, class ESock::CProtocolIntfBase *)
	??0CSubConnectionFlowFactoryBase@ESock@@IAE@VTUid@@AAVCSubConnectionFlowFactoryContainer@1@@Z @ 37 NONAME ; ESock::CSubConnectionFlowFactoryBase::CSubConnectionFlowFactoryBase(class TUid, class ESock::CSubConnectionFlowFactoryContainer &)
	??0CSubConnectionProviderBase@ESock@@IAE@AAVCSubConnectionProviderFactoryBase@1@ABUTCFNodeActivityMap@1@@Z @ 38 NONAME ; ESock::CSubConnectionProviderBase::CSubConnectionProviderBase(class ESock::CSubConnectionProviderFactoryBase &, struct ESock::TCFNodeActivityMap const &)
	??0CSubConnectionProviderFactoryBase@ESock@@IAE@VTUid@@AAVCSubConnectionFactoryContainer@1@@Z @ 39 NONAME ; ESock::CSubConnectionProviderFactoryBase::CSubConnectionProviderFactoryBase(class TUid, class ESock::CSubConnectionFactoryContainer &)
	??0CTierManagerBase@ESock@@IAE@AAVCTierManagerFactoryBase@1@ABUTCFNodeActivityMap@1@@Z @ 40 NONAME ; ESock::CTierManagerBase::CTierManagerBase(class ESock::CTierManagerFactoryBase &, struct ESock::TCFNodeActivityMap const &)
	??0CTierManagerFactoryBase@ESock@@IAE@VTUid@@AAVCTierManagerFactoryContainer@1@@Z @ 41 NONAME ; ESock::CTierManagerFactoryBase::CTierManagerFactoryBase(class TUid, class ESock::CTierManagerFactoryContainer &)
	??0RCommsApiExtensionBase@@IAE@XZ @ 42 NONAME ; RCommsApiExtensionBase::RCommsApiExtensionBase(void)
	??0RCommsDataMonitoringApiExt@@QAE@XZ @ 43 NONAME ; RCommsDataMonitoringApiExt::RCommsDataMonitoringApiExt(void)
	??0RCommsMobilityApiExt@@QAE@XZ @ 44 NONAME ; RCommsMobilityApiExt::RCommsMobilityApiExt(void)
	??0RConnection@@QAE@XZ @ 45 NONAME ; RConnection::RConnection(void)
	??0RConnectionServ@ConnectionServ@@QAE@XZ @ 46 NONAME ; ConnectionServ::RConnectionServ::RConnectionServ(void)
	??0RNodeInterface@ESock@@QAE@XZ @ 47 NONAME ; ESock::RNodeInterface::RNodeInterface(void)
	??0RSocket@@QAE@XZ @ 48 NONAME ; RSocket::RSocket(void)
	??0RSocketServ@@QAE@XZ @ 49 NONAME ; RSocketServ::RSocketServ(void)
	??0RSubConParameterBundle@@QAE@XZ @ 50 NONAME ; RSubConParameterBundle::RSubConParameterBundle(void)
	??0RSubConnection@@QAE@XZ @ 51 NONAME ; RSubConnection::RSubConnection(void)
	??0TCFDeregisterMessageHook@ESock@@QAE@ABUTCommsId@1@ABVTMessageId@TCFNodeSignalBase@1@@Z @ 52 NONAME ; ESock::TCFDeregisterMessageHook::TCFDeregisterMessageHook(struct ESock::TCommsId const &, class ESock::TCFNodeSignalBase::TMessageId const &)
	??0TCFRegisterMessageHook@ESock@@QAE@ABUTCommsId@1@IABVTMessageId@TCFNodeSignalBase@1@@Z @ 53 NONAME ; ESock::TCFRegisterMessageHook::TCFRegisterMessageHook(struct ESock::TCommsId const &, unsigned int, class ESock::TCFNodeSignalBase::TMessageId const &)
	??0TCFSignatureBase@ESock@@IAE@ABVTMessageId@TCFNodeSignalBase@1@ABUTCommsId@1@I@Z @ 54 NONAME ; ESock::TCFSignatureBase::TCFSignatureBase(class ESock::TCFNodeSignalBase::TMessageId const &, struct ESock::TCommsId const &, unsigned int)
	??0TCFSignatureBase@ESock@@IAE@XZ @ 55 NONAME ; ESock::TCFSignatureBase::TCFSignatureBase(void)
	??0TCommsOid@ESock@@IAE@PAX@Z @ 56 NONAME ; ESock::TCommsOid::TCommsOid(void *)
	??0TCommsOid@ESock@@QAE@AAVCCommsFactoryBase@1@@Z @ 57 NONAME ; ESock::TCommsOid::TCommsOid(class ESock::CCommsFactoryBase &)
	??0TCommsOid@ESock@@QAE@AAVCCommsFactoryContainer@1@@Z @ 58 NONAME ; ESock::TCommsOid::TCommsOid(class ESock::CCommsFactoryContainer &)
	??0TCommsOid@ESock@@QAE@AAVMCFNode@1@@Z @ 59 NONAME ; ESock::TCommsOid::TCommsOid(class ESock::MCFNode &)
	??0TConnIdList@@QAE@XZ @ 60 NONAME ; TConnIdList::TConnIdList(void)
	??0TConnPref@@QAE@H@Z @ 61 NONAME ; TConnPref::TConnPref(int)
	??0TConnPref@@QAE@XZ @ 62 NONAME ; TConnPref::TConnPref(void)
	??0TConnProviderInfoPref@ESock@@QAE@ABVTConnProviderInfo@@@Z @ 63 NONAME ; ESock::TConnProviderInfoPref::TConnProviderInfoPref(class TConnProviderInfo const &)
	??0TConnSnapPref@@QAE@K@Z @ 64 NONAME ; TConnSnapPref::TConnSnapPref(unsigned long)
	??0TConnSnapPref@@QAE@XZ @ 65 NONAME ; TConnSnapPref::TConnSnapPref(void)
	??0TDeferredSelectionPrefsExt@ESock@@QAE@VTUid@@ABVTConnPref@@@Z @ 66 NONAME ; ESock::TDeferredSelectionPrefsExt::TDeferredSelectionPrefsExt(class TUid, class TConnPref const &)
	??0TNotificationEventBuf@@QAE@XZ @ 67 NONAME ; TNotificationEventBuf::TNotificationEventBuf(void)
	??0TOverridenSelectionPrefsExt@ESock@@QAE@VTUid@@ABVTSelectionPrefs@1@@Z @ 68 NONAME ; ESock::TOverridenSelectionPrefsExt::TOverridenSelectionPrefsExt(class TUid, class ESock::TSelectionPrefs const &)
	??0TRequestWrapper@@QAE@AAVTRequestStatus@@H@Z @ 69 NONAME ; TRequestWrapper::TRequestWrapper(class TRequestStatus &, int)
	??0TRequestWrapper@@QAE@XZ @ 70 NONAME ; TRequestWrapper::TRequestWrapper(void)
	??0TSafeRequestCarrierEast@ESock@@IAE@ABVTCFSignatureBase@1@@Z @ 71 NONAME ; ESock::TSafeRequestCarrierEast::TSafeRequestCarrierEast(class ESock::TCFSignatureBase const &)
	??0TSafeResponseCarrierWest@ESock@@IAE@ABVTCFSignatureBase@1@ABUTCommsId@1@@Z @ 72 NONAME ; ESock::TSafeResponseCarrierWest::TSafeResponseCarrierWest(class ESock::TCFSignatureBase const &, struct ESock::TCommsId const &)
	??0TSelectionPrefs@ESock@@QAE@ABVTConnPref@@@Z @ 73 NONAME ; ESock::TSelectionPrefs::TSelectionPrefs(class TConnPref const &)
	??0TSelectionPrefs@ESock@@QAE@W4TSelectionScope@01@@Z @ 74 NONAME ; ESock::TSelectionPrefs::TSelectionPrefs(enum ESock::TSelectionPrefs::TSelectionScope)
	??0TSelectionPrefs@ESock@@QAE@XZ @ 75 NONAME ; ESock::TSelectionPrefs::TSelectionPrefs(void)
	??0TSessionPref@@QAE@XZ @ 76 NONAME ; TSessionPref::TSessionPref(void)
	??0TSockAddr@@QAE@I@Z @ 77 NONAME ; TSockAddr::TSockAddr(unsigned int)
	??0TSockAddr@@QAE@XZ @ 78 NONAME ; TSockAddr::TSockAddr(void)
	??0TSubConnectionClosedEvent@@QAE@XZ @ 79 NONAME ; TSubConnectionClosedEvent::TSubConnectionClosedEvent(void)
	??0TSubConnectionEvent@@IAE@W4TSubConnectionEventType@@I@Z @ 80 NONAME ; TSubConnectionEvent::TSubConnectionEvent(enum TSubConnectionEventType, unsigned int)
	??0TSubConnectionOpenedEvent@@QAE@XZ @ 81 NONAME ; TSubConnectionOpenedEvent::TSubConnectionOpenedEvent(void)
	??0TSubConnectionQoSChangedEvent@@QAE@XZ @ 82 NONAME ; TSubConnectionQoSChangedEvent::TSubConnectionQoSChangedEvent(void)
	??1ABindingActivity@CoreActivities@@MAE@XZ @ 83 NONAME ; CoreActivities::ABindingActivity::~ABindingActivity(void)
	??1ACountLoopActivity@CoreActivities@@MAE@XZ @ 84 NONAME ; CoreActivities::ACountLoopActivity::~ACountLoopActivity(void)
	??1ADataMonitoringProvider@ESock@@UAE@XZ @ 85 NONAME ; ESock::ADataMonitoringProvider::~ADataMonitoringProvider(void)
	??1AExtensionInterfaceThickBase@ESock@@MAE@XZ @ 86 NONAME ; ESock::AExtensionInterfaceThickBase::~AExtensionInterfaceThickBase(void)
	??1AFactoryObject@ESock@@MAE@XZ @ 87 NONAME ; ESock::AFactoryObject::~AFactoryObject(void)
	??1ALegacySubConnectionActiveApiExt@ESock@@MAE@XZ @ 88 NONAME ; ESock::ALegacySubConnectionActiveApiExt::~ALegacySubConnectionActiveApiExt(void)
	??1CAccessPointConfig@ESock@@UAE@XZ @ 89 NONAME ; ESock::CAccessPointConfig::~CAccessPointConfig(void)
	??1CActiveCommsMobilityApiExt@@UAE@XZ @ 90 NONAME ; CActiveCommsMobilityApiExt::~CActiveCommsMobilityApiExt(void)
	??1CCFNodeActivityBase@ESock@@MAE@XZ @ 91 NONAME ; ESock::CCFNodeActivityBase::~CCFNodeActivityBase(void)
	??1CCommsApiExtResponder@ESock@@MAE@XZ @ 92 NONAME ; ESock::CCommsApiExtResponder::~CCommsApiExtResponder(void)
	??1CCommsDatIapView@ESock@@UAE@XZ @ 93 NONAME ; ESock::CCommsDatIapView::~CCommsDatIapView(void)
	??1CCommsDataObjectBase@ESock@@UAE@XZ @ 94 NONAME ; ESock::CCommsDataObjectBase::~CCommsDataObjectBase(void)
	??1CCommsFactoryBase@ESock@@MAE@XZ @ 95 NONAME ; ESock::CCommsFactoryBase::~CCommsFactoryBase(void)
	??1CConfigAccessPointConfig@ESock@@UAE@XZ @ 96 NONAME ; ESock::CConfigAccessPointConfig::~CConfigAccessPointConfig(void)
	??1CConnectionProvdBase@@UAE@XZ @ 97 NONAME ; CConnectionProvdBase::~CConnectionProvdBase(void)
	??1CConnectionProviderBase@ESock@@MAE@XZ @ 98 NONAME ; ESock::CConnectionProviderBase::~CConnectionProviderBase(void)
	??1CConnectionProviderFactoryBase@ESock@@UAE@XZ @ 99 NONAME ; ESock::CConnectionProviderFactoryBase::~CConnectionProviderFactoryBase(void)
	??1CCountLoopActivityBase@CoreActivities@@UAE@XZ @ 100 NONAME ; CoreActivities::CCountLoopActivityBase::~CCountLoopActivityBase(void)
	??1CESockIniData@@UAE@XZ @ 101 NONAME ; CESockIniData::~CESockIniData(void)
	??1CExtItfMsgPluginInfo@ESock@@UAE@XZ @ 102 NONAME ; ESock::CExtItfMsgPluginInfo::~CExtItfMsgPluginInfo(void)
	??1CMetaConnectionProviderBase@ESock@@MAE@XZ @ 103 NONAME ; ESock::CMetaConnectionProviderBase::~CMetaConnectionProviderBase(void)
	??1CMetaConnectionProviderFactoryBase@ESock@@UAE@XZ @ 104 NONAME ; ESock::CMetaConnectionProviderFactoryBase::~CMetaConnectionProviderFactoryBase(void)
	??1CNetworkFlow@ESock@@UAE@XZ @ 105 NONAME ; ESock::CNetworkFlow::~CNetworkFlow(void)
	??1CParameterBundleBase@@UAE@XZ @ 106 NONAME ; CParameterBundleBase::~CParameterBundleBase(void)
	??1CParameterSetContainer@@UAE@XZ @ 107 NONAME ; CParameterSetContainer::~CParameterSetContainer(void)
	??1CProtocolBase@@UAE@XZ @ 108 NONAME ; CProtocolBase::~CProtocolBase(void)
	??1CProtocolConfigLoader@ESock@@UAE@XZ @ 109 NONAME ; ESock::CProtocolConfigLoader::~CProtocolConfigLoader(void)
	??1CProtocolFamilyBase@@UAE@XZ @ 110 NONAME ; CProtocolFamilyBase::~CProtocolFamilyBase(void)
	??1CProtocolIntfBase@ESock@@MAE@XZ @ 111 NONAME ; ESock::CProtocolIntfBase::~CProtocolIntfBase(void)
	??1CRefCountOwnerBase@ESock@@MAE@XZ @ 112 NONAME ; ESock::CRefCountOwnerBase::~CRefCountOwnerBase(void)
	??1CServProviderBase@@UAE@XZ @ 113 NONAME ; CServProviderBase::~CServProviderBase(void)
	??1CSocketServExtBase@@UAE@XZ @ 114 NONAME ; CSocketServExtBase::~CSocketServExtBase(void)
	??1CStartActivity@PRActivities@@UAE@XZ @ 115 NONAME ; PRActivities::CStartActivity::~CStartActivity(void)
	??1CSubConExtensionParameterSet@@UAE@XZ @ 116 NONAME ; CSubConExtensionParameterSet::~CSubConExtensionParameterSet(void)
	??1CSubConGenericParameterSet@@UAE@XZ @ 117 NONAME ; CSubConGenericParameterSet::~CSubConGenericParameterSet(void)
	??1CSubConParameterBundle@@UAE@XZ @ 118 NONAME ; CSubConParameterBundle::~CSubConParameterBundle(void)
	??1CSubConParameterFamily@@UAE@XZ @ 119 NONAME ; CSubConParameterFamily::~CSubConParameterFamily(void)
	??1CSubConnectionFlowBase@ESock@@MAE@XZ @ 120 NONAME ; ESock::CSubConnectionFlowBase::~CSubConnectionFlowBase(void)
	??1CSubConnectionFlowFactoryBase@ESock@@UAE@XZ @ 121 NONAME ; ESock::CSubConnectionFlowFactoryBase::~CSubConnectionFlowFactoryBase(void)
	??1CSubConnectionProviderBase@ESock@@MAE@XZ @ 122 NONAME ; ESock::CSubConnectionProviderBase::~CSubConnectionProviderBase(void)
	??1CSubConnectionProviderFactoryBase@ESock@@UAE@XZ @ 123 NONAME ; ESock::CSubConnectionProviderFactoryBase::~CSubConnectionProviderFactoryBase(void)
	??1CTierManagerBase@ESock@@MAE@XZ @ 124 NONAME ; ESock::CTierManagerBase::~CTierManagerBase(void)
	??1CTierManagerFactoryBase@ESock@@UAE@XZ @ 125 NONAME ; ESock::CTierManagerFactoryBase::~CTierManagerFactoryBase(void)
	??1RConnection@@UAE@XZ @ 126 NONAME ; RConnection::~RConnection(void)
	??1TCommsOid@ESock@@QAE@XZ @ 127 NONAME ; ESock::TCommsOid::~TCommsOid(void)
	??1TNotificationEventBuf@@QAE@XZ @ 128 NONAME ; TNotificationEventBuf::~TNotificationEventBuf(void)
	??1XParameterSet@@UAE@XZ @ 129 NONAME ; XParameterSet::~XParameterSet(void)
	??ATClientIterBase@ESock@@QAEPAVRNodeInterface@1@H@Z @ 130 NONAME ; class ESock::RNodeInterface * ESock::TClientIterBase::operator[](int)
	??ATConnIdList@@QAEAAHH@Z @ 131 NONAME ; int & TConnIdList::operator[](int)
	?Abort@CCFNodeActivityBase@ESock@@QAEXAAUTCFNodeContextBase@2@H@Z @ 132 NONAME ; void ESock::CCFNodeActivityBase::Abort(struct ESock::TCFNodeContextBase &, int)
	?AbortActivitiesOriginatedBy@ACFNodeBase@ESock@@QAEXAAUTCFNodeContextBase@2@ABUTCommsId@2@H@Z @ 133 NONAME ; void ESock::ACFNodeBase::AbortActivitiesOriginatedBy(struct ESock::TCFNodeContextBase &, struct ESock::TCommsId const &, int)
	?Accept@AAcceptErrorState@CoreStates@@KAHAAUTCFNodeContextBase@ESock@@H@Z @ 134 NONAME ; int CoreStates::AAcceptErrorState::Accept(struct ESock::TCFNodeContextBase &, int)
	?Accept@AHandleErrorState@CoreStates@@KAHAAUTCFNodeContextBase@ESock@@H@Z @ 135 NONAME ; int CoreStates::AHandleErrorState::Accept(struct ESock::TCFNodeContextBase &, int)
	?Accept@ASetErrorState@CoreStates@@KAHAAUTCFNodeContextBase@ESock@@H@Z @ 136 NONAME ; int CoreStates::ASetErrorState::Accept(struct ESock::TCFNodeContextBase &, int)
	?Accept@RSocket@@QAEXAAV1@AAVTDes8@@AAVTRequestStatus@@@Z @ 137 NONAME ; void RSocket::Accept(class RSocket &, class TDes8 &, class TRequestStatus &)
	?Accept@RSocket@@QAEXAAV1@AAVTRequestStatus@@@Z @ 138 NONAME ; void RSocket::Accept(class RSocket &, class TRequestStatus &)
	?Accept@TAlwaysAccept@CoreStates@@UAEHXZ @ 139 NONAME ; int CoreStates::TAlwaysAccept::Accept(void)
	?Accept@TAwaitingApplyResponse@CoreNetStates@@UAEHXZ @ 140 NONAME ; int CoreNetStates::TAwaitingApplyResponse::Accept(void)
	?Accept@TAwaitingBindTo@CoreNetStates@@UAEHXZ @ 141 NONAME ; int CoreNetStates::TAwaitingBindTo::Accept(void)
	?Accept@TAwaitingBindToComplete@CCommsBinderActivity@PRActivities@@UAEHXZ @ 142 NONAME ; int PRActivities::CCommsBinderActivity::TAwaitingBindToComplete::Accept(void)
	?Accept@TAwaitingBindToComplete@CoreNetStates@@UAEHXZ @ 143 NONAME ; int CoreNetStates::TAwaitingBindToComplete::Accept(void)
	?Accept@TAwaitingBindToRequest@CoreNetStates@@UAEHXZ @ 144 NONAME ; int CoreNetStates::TAwaitingBindToRequest::Accept(void)
	?Accept@TAwaitingBindToRequestComplete@CoreNetStates@@UAEHXZ @ 145 NONAME ; int CoreNetStates::TAwaitingBindToRequestComplete::Accept(void)
	?Accept@TAwaitingBinderRequest@CoreNetStates@@UAEHXZ @ 146 NONAME ; int CoreNetStates::TAwaitingBinderRequest::Accept(void)
	?Accept@TAwaitingBinderResponse@CoreNetStates@@UAEHXZ @ 147 NONAME ; int CoreNetStates::TAwaitingBinderResponse::Accept(void)
	?Accept@TAwaitingBuildLowerLayer@CoreNetStates@@UAEHXZ @ 148 NONAME ; int CoreNetStates::TAwaitingBuildLowerLayer::Accept(void)
	?Accept@TAwaitingCancel@CoreStates@@UAEHXZ @ 149 NONAME ; int CoreStates::TAwaitingCancel::Accept(void)
	?Accept@TAwaitingClientLeave@CoreStates@@UAEHXZ @ 150 NONAME ; int CoreStates::TAwaitingClientLeave::Accept(void)
	?Accept@TAwaitingControlClientJoin@CoreNetStates@@UAEHXZ @ 151 NONAME ; int CoreNetStates::TAwaitingControlClientJoin::Accept(void)
	?Accept@TAwaitingDataClientActive@CoreNetStates@@UAEHXZ @ 152 NONAME ; int CoreNetStates::TAwaitingDataClientActive::Accept(void)
	?Accept@TAwaitingDataClientGoneDown@CoreNetStates@@UAEHXZ @ 153 NONAME ; int CoreNetStates::TAwaitingDataClientGoneDown::Accept(void)
	?Accept@TAwaitingDataClientIdle@CoreNetStates@@UAEHXZ @ 154 NONAME ; int CoreNetStates::TAwaitingDataClientIdle::Accept(void)
	?Accept@TAwaitingDataClientJoin@CoreNetStates@@UAEHXZ @ 155 NONAME ; int CoreNetStates::TAwaitingDataClientJoin::Accept(void)
	?Accept@TAwaitingDataClientJoinRequest@CoreNetStates@@UAEHXZ @ 156 NONAME ; int CoreNetStates::TAwaitingDataClientJoinRequest::Accept(void)
	?Accept@TAwaitingDataClientRejoin@CoreNetStates@@UAEHXZ @ 157 NONAME ; int CoreNetStates::TAwaitingDataClientRejoin::Accept(void)
	?Accept@TAwaitingDataClientRejoinOrApplyOrCancel@CoreNetStates@@UAEHXZ @ 158 NONAME ; int CoreNetStates::TAwaitingDataClientRejoinOrApplyOrCancel::Accept(void)
	?Accept@TAwaitingDataClientStart@CoreNetStates@@UAEHXZ @ 159 NONAME ; int CoreNetStates::TAwaitingDataClientStart::Accept(void)
	?Accept@TAwaitingDataClientStarted@CoreNetStates@@UAEHXZ @ 160 NONAME ; int CoreNetStates::TAwaitingDataClientStarted::Accept(void)
	?Accept@TAwaitingDataClientStop@CoreNetStates@@UAEHXZ @ 161 NONAME ; int CoreNetStates::TAwaitingDataClientStop::Accept(void)
	?Accept@TAwaitingDataClientStopped@CoreNetStates@@UAEHXZ @ 162 NONAME ; int CoreNetStates::TAwaitingDataClientStopped::Accept(void)
	?Accept@TAwaitingDataClientsStopped@CoreNetStates@@UAEHXZ @ 163 NONAME ; int CoreNetStates::TAwaitingDataClientsStopped::Accept(void)
	?Accept@TAwaitingDestroy@CoreStates@@UAEHXZ @ 164 NONAME ; int CoreStates::TAwaitingDestroy::Accept(void)
	?Accept@TAwaitingError@CErrorActivity@CoreActivities@@UAEHXZ @ 165 NONAME ; int CoreActivities::CErrorActivity::TAwaitingError::Accept(void)
	?Accept@TAwaitingErrorRecoveryResponseOrError@CoreStates@@UAEHXZ @ 166 NONAME ; int CoreStates::TAwaitingErrorRecoveryResponseOrError::Accept(void)
	?Accept@TAwaitingGoneDown@CoreNetStates@@UAEHXZ @ 167 NONAME ; int CoreNetStates::TAwaitingGoneDown::Accept(void)
	?Accept@TAwaitingJoinComplete@CoreStates@@UAEHXZ @ 168 NONAME ; int CoreStates::TAwaitingJoinComplete::Accept(void)
	?Accept@TAwaitingLeaveComplete@CoreStates@@UAEHXZ @ 169 NONAME ABSENT; int CoreStates::TAwaitingLeaveComplete::Accept(void)
	?Accept@TAwaitingLowerLayerComplete@CoreNetStates@@UAEHXZ @ 170 NONAME ; int CoreNetStates::TAwaitingLowerLayerComplete::Accept(void)
	?Accept@TAwaitingNULL@CoreStates@@UAEHXZ @ 171 NONAME ; int CoreStates::TAwaitingNULL::Accept(void)
	?Accept@TAwaitingNoBearer@CoreNetStates@@UAEHXZ @ 172 NONAME ; int CoreNetStates::TAwaitingNoBearer::Accept(void)
	?Accept@TAwaitingParamResponse@CoreNetStates@@UAEHXZ @ 173 NONAME ; int CoreNetStates::TAwaitingParamResponse::Accept(void)
	?Accept@TAwaitingProviderStatusChange@CoreNetStates@@UAEHXZ @ 174 NONAME ; int CoreNetStates::TAwaitingProviderStatusChange::Accept(void)
	?Accept@TAwaitingProvision@CoreNetStates@@UAEHXZ @ 175 NONAME ; int CoreNetStates::TAwaitingProvision::Accept(void)
	?Accept@TAwaitingReBindLayer@CoreNetStates@@UAEHXZ @ 176 NONAME ; int CoreNetStates::TAwaitingReBindLayer::Accept(void)
	?Accept@TAwaitingReJoinDataClientComplete@CoreNetStates@@UAEHXZ @ 177 NONAME ; int CoreNetStates::TAwaitingReJoinDataClientComplete::Accept(void)
	?Accept@TAwaitingStart@CoreNetStates@@UAEHXZ @ 178 NONAME ; int CoreNetStates::TAwaitingStart::Accept(void)
	?Accept@TAwaitingStarted@CoreNetStates@@UAEHXZ @ 179 NONAME ; int CoreNetStates::TAwaitingStarted::Accept(void)
	?Accept@TAwaitingStateChange@CoreStates@@UAEHXZ @ 180 NONAME ; int CoreStates::TAwaitingStateChange::Accept(void)
	?Accept@TAwaitingStopped@CoreNetStates@@UAEHXZ @ 181 NONAME ; int CoreNetStates::TAwaitingStopped::Accept(void)
	?Accept@TAwaitingSubConEvent@CoreNetStates@@UAEHXZ @ 182 NONAME ; int CoreNetStates::TAwaitingSubConEvent::Accept(void)
	?Accept@TNeverAccept@CoreStates@@UAEHXZ @ 183 NONAME ; int CoreStates::TNeverAccept::Accept(void)
	?AccessPointConfig@CCommsProviderBase@ESock@@QBEABVCAccessPointConfig@2@XZ @ 184 NONAME ; class ESock::CAccessPointConfig const & ESock::CCommsProviderBase::AccessPointConfig(void) const
	?AccessPointNotification@RConnectionServ@ConnectionServ@@QAEXABVCConnectionServParameterBundle@2@AAVMAccessPointNotificationObserver@2@@Z @ 185 NONAME ; void ConnectionServ::RConnectionServ::AccessPointNotification(class ConnectionServ::CConnectionServParameterBundle const &, class ConnectionServ::MAccessPointNotificationObserver &)
	?AccessPointStatusQuery@RConnectionServ@ConnectionServ@@QAEXABVCConnectionServParameterBundle@2@AAV32@AAVTRequestStatus@@@Z @ 186 NONAME ; void ConnectionServ::RConnectionServ::AccessPointStatusQuery(class ConnectionServ::CConnectionServParameterBundle const &, class ConnectionServ::CConnectionServParameterBundle &, class TRequestStatus &)
	?ActivityId@CCFNodeActivityBase@ESock@@UBEIXZ @ 187 NONAME ; unsigned int ESock::CCFNodeActivityBase::ActivityId(void) const
	?ActivityId@CCFNodeParallelActivityBase@ESock@@UBEIXZ @ 188 NONAME ; unsigned int ESock::CCFNodeParallelActivityBase::ActivityId(void) const
	?ActivityId@TCFNodeContextBase@ESock@@QBEIXZ @ 189 NONAME ; unsigned int ESock::TCFNodeContextBase::ActivityId(void) const
	?Add@RNetDatabase@@QAEHABVTDesC8@@@Z @ 190 NONAME ; int RNetDatabase::Add(class TDesC8 const &)
	?Add@RNetDatabase@@QAEXABVTDesC8@@AAVTRequestStatus@@@Z @ 191 NONAME ; void RNetDatabase::Add(class TDesC8 const &, class TRequestStatus &)
	?Add@RSubConnection@@QAEXAAVRSocket@@AAVTRequestStatus@@@Z @ 192 NONAME ; void RSubConnection::Add(class RSocket &, class TRequestStatus &)
	?AddClientL@ACFNodeBase@ESock@@QAEPAVRNodeInterface@2@ABUTCommsId@2@AAUTCFNodeContextBase@2@HPAX@Z @ 193 NONAME ; class ESock::RNodeInterface * ESock::ACFNodeBase::AddClientL(struct ESock::TCommsId const &, struct ESock::TCFNodeContextBase &, int, void *)
	?AddClientL@ACFNodeBase@ESock@@QAEPAVRNodeInterface@2@ABUTCommsId@2@HPAX@Z @ 194 NONAME ; class ESock::RNodeInterface * ESock::ACFNodeBase::AddClientL(struct ESock::TCommsId const &, int, void *)
	?AddExtensionSetL@CSubConParameterFamily@@QAEXAAVCSubConExtensionParameterSet@@W4TParameterSetType@1@@Z @ 195 NONAME ; void CSubConParameterFamily::AddExtensionSetL(class CSubConExtensionParameterSet &, enum CSubConParameterFamily::TParameterSetType)
	?AddFamilyL@CSubConParameterBundle@@QAEXPAVCSubConParameterFamily@@@Z @ 196 NONAME ; void CSubConParameterBundle::AddFamilyL(class CSubConParameterFamily *)
	?AddFamilyL@RSubConParameterBundle@@QAEXPAVCSubConParameterFamily@@@Z @ 197 NONAME ; void RSubConParameterBundle::AddFamilyL(class CSubConParameterFamily *)
	?AddManagedObjectL@CCommsFactoryBase@ESock@@IAEAAUTFactoryObjectEntry@2@AAVAFactoryObject@2@@Z @ 198 NONAME ; struct ESock::TFactoryObjectEntry & ESock::CCommsFactoryBase::AddManagedObjectL(class ESock::AFactoryObject &)
	?AddMatchConditionL@CConnectionServParameterBundle@ConnectionServ@@QAEXABUTAccessPointInfo@@@Z @ 199 NONAME ABSENT ; void ConnectionServ::CConnectionServParameterBundle::AddMatchConditionL(struct TAccessPointInfo const &)
	?AddMatchConditionL@CConnectionServParameterBundle@ConnectionServ@@QAEXABVTAccessPointStatusFilter@2@@Z @ 200 NONAME ; void ConnectionServ::CConnectionServParameterBundle::AddMatchConditionL(class ConnectionServ::TAccessPointStatusFilter const &)
	?AddParamSetContainerL@CParameterBundleBase@@QAEXAAVCParameterSetContainer@@@Z @ 201 NONAME ; void CParameterBundleBase::AddParamSetContainerL(class CParameterSetContainer &)
	?AddParameterSetL@CParameterSetContainer@@QAEXPAVXParameterSet@@@Z @ 202 NONAME ; void CParameterSetContainer::AddParameterSetL(class XParameterSet *)
	?AddParameterSetToReturnL@CConnectionServParameterBundle@ConnectionServ@@QAEXABUSTypeId@Meta@@@Z @ 203 NONAME ; void ConnectionServ::CConnectionServParameterBundle::AddParameterSetToReturnL(struct Meta::STypeId const &)
	?AllInterfaceNotification@RConnection@@QAEXAAVTDes8@@AAVTRequestStatus@@@Z @ 204 NONAME ; void RConnection::AllInterfaceNotification(class TDes8 &, class TRequestStatus &)
	?AllSubConnectionNotification@RConnection@@QAEXAAV?$TBuf8@$0CAA@@@AAVTRequestStatus@@@Z @ 205 NONAME ; void RConnection::AllSubConnectionNotification(class TBuf8<512> &, class TRequestStatus &)
	?Append@TConnIdList@@QAEXH@Z @ 206 NONAME ; void TConnIdList::Append(int)
	?AppendExtensionL@CAccessPointConfig@ESock@@QBEXPBUSMetaData@Meta@@@Z @ 207 NONAME ; void ESock::CAccessPointConfig::AppendExtensionL(struct Meta::SMetaData const *) const
	?AppendLayerL@CConfigAccessPointConfig@ESock@@QAEXABVTConfigAccessPointLayer@2@@Z @ 208 NONAME ; void ESock::CConfigAccessPointConfig::AppendLayerL(class ESock::TConfigAccessPointLayer const &)
	?AppendSCprL@CConfigAccessPointConfig@ESock@@QAEXABVTUid@@@Z @ 209 NONAME ; void ESock::CConfigAccessPointConfig::AppendSCprL(class TUid const &)
	?AssignPeer@ACFNodeBase@ESock@@QBEHAAVTCFSignatureBase@2@@Z @ 210 NONAME ; int ESock::ACFNodeBase::AssignPeer(class ESock::TCFSignatureBase &) const
	?Attach@RConnection@@QAEHABVTDesC8@@W4TConnAttachType@1@@Z @ 211 NONAME ; int RConnection::Attach(class TDesC8 const &, enum RConnection::TConnAttachType)
	?Bind@RSocket@@QAEHAAVTSockAddr@@@Z @ 212 NONAME ; int RSocket::Bind(class TSockAddr &)
	?BindL@CProtocolBase@@UAEXPAV1@I@Z @ 213 NONAME ; void CProtocolBase::BindL(class CProtocolBase *, unsigned int)
	?BindL@MFlowBinderControl@ESock@@UAEPAVMLowerDataSender@2@ABVTDesC8@@PAVMUpperDataReceiver@2@PAVMUpperControl@2@@Z @ 214 NONAME ; class ESock::MLowerDataSender * ESock::MFlowBinderControl::BindL(class TDesC8 const &, class ESock::MUpperDataReceiver *, class ESock::MUpperControl *)
	?BindL@MFlowBinderControl@ESock@@UAEPAVMSessionData@2@AAVMSessionDataNotify@2@@Z @ 215 NONAME ; class ESock::MSessionData * ESock::MFlowBinderControl::BindL(class ESock::MSessionDataNotify &)
	?BindToL@CProtocolBase@@UAEXPAV1@@Z @ 216 NONAME ; void CProtocolBase::BindToL(class CProtocolBase *)
	?Binder@CCommsBinderActivity@PRActivities@@QBEPAVRNodeInterface@ESock@@XZ @ 217 NONAME ; class ESock::RNodeInterface * PRActivities::CCommsBinderActivity::Binder(void) const
	?BlockFlow@MLowerControl@ESock@@UAEHW4TBlockOption@12@@Z @ 218 NONAME ; int ESock::MLowerControl::BlockFlow(enum ESock::MLowerControl::TBlockOption)
	?BuildTierThreadMappingL@TierManagerUtils@ESock@@SAPAVRTierThreadMap@2@AAVCMDBSession@CommsDat@@@Z @ 219 NONAME ; class ESock::RTierThreadMap * ESock::TierManagerUtils::BuildTierThreadMappingL(class CommsDat::CMDBSession &)
	?CanClose@CProtocolBase@@IAEXXZ @ 220 NONAME ; void CProtocolBase::CanClose(void)
	?Cancel@CCFNodeActivityBase@ESock@@UAEXAAUTCFNodeContextBase@2@@Z @ 221 NONAME ; void ESock::CCFNodeActivityBase::Cancel(struct ESock::TCFNodeContextBase &)
	?Cancel@RHostResolver@@QAEXXZ @ 222 NONAME ; void RHostResolver::Cancel(void)
	?Cancel@RNetDatabase@@QAEXXZ @ 223 NONAME ; void RNetDatabase::Cancel(void)
	?Cancel@RServiceResolver@@QAEXXZ @ 224 NONAME ; void RServiceResolver::Cancel(void)
	?CancelAccept@RSocket@@QAEXXZ @ 225 NONAME ; void RSocket::CancelAccept(void)
	?CancelAccessPointNotification@RConnectionServ@ConnectionServ@@QAEXXZ @ 226 NONAME ; void ConnectionServ::RConnectionServ::CancelAccessPointNotification(void)
	?CancelAccessPointStatusQuery@RConnectionServ@ConnectionServ@@QAEXXZ @ 227 NONAME ; void ConnectionServ::RConnectionServ::CancelAccessPointStatusQuery(void)
	?CancelAll@RSocket@@QAEXXZ @ 228 NONAME ; void RSocket::CancelAll(void)
	?CancelAllInterfaceNotification@RConnection@@QAEXXZ @ 229 NONAME ; void RConnection::CancelAllInterfaceNotification(void)
	?CancelAllSubConnectionNotification@RConnection@@QAEXXZ @ 230 NONAME ; void RConnection::CancelAllSubConnectionNotification(void)
	?CancelClientExtItfRequests@ADataMonitoringProvider@ESock@@UAEXI@Z @ 231 NONAME ; void ESock::ADataMonitoringProvider::CancelClientExtItfRequests(unsigned int)
	?CancelConnect@RSocket@@QAEXXZ @ 232 NONAME ; void RSocket::CancelConnect(void)
	?CancelDataReceivedNotificationRequest@ADataMonitoringProvider@ESock@@UAEXI@Z @ 233 NONAME ; void ESock::ADataMonitoringProvider::CancelDataReceivedNotificationRequest(unsigned int)
	?CancelDataReceivedNotificationRequest@RCommsDataMonitoringApiExt@@QAEXXZ @ 234 NONAME ; void RCommsDataMonitoringApiExt::CancelDataReceivedNotificationRequest(void)
	?CancelDataSentNotificationRequest@ADataMonitoringProvider@ESock@@UAEXI@Z @ 235 NONAME ; void ESock::ADataMonitoringProvider::CancelDataSentNotificationRequest(unsigned int)
	?CancelDataSentNotificationRequest@RCommsDataMonitoringApiExt@@QAEXXZ @ 236 NONAME ; void RCommsDataMonitoringApiExt::CancelDataSentNotificationRequest(void)
	?CancelDataTransferredRequest@ADataMonitoringProvider@ESock@@UAEXI@Z @ 237 NONAME ; void ESock::ADataMonitoringProvider::CancelDataTransferredRequest(unsigned int)
	?CancelDataTransferredRequest@RCommsDataMonitoringApiExt@@QAEXXZ @ 238 NONAME ; void RCommsDataMonitoringApiExt::CancelDataTransferredRequest(void)
	?CancelEventNotification@RSubConnection@@QAEXXZ @ 239 NONAME ; void RSubConnection::CancelEventNotification(void)
	?CancelExtensionInterface@AExtensionInterfaceThickBase@ESock@@UAEXI@Z @ 240 NONAME ; void ESock::AExtensionInterfaceThickBase::CancelExtensionInterface(unsigned int)
	?CancelExtensionInterface@ALegacySubConnectionActiveApiExt@ESock@@UAEXI@Z @ 241 NONAME ; void ESock::ALegacySubConnectionActiveApiExt::CancelExtensionInterface(unsigned int)
	?CancelIoctl@RConnection@@QAEXXZ @ 242 NONAME ; void RConnection::CancelIoctl(void)
	?CancelIoctl@RSocket@@QAEXXZ @ 243 NONAME ; void RSocket::CancelIoctl(void)
	?CancelMobilityNotification@RCommsMobilityApiExt@@QAEXXZ @ 244 NONAME ; void RCommsMobilityApiExt::CancelMobilityNotification(void)
	?CancelProgressNotification@RConnection@@QAEXI@Z @ 245 NONAME ; void RConnection::CancelProgressNotification(unsigned int)
	?CancelProgressNotification@RConnection@@QAEXXZ @ 246 NONAME ; void RConnection::CancelProgressNotification(void)
	?CancelRead@RSocket@@QAEXXZ @ 247 NONAME ; void RSocket::CancelRead(void)
	?CancelRecv@RSocket@@QAEXXZ @ 248 NONAME ; void RSocket::CancelRecv(void)
	?CancelRequest@CDataMonitoringResponder@ESock@@SAXAAPAV12@@Z @ 249 NONAME ; void ESock::CDataMonitoringResponder::CancelRequest(class ESock::CDataMonitoringResponder * &)
	?CancelSend@RSocket@@QAEXXZ @ 250 NONAME ; void RSocket::CancelSend(void)
	?CancelServiceChangeNotification@RConnection@@QAEXXZ @ 251 NONAME ; void RConnection::CancelServiceChangeNotification(void)
	?CancelWaitForIncoming@RConnection@@QAEXXZ @ 252 NONAME ; void RConnection::CancelWaitForIncoming(void)
	?CancelWrite@RSocket@@QAEXXZ @ 253 NONAME ; void RSocket::CancelWrite(void)
	?CheckPolicy@AIPCClientPlatsecInfo@ESock@@QBEHIABVTSecurityPolicy@@@Z @ 254 NONAME ; int ESock::AIPCClientPlatsecInfo::CheckPolicy(unsigned int, class TSecurityPolicy const &) const
	?CheckPolicy@ASubSessionPlatsecApiExt@ESock@@UBEHABVTSecurityPolicy@@@Z @ 255 NONAME ; int ESock::ASubSessionPlatsecApiExt::CheckPolicy(class TSecurityPolicy const &) const
	?CheckPolicy@TCFSigRMessage2PlatsecExt@ESock@@MBEHABVTSecurityPolicy@@@Z @ 256 NONAME ; int ESock::TCFSigRMessage2PlatsecExt::CheckPolicy(class TSecurityPolicy const &) const
	?ClearAllParameters@CSubConParameterBundle@@QAEXW4TParameterSetType@CSubConParameterFamily@@@Z @ 257 NONAME ; void CSubConParameterBundle::ClearAllParameters(enum CSubConParameterFamily::TParameterSetType)
	?ClearAllParameters@CSubConParameterFamily@@QAEXW4TParameterSetType@1@@Z @ 258 NONAME ; void CSubConParameterFamily::ClearAllParameters(enum CSubConParameterFamily::TParameterSetType)
	?ClearAllParameters@RSubConParameterBundle@@QAEXW4TParameterSetType@CSubConParameterFamily@@@Z @ 259 NONAME ; void RSubConParameterBundle::ClearAllParameters(enum CSubConParameterFamily::TParameterSetType)
	?ClearExclusiveMode@RSocketServ@@QAEXXZ @ 260 NONAME ; void RSocketServ::ClearExclusiveMode(void)
	?ClientSid@AIPCClientInfo@ESock@@QBEHIAAVTSecureId@@@Z @ 261 NONAME ; int ESock::AIPCClientInfo::ClientSid(unsigned int, class TSecureId &) const
	?ClientUidType@AIPCClientInfo@ESock@@QBEHIAAVTUidType@@@Z @ 262 NONAME ; int ESock::AIPCClientInfo::ClientUidType(unsigned int, class TUidType &) const
	?CloneFlowL@MFlowBinderControl@ESock@@UAEAAVCSubConnectionFlowBase@2@XZ @ 263 NONAME ; class ESock::CSubConnectionFlowBase & ESock::MFlowBinderControl::CloneFlowL(void)
	?CloneL@TSubConnectionEvent@@QBEPAV1@XZ @ 264 NONAME ; class TSubConnectionEvent * TSubConnectionEvent::CloneL(void) const
	?Close@CProtocolBase@@UAEXXZ @ 265 NONAME ; void CProtocolBase::Close(void)
	?Close@CProtocolFamilyBase@@UAEXXZ @ 266 NONAME ; void CProtocolFamilyBase::Close(void)
	?Close@CRefCountOwnerBase@ESock@@QAEXXZ @ 267 NONAME ; void ESock::CRefCountOwnerBase::Close(void)
	?Close@RCommsApiExtensionBase@@IAEXXZ @ 268 NONAME ; void RCommsApiExtensionBase::Close(void)
	?Close@RCommsDataMonitoringApiExt@@QAEXXZ @ 269 NONAME ; void RCommsDataMonitoringApiExt::Close(void)
	?Close@RCommsMobilityApiExt@@QAEXXZ @ 270 NONAME ; void RCommsMobilityApiExt::Close(void)
	?Close@RConnection@@QAEXXZ @ 271 NONAME ; void RConnection::Close(void)
	?Close@RConnectionServ@ConnectionServ@@QAEXXZ @ 272 NONAME ; void ConnectionServ::RConnectionServ::Close(void)
	?Close@RHostResolver@@QAEXXZ @ 273 NONAME ; void RHostResolver::Close(void)
	?Close@RNetDatabase@@QAEXXZ @ 274 NONAME ; void RNetDatabase::Close(void)
	?Close@RNodeInterface@ESock@@QAEXXZ @ 275 NONAME ; void ESock::RNodeInterface::Close(void)
	?Close@RServiceResolver@@QAEXXZ @ 276 NONAME ; void RServiceResolver::Close(void)
	?Close@RSocket@@QAEXXZ @ 277 NONAME ; void RSocket::Close(void)
	?Close@RSubConParameterBundle@@QAEXXZ @ 278 NONAME ; void RSubConParameterBundle::Close(void)
	?Close@RSubConnection@@QAEXXZ @ 279 NONAME ; void RSubConnection::Close(void)
	?CloseExtensionInterface@AExtensionInterfaceThickBase@ESock@@UAEXI@Z @ 280 NONAME ; void ESock::AExtensionInterfaceThickBase::CloseExtensionInterface(unsigned int)
	?CloseNow@CProtocolBase@@UAEXXZ @ 281 NONAME ; void CProtocolBase::CloseNow(void)
	?CloseSession@SocketServExt@@SAXXZ @ 282 NONAME ; void SocketServExt::CloseSession(void)
	?CmpPort@TSockAddr@@QBEHABV1@@Z @ 283 NONAME ; int TSockAddr::CmpPort(class TSockAddr const &) const
	?CommitL@CESockIniData@@QAEXXZ @ 284 NONAME ; void CESockIniData::CommitL(void)
	?Complete@CCommsApiExtResponder@ESock@@SAXAAPAV12@H@Z @ 285 NONAME ; void ESock::CCommsApiExtResponder::Complete(class ESock::CCommsApiExtResponder * &, int)
	?CompleteClient@CLegacyEnumerateSubConnectionsResponder@ESock@@SAXAAPAV12@H@Z @ 286 NONAME ; void ESock::CLegacyEnumerateSubConnectionsResponder::CompleteClient(class ESock::CLegacyEnumerateSubConnectionsResponder * &, int)
	?Connect@RConnectionServ@ConnectionServ@@QAEHI@Z @ 287 NONAME ; int ConnectionServ::RConnectionServ::Connect(unsigned int)
	?Connect@RSocket@@QAEXAAVTSockAddr@@AAVTRequestStatus@@@Z @ 288 NONAME ; void RSocket::Connect(class TSockAddr &, class TRequestStatus &)
	?Connect@RSocket@@QAEXAAVTSockAddr@@ABVTDesC8@@AAVTDes8@@AAVTRequestStatus@@@Z @ 289 NONAME ; void RSocket::Connect(class TSockAddr &, class TDesC8 const &, class TDes8 &, class TRequestStatus &)
	?Connect@RSocketServ@@QAEHABVTSessionPref@@I@Z @ 290 NONAME ; int RSocketServ::Connect(class TSessionPref const &, unsigned int)
	?Connect@RSocketServ@@QAEHI@Z @ 291 NONAME ; int RSocketServ::Connect(unsigned int)
	?ConstructL@ACFNodeBase@ESock@@IAEXXZ @ 292 NONAME ; void ESock::ACFNodeBase::ConstructL(void)
	?ConstructL@ADataMonitoringProvider@ESock@@IAEXXZ @ 293 NONAME ; void ESock::ADataMonitoringProvider::ConstructL(void)
	?ConstructL@CESockIniData@@IAEXABVTDesC16@@@Z @ 294 NONAME ; void CESockIniData::ConstructL(class TDesC16 const &)
	?ConstructL@CMetaConnectionProviderBase@ESock@@QAEXXZ @ 295 NONAME ; void ESock::CMetaConnectionProviderBase::ConstructL(void)
	?ConstructL@CParameterSetContainer@@IAEXAAVCParameterBundleBase@@@Z @ 296 NONAME ; void CParameterSetContainer::ConstructL(class CParameterBundleBase &)
	?Control@MLowerControl@ESock@@UAEHIIAAVTDes8@@@Z @ 297 NONAME ; int ESock::MLowerControl::Control(unsigned int, unsigned int, class TDes8 &)
	?Control@RConnection@@QAEHIIAAVTDes8@@@Z @ 298 NONAME ; int RConnection::Control(unsigned int, unsigned int, class TDes8 &)
	?Control@RSubConnection@@QAEHIIAAVTDes8@@@Z @ 299 NONAME ; int RSubConnection::Control(unsigned int, unsigned int, class TDes8 &)
	?CookieForProtocol@CWorkerThread@@SAHIIIAAVTCookie@CommsFW@@@Z @ 300 NONAME ; int CWorkerThread::CookieForProtocol(unsigned int, unsigned int, unsigned int, class CommsFW::TCookie &)
	?CookieForProtocolByName@CWorkerThread@@SAHABV?$TBuf@$0CA@@@AAVTCookie@CommsFW@@@Z @ 301 NONAME ; int CWorkerThread::CookieForProtocolByName(class TBuf<32> const &, class CommsFW::TCookie &)
	?CookieForWorkerId@CWorkerThread@@SAHHAAVTCookie@CommsFW@@@Z @ 302 NONAME ; int CWorkerThread::CookieForWorkerId(int, class CommsFW::TCookie &)
	?Copy@CCommsDataObjectBase@ESock@@UAEXPBX@Z @ 303 NONAME ; void ESock::CCommsDataObjectBase::Copy(void const *)
	?CopyFieldsRequiredByQueryFromL@XParameterSet@@UAEXABVCParameterBundleBase@@ABV1@@Z @ 304 NONAME ; void XParameterSet::CopyFieldsRequiredByQueryFromL(class CParameterBundleBase const &, class XParameterSet const &)
	?Count@TConnIdList@@QBEHXZ @ 305 NONAME ; int TConnIdList::Count(void) const
	?CountActivities@ACFNodeBase@ESock@@QBEIE@Z @ 306 NONAME ; unsigned int ESock::ACFNodeBase::CountActivities(unsigned char) const
	?CountAllActivities@ACFNodeBase@ESock@@QBEIE@Z @ 307 NONAME ; unsigned int ESock::ACFNodeBase::CountAllActivities(unsigned char) const
	?CountAllActivities@ACFNodeBase@ESock@@QBEIXZ @ 308 NONAME ; unsigned int ESock::ACFNodeBase::CountAllActivities(void) const
	?CountClients@ACFNodeBase@ESock@@ABEIAAVTClientIterBase@2@@Z @ 309 NONAME ; unsigned int ESock::ACFNodeBase::CountClients(class ESock::TClientIterBase &) const
	?CreateL@CConnectionProvdBase@@IAEXPAVMConnectionNotify@@@Z @ 310 NONAME ; void CConnectionProvdBase::CreateL(class MConnectionNotify *)
	?CreateL@CConnectionProviderFactoryBase@ESock@@QAEAAVCConnectionProviderBase@2@XZ @ 311 NONAME ; class ESock::CConnectionProviderBase & ESock::CConnectionProviderFactoryBase::CreateL(void)
	?CreateL@CMetaConnectionProviderFactoryBase@ESock@@QAEAAVCMetaConnectionProviderBase@2@ABVTProviderInfo@2@@Z @ 312 NONAME ; class ESock::CMetaConnectionProviderBase & ESock::CMetaConnectionProviderFactoryBase::CreateL(class ESock::TProviderInfo const &)
	?CreateL@CSubConnectionFlowFactoryBase@ESock@@QAEAAVCSubConnectionFlowBase@2@ABUTCommsId@2@0@Z @ 313 NONAME ; class ESock::CSubConnectionFlowBase & ESock::CSubConnectionFlowFactoryBase::CreateL(struct ESock::TCommsId const &, struct ESock::TCommsId const &)
	?CreateL@CSubConnectionProviderFactoryBase@ESock@@QAEAAVCSubConnectionProviderBase@2@W4TSubConnType@TSubConnOpen@@@Z @ 314 NONAME ; class ESock::CSubConnectionProviderBase & ESock::CSubConnectionProviderFactoryBase::CreateL(enum TSubConnOpen::TSubConnType)
	?CreateProtocolIntfFactoryL@CSubConnectionFlowFactoryBase@ESock@@MAEPAVCProtocolIntfFactoryBase@2@AAVCProtocolIntfFactoryContainer@2@@Z @ 315 NONAME ; class ESock::CProtocolIntfFactoryBase * ESock::CSubConnectionFlowFactoryBase::CreateProtocolIntfFactoryL(class ESock::CProtocolIntfFactoryContainer &)
	?CreateProtocolIntfL@CProtocolIntfFactoryBase@ESock@@QAEPAVCProtocolIntfBase@2@ABUTCommsId@2@@Z @ 316 NONAME ; class ESock::CProtocolIntfBase * ESock::CProtocolIntfFactoryBase::CreateProtocolIntfL(struct ESock::TCommsId const &)
	?CurrentWorkerId@CWorkerThread@@SAHAAH@Z @ 317 NONAME ; int CWorkerThread::CurrentWorkerId(int &)
	?DataNotificationL@ADataMonitoringProvider@ESock@@QAEXABU?$TCFMessageSigNumberNumber@$0EH@$0BABPHEIC@@2@@Z @ 318 NONAME ; void ESock::ADataMonitoringProvider::DataNotificationL(struct ESock::TCFMessageSigNumberNumber<71, 270496898> const &)
	?DataReceivedNotification@CDataMonitoringResponder@ESock@@SAXAAPAV12@K@Z @ 319 NONAME ; void ESock::CDataMonitoringResponder::DataReceivedNotification(class ESock::CDataMonitoringResponder * &, unsigned long)
	?DataReceivedNotificationCancel@CConnDataTransfer@@QAEHXZ @ 320 NONAME ; int CConnDataTransfer::DataReceivedNotificationCancel(void)
	?DataReceivedNotificationCancel@RConnection@@QAEXI@Z @ 321 NONAME ; void RConnection::DataReceivedNotificationCancel(unsigned int)
	?DataReceivedNotificationCancel@RConnection@@QAEXXZ @ 322 NONAME ; void RConnection::DataReceivedNotificationCancel(void)
	?DataReceivedNotificationL@ADataMonitoringProvider@ESock@@QAEXK@Z @ 323 NONAME ; void ESock::ADataMonitoringProvider::DataReceivedNotificationL(unsigned long)
	?DataReceivedNotificationRequest@CConnDataTransfer@@QAEHII@Z @ 324 NONAME ; int CConnDataTransfer::DataReceivedNotificationRequest(unsigned int, unsigned int)
	?DataReceivedNotificationRequest@RConnection@@QAEXIAAV?$TPckg@I@@AAVTRequestStatus@@@Z @ 325 NONAME ; void RConnection::DataReceivedNotificationRequest(unsigned int, class TPckg<unsigned int> &, class TRequestStatus &)
	?DataReceivedNotificationRequest@RConnection@@QAEXIIAAV?$TPckg@I@@AAVTRequestStatus@@@Z @ 326 NONAME ; void RConnection::DataReceivedNotificationRequest(unsigned int, unsigned int, class TPckg<unsigned int> &, class TRequestStatus &)
	?DataSentNotification@CDataMonitoringResponder@ESock@@SAXAAPAV12@K@Z @ 327 NONAME ; void ESock::CDataMonitoringResponder::DataSentNotification(class ESock::CDataMonitoringResponder * &, unsigned long)
	?DataSentNotificationCancel@CConnDataTransfer@@QAEHXZ @ 328 NONAME ; int CConnDataTransfer::DataSentNotificationCancel(void)
	?DataSentNotificationCancel@RConnection@@QAEXI@Z @ 329 NONAME ; void RConnection::DataSentNotificationCancel(unsigned int)
	?DataSentNotificationCancel@RConnection@@QAEXXZ @ 330 NONAME ; void RConnection::DataSentNotificationCancel(void)
	?DataSentNotificationL@ADataMonitoringProvider@ESock@@QAEXK@Z @ 331 NONAME ; void ESock::ADataMonitoringProvider::DataSentNotificationL(unsigned long)
	?DataSentNotificationRequest@CConnDataTransfer@@QAEHII@Z @ 332 NONAME ; int CConnDataTransfer::DataSentNotificationRequest(unsigned int, unsigned int)
	?DataSentNotificationRequest@RConnection@@QAEXIAAV?$TPckg@I@@AAVTRequestStatus@@@Z @ 333 NONAME ; void RConnection::DataSentNotificationRequest(unsigned int, class TPckg<unsigned int> &, class TRequestStatus &)
	?DataSentNotificationRequest@RConnection@@QAEXIIAAV?$TPckg@I@@AAVTRequestStatus@@@Z @ 334 NONAME ; void RConnection::DataSentNotificationRequest(unsigned int, unsigned int, class TPckg<unsigned int> &, class TRequestStatus &)
	?DataTransferred@CConnDataTransfer@@QAEHAAI0@Z @ 335 NONAME ; int CConnDataTransfer::DataTransferred(unsigned int &, unsigned int &)
	?DataTransferred@CDataMonitoringResponder@ESock@@SAXAAPAV12@KK@Z @ 336 NONAME ; void ESock::CDataMonitoringResponder::DataTransferred(class ESock::CDataMonitoringResponder * &, unsigned long, unsigned long)
	?DataTransferredCancel@CConnDataTransfer@@QAEHXZ @ 337 NONAME ; int CConnDataTransfer::DataTransferredCancel(void)
	?DataTransferredCancel@RConnection@@QAEXI@Z @ 338 NONAME ; void RConnection::DataTransferredCancel(unsigned int)
	?DataTransferredCancel@RConnection@@QAEXXZ @ 339 NONAME ; void RConnection::DataTransferredCancel(void)
	?DataTransferredRequest@RConnection@@QAEXAAV?$TPckg@I@@0AAVTRequestStatus@@@Z @ 340 NONAME ; void RConnection::DataTransferredRequest(class TPckg<unsigned int> &, class TPckg<unsigned int> &, class TRequestStatus &)
	?DataTransferredRequest@RConnection@@QAEXIAAV?$TPckg@I@@0AAVTRequestStatus@@@Z @ 341 NONAME ; void RConnection::DataTransferredRequest(unsigned int, class TPckg<unsigned int> &, class TPckg<unsigned int> &, class TRequestStatus &)
	?DeRegisterClient@CConnDataTransfer@@QAEXAAVMConnDataTransferNotify@@@Z @ 342 NONAME ; void CConnDataTransfer::DeRegisterClient(class MConnDataTransferNotify &)
	?DeRegisterNotifier@CCommsFactoryBase@ESock@@QAEXABVIFactoryNotify@2@@Z @ 343 NONAME ; void ESock::CCommsFactoryBase::DeRegisterNotifier(class ESock::IFactoryNotify const &)
	?DeleteMeNow@AFactoryObject@ESock@@QAEXXZ @ 344 NONAME ; void ESock::AFactoryObject::DeleteMeNow(void)
	?DeleteParameterSetL@CParameterSetContainer@@QAEXH@Z @ 345 NONAME ; void CParameterSetContainer::DeleteParameterSetL(int)
	?DeleteThisFlow@CSubConnectionFlowBase@ESock@@IAEXXZ @ 346 NONAME ; void ESock::CSubConnectionFlowBase::DeleteThisFlow(void)
	?DispatchL@TCFDataClientJoiningRequest@CRejoinDataClientActivity@PRActivities@@IAEXABUTDataClientJoiningRequest_TplSpec@ESock@@PAVMCFNode@5@AAVTPtrC8@@@Z @ 347 NONAME ; void PRActivities::CRejoinDataClientActivity::TCFDataClientJoiningRequest::DispatchL(struct ESock::TDataClientJoiningRequest_TplSpec const &, class ESock::MCFNode *, class TPtrC8 &)
	?DispatchL@TCFSignatureBase@ESock@@MAEXPAXAAVTPtrC8@@@Z @ 348 NONAME ; void ESock::TCFSignatureBase::DispatchL(void *, class TPtrC8 &)
	?DispatchL@TCommsApiExtReqMsg@@UAEXAAVTInterfaceControl@NetInterfaces@@ABIAAVRResponseMsg@Elements@@@Z @ 349 NONAME ; void TCommsApiExtReqMsg::DispatchL(class NetInterfaces::TInterfaceControl &, unsigned int const &, class Elements::RResponseMsg &)
	?DispatchL@TSafeRequestCarrierEast@ESock@@MAEXPAXAAVTPtrC8@@@Z @ 350 NONAME ; void ESock::TSafeRequestCarrierEast::DispatchL(void *, class TPtrC8 &)
	?DispatchL@TSafeResponseCarrierWest@ESock@@MAEXPAXAAVTPtrC8@@@Z @ 351 NONAME ; void ESock::TSafeResponseCarrierWest::DispatchL(void *, class TPtrC8 &)
	?DoComplete@CCommsApiExtIpcOpenResponder@ESock@@MAEXH@Z @ 352 NONAME ; void ESock::CCommsApiExtIpcOpenResponder::DoComplete(int)
	?DoComplete@CCommsApiExtIpcResponder@ESock@@MAEXH@Z @ 353 NONAME ; void ESock::CCommsApiExtIpcResponder::DoComplete(int)
	?DoFetchInterfaceControlL@AApiExtBase@ESock@@MAEPAVTInterfaceControl@NetInterfaces@@W4TSupportedCommsApiExt@@@Z @ 354 NONAME ; class NetInterfaces::TInterfaceControl * ESock::AApiExtBase::DoFetchInterfaceControlL(enum TSupportedCommsApiExt)
	?DoFetchInterfaceControlL@CCFNodeActivityBase@ESock@@MAEPAVTInterfaceControl@NetInterfaces@@W4TSupportedCommsApiExt@@@Z @ 355 NONAME ; class NetInterfaces::TInterfaceControl * ESock::CCFNodeActivityBase::DoFetchInterfaceControlL(enum TSupportedCommsApiExt)
	?DoFindOrCreateL@CSubConnectionFlowFactoryBase@ESock@@MAEPAVCSubConnectionFlowBase@2@AAVXSubConnectionFlowFactoryQuery@2@@Z @ 356 NONAME ; class ESock::CSubConnectionFlowBase * ESock::CSubConnectionFlowFactoryBase::DoFindOrCreateL(class ESock::XSubConnectionFlowFactoryQuery &)
	?DoFindOrCreateL@CSubConnectionProviderFactoryBase@ESock@@MAEPAVCSubConnectionProviderBase@2@AAVXSubConnectionFactoryQuery@2@@Z @ 357 NONAME ; class ESock::CSubConnectionProviderBase * ESock::CSubConnectionProviderFactoryBase::DoFindOrCreateL(class ESock::XSubConnectionFactoryQuery &)
	?DoL@TAbortAllActivities@CoreStates@@UAEXXZ @ 358 NONAME ; void CoreStates::TAbortAllActivities::DoL(void)
	?DoL@TAbortAllActivitiesNodeDeletion@CoreStates@@UAEXXZ @ 359 NONAME ; void CoreStates::TAbortAllActivitiesNodeDeletion::DoL(void)
	?DoL@TAddAuxClient@CoreNetStates@@UAEXXZ @ 360 NONAME ; void CoreNetStates::TAddAuxClient::DoL(void)
	?DoL@TAddControlClientAndSendJoinCompleteIfRequest@CoreNetStates@@UAEXXZ @ 361 NONAME ; void CoreNetStates::TAddControlClientAndSendJoinCompleteIfRequest::DoL(void)
	?DoL@TAddDataClient@CoreNetStates@@UAEXXZ @ 362 NONAME ; void CoreNetStates::TAddDataClient::DoL(void)
	?DoL@TAddDataClientAndRespond@CoreNetStates@@UAEXXZ @ 363 NONAME ; void CoreNetStates::TAddDataClientAndRespond::DoL(void)
	?DoL@TBindSelf@CoreNetStates@@UAEXXZ @ 364 NONAME ; void CoreNetStates::TBindSelf::DoL(void)
	?DoL@TBindSelfToPresentBearer@CoreNetStates@@UAEXXZ @ 365 NONAME ; void CoreNetStates::TBindSelfToPresentBearer::DoL(void)
	?DoL@TCancelDataClientStart@CoreNetStates@@UAEXXZ @ 366 NONAME ; void CoreNetStates::TCancelDataClientStart::DoL(void)
	?DoL@TClearError@CoreStates@@UAEXXZ @ 367 NONAME ; void CoreStates::TClearError::DoL(void)
	?DoL@TCreateDataClient@PRStates@@UAEXXZ @ 368 NONAME ; void PRStates::TCreateDataClient::DoL(void)
	?DoL@TDestroyOrphanedDataClients@PRStates@@UAEXXZ @ 369 NONAME ; void PRStates::TDestroyOrphanedDataClients::DoL(void)
	?DoL@TDoErrorRecovery@CErrorActivity@CoreActivities@@UAEXXZ @ 370 NONAME ; void CoreActivities::CErrorActivity::TDoErrorRecovery::DoL(void)
	?DoL@TDoNothing@CoreStates@@UAEXXZ @ 371 NONAME ; void CoreStates::TDoNothing::DoL(void)
	?DoL@TForwardStateChange@PRStates@@UAEXXZ @ 372 NONAME ; void PRStates::TForwardStateChange::DoL(void)
	?DoL@TForwardToControlProvider@CoreNetStates@@UAEXXZ @ 373 NONAME ; void CoreNetStates::TForwardToControlProvider::DoL(void)
	?DoL@TMakeClientsLeaveOrProcessClientLeave@CDestroyActivity@CoreActivities@@UAEXXZ @ 374 NONAME ; void CoreActivities::CDestroyActivity::TMakeClientsLeaveOrProcessClientLeave::DoL(void)
	?DoL@TPanic@CoreStates@@UAEXXZ @ 375 NONAME ; void CoreStates::TPanic::DoL(void)
	?DoL@TPostToOriginators@CoreStates@@UAEXXZ @ 376 NONAME ; void CoreStates::TPostToOriginators::DoL(void)
	?DoL@TRaiseActivityError@CoreStates@@UAEXXZ @ 377 NONAME ; void CoreStates::TRaiseActivityError::DoL(void)
	?DoL@TRaiseAndClearActivityError@CoreStates@@UAEXXZ @ 378 NONAME ; void CoreStates::TRaiseAndClearActivityError::DoL(void)
	?DoL@TReBindLeaveAndForward@PRStates@@UAEXXZ @ 379 NONAME ; void PRStates::TReBindLeaveAndForward::DoL(void)
	?DoL@TRejoinDataClient@CRejoinDataClientActivity@PRActivities@@UAEXXZ @ 380 NONAME ; void PRActivities::CRejoinDataClientActivity::TRejoinDataClient::DoL(void)
	?DoL@TRemoveAuxClient@CoreNetStates@@UAEXXZ @ 381 NONAME ; void CoreNetStates::TRemoveAuxClient::DoL(void)
	?DoL@TRemoveClient@CoreStates@@UAEXXZ @ 382 NONAME ; void CoreStates::TRemoveClient::DoL(void)
	?DoL@TRequestCommsBinder@CNoBearer@PRActivities@@UAEXXZ @ 383 NONAME ; void PRActivities::CNoBearer::TRequestCommsBinder::DoL(void)
	?DoL@TRequestCommsBinder@CoreNetStates@@UAEXXZ @ 384 NONAME ; void CoreNetStates::TRequestCommsBinder::DoL(void)
	?DoL@TSendApplyRequest@CoreNetStates@@UAEXXZ @ 385 NONAME ; void CoreNetStates::TSendApplyRequest::DoL(void)
	?DoL@TSendBindToComplete@ABindingActivity@CoreActivities@@UAEXXZ @ 386 NONAME ; void CoreActivities::ABindingActivity::TSendBindToComplete::DoL(void)
	?DoL@TSendBindToComplete@CoreNetStates@@UAEXXZ @ 387 NONAME ; void CoreNetStates::TSendBindToComplete::DoL(void)
	?DoL@TSendBindToCompleteIfExpected@ABindingActivity@CoreActivities@@UAEXXZ @ 388 NONAME ; void CoreActivities::ABindingActivity::TSendBindToCompleteIfExpected::DoL(void)
	?DoL@TSendBindToResponse@CoreNetStates@@UAEXXZ @ 389 NONAME ; void CoreNetStates::TSendBindToResponse::DoL(void)
	?DoL@TSendBinderResponse@CCommsBinderActivity@PRActivities@@UAEXXZ @ 390 NONAME ; void PRActivities::CCommsBinderActivity::TSendBinderResponse::DoL(void)
	?DoL@TSendClientLeavingAndRemoveControlProvider@CoreNetStates@@UAEXXZ @ 391 NONAME ; void CoreNetStates::TSendClientLeavingAndRemoveControlProvider::DoL(void)
	?DoL@TSendClientLeavingAndRemoveControlProviderIfNoServiceProviders@CoreNetStates@@UAEXXZ @ 392 NONAME ; void CoreNetStates::TSendClientLeavingAndRemoveControlProviderIfNoServiceProviders::DoL(void)
	?DoL@TSendClientLeavingAndRemoveServiceProvider@CoreNetStates@@UAEXXZ @ 393 NONAME ; void CoreNetStates::TSendClientLeavingAndRemoveServiceProvider::DoL(void)
	?DoL@TSendClientLeavingRequestToServiceProvider@CoreNetStates@@UAEXXZ @ 394 NONAME ; void CoreNetStates::TSendClientLeavingRequestToServiceProvider::DoL(void)
	?DoL@TSendClientLeavingRequestToServiceProviders@CoreNetStates@@UAEXXZ @ 395 NONAME ; void CoreNetStates::TSendClientLeavingRequestToServiceProviders::DoL(void)
	?DoL@TSendControlClientJoinRequest@CoreNetStates@@UAEXXZ @ 396 NONAME ; void CoreNetStates::TSendControlClientJoinRequest::DoL(void)
	?DoL@TSendDataClientActive@CoreNetStates@@UAEXXZ @ 397 NONAME ; void CoreNetStates::TSendDataClientActive::DoL(void)
	?DoL@TSendDataClientIdle@CoreNetStates@@UAEXXZ @ 398 NONAME ; void CoreNetStates::TSendDataClientIdle::DoL(void)
	?DoL@TSendDataClientIdleIfNoClients@CoreNetStates@@UAEXXZ @ 399 NONAME ; void CoreNetStates::TSendDataClientIdleIfNoClients::DoL(void)
	?DoL@TSendDataClientStarted@PRStates@@UAEXXZ @ 400 NONAME ; void PRStates::TSendDataClientStarted::DoL(void)
	?DoL@TSendDataClientStopped@PRStates@@UAEXXZ @ 401 NONAME ; void PRStates::TSendDataClientStopped::DoL(void)
	??0ACFNodeBase@ESock@@IAE@ABUTCFNodeActivityMap@1@AAVMCFNode@1@@Z @ 402 NONAME ; ESock::ACFNodeBase::ACFNodeBase(struct ESock::TCFNodeActivityMap const &, class ESock::MCFNode &)
	??0CBindToRequestActivity@PRActivities@@IAE@ABUTCFNodeActivity@ESock@@AAVACFNodeBase@3@H@Z @ 403 NONAME ; PRActivities::CBindToRequestActivity::CBindToRequestActivity(struct ESock::TCFNodeActivity const &, class ESock::ACFNodeBase &, int)
	??0CCommsBinderActivity@PRActivities@@IAE@ABUTCFNodeActivity@ESock@@AAVACFNodeBase@3@I@Z @ 404 NONAME ; PRActivities::CCommsBinderActivity::CCommsBinderActivity(struct ESock::TCFNodeActivity const &, class ESock::ACFNodeBase &, unsigned int)
	??1ACFNodeBase@ESock@@IAE@XZ @ 405 NONAME ; ESock::ACFNodeBase::~ACFNodeBase(void)
	??1CTierManagerFactoryContainer@ESock@@UAE@XZ @ 406 NONAME ; ESock::CTierManagerFactoryContainer::~CTierManagerFactoryContainer(void)
	?ConstructL@CCommsFactoryBase@ESock@@IAEXABVTUid@@@Z @ 407 NONAME ; void ESock::CCommsFactoryBase::ConstructL(class TUid const &)
	?ConstructL@CCommsFactoryBase@ESock@@IAEXXZ @ 408 NONAME ; void ESock::CCommsFactoryBase::ConstructL(void)
	?DoL@THandleDataClientIdle@CoreNetStates@@UAEXXZ @ 409 NONAME ; void CoreNetStates::THandleDataClientIdle::DoL(void)
	?DoL@THandleProviderStatusChange@PRStates@@UAEXXZ @ 410 NONAME ; void PRStates::THandleProviderStatusChange::DoL(void)
	?DoL@TSendErrorRecoveryReq@CErrorActivity@CoreActivities@@UAEXXZ @ 411 NONAME ; void CoreActivities::CErrorActivity::TSendErrorRecoveryReq::DoL(void)
	?DoL@TSendGoneDown@PRStates@@UAEXXZ @ 412 NONAME ; void PRStates::TSendGoneDown::DoL(void)
	?DoL@TSendLeaveCompleteIfRequest@CoreNetStates@@UAEXXZ @ 413 NONAME ; void CoreNetStates::TSendLeaveCompleteIfRequest::DoL(void)
	?DoL@TSendLowerLayerComplete@CoreNetStates@@UAEXXZ @ 414 NONAME ; void CoreNetStates::TSendLowerLayerComplete::DoL(void)
	?DoL@TSendNoBearer@CoreNetStates@@UAEXXZ @ 415 NONAME ; void CoreNetStates::TSendNoBearer::DoL(void)
	?DoL@TSendProvision@PRStates@@UAEXXZ @ 416 NONAME ; void PRStates::TSendProvision::DoL(void)
	?DoL@TSendRejoinComplete@CoreNetStates@@UAEXXZ @ 417 NONAME ; void CoreNetStates::TSendRejoinComplete::DoL(void)
	?DoL@TSendStarted@CoreNetStates@@UAEXXZ @ 418 NONAME ; void CoreNetStates::TSendStarted::DoL(void)
	?DoL@TSendStop@CoreNetStates@@UAEXXZ @ 419 NONAME ; void CoreNetStates::TSendStop::DoL(void)
	?DoL@TSendStopped@PRStates@@UAEXXZ @ 420 NONAME ; void PRStates::TSendStopped::DoL(void)
	?DoL@TSendStoppedAndGoneDown@PRStates@@UAEXXZ @ 421 NONAME ; void PRStates::TSendStoppedAndGoneDown::DoL(void)
	?DoL@TSetIdle@CoreStates@@UAEXXZ @ 422 NONAME ; void CoreStates::TSetIdle::DoL(void)
	?DoL@TSetIdleIfMoreClients@CoreStates@@UAEXXZ @ 423 NONAME ; void CoreStates::TSetIdleIfMoreClients::DoL(void)
	?DoL@TSetIdleIfNoServiceProviders@CoreNetStates@@UAEXXZ @ 424 NONAME ; void CoreNetStates::TSetIdleIfNoServiceProviders::DoL(void)
	?DoL@TStartDefaultDataClient@PRStates@@UAEXXZ @ 425 NONAME ; void PRStates::TStartDefaultDataClient::DoL(void)
	?DoL@TStartSelf@CoreNetStates@@UAEXXZ @ 426 NONAME ; void CoreNetStates::TStartSelf::DoL(void)
	?DoL@TStartServiceProvider@CoreNetStates@@UAEXXZ @ 427 NONAME ; void CoreNetStates::TStartServiceProvider::DoL(void)
	?DoL@TStopSelf@CoreNetStates@@UAEXXZ @ 428 NONAME ; void CoreNetStates::TStopSelf::DoL(void)
	?DoL@TStoreError@CoreStates@@UAEXXZ @ 429 NONAME ; void CoreStates::TStoreError::DoL(void)
	?DoL@TStorePendingBinder@CCommsBinderActivity@PRActivities@@UAEXXZ @ 430 NONAME ; void PRActivities::CCommsBinderActivity::TStorePendingBinder::DoL(void)
	?DoL@TStoreProvision@PRStates@@UAEXXZ @ 431 NONAME ; void PRStates::TStoreProvision::DoL(void)
	?DoNewCarrierActive@CCommsMobilitySrvIpcResponder@ESock@@UAEXUTAccessPointInfo@@H@Z @ 432 NONAME ABSENT ; void ESock::CCommsMobilitySrvIpcResponder::DoNewCarrierActive(struct TAccessPointInfo, int)
	?DoPreferredCarrierAvailable@CCommsMobilitySrvIpcResponder@ESock@@UAEXUTAccessPointInfo@@0HH@Z @ 433 NONAME ABSENT ; void ESock::CCommsMobilitySrvIpcResponder::DoPreferredCarrierAvailable(struct TAccessPointInfo, struct TAccessPointInfo, int, int)
	?DoReceiveMessage@CCommsFactoryBase@ESock@@MAEHAAVCMessage@NetMessages@@@Z @ 434 NONAME ; int ESock::CCommsFactoryBase::DoReceiveMessage(class NetMessages::CMessage &)
	?EnumerateConnections@RConnection@@QAEHAAI@Z @ 435 NONAME ; int RConnection::EnumerateConnections(unsigned int &)
	?EnumerateSubConnections@RConnection@@QAEHAAI@Z @ 436 NONAME ; int RConnection::EnumerateSubConnections(unsigned int &)
	?Error@CCommsMobilitySrvResp@@SAXAAPAV1@H@Z @ 437 NONAME ; void CCommsMobilitySrvResp::Error(class CCommsMobilitySrvResp * &, int)
	?Error@CDataMonitoringResponder@ESock@@SAXAAPAV12@H@Z @ 438 NONAME ; void ESock::CDataMonitoringResponder::Error(class ESock::CDataMonitoringResponder * &, int)
	?Error@CProtocolBase@@UAEXHPAV1@@Z @ 439 NONAME ; void CProtocolBase::Error(int, class CProtocolBase *)
	?Error@TAddDataClient@CoreNetStates@@UAEXH@Z @ 440 NONAME ; void CoreNetStates::TAddDataClient::Error(int)
	?Error@TCFRegisterMessageHook@ESock@@MAEXPAXH@Z @ 441 NONAME ; void ESock::TCFRegisterMessageHook::Error(void *, int)
	?Error@TCFSigRMessage2Ext@ESock@@MAEXPAXH@Z @ 442 NONAME ; void ESock::TCFSigRMessage2Ext::Error(void *, int)
	?Error@TCFSignatureBase@ESock@@MAEXPAXH@Z @ 443 NONAME ; void ESock::TCFSignatureBase::Error(void *, int)
	?Error@TSafeMessageCarrierBase@ESock@@MAEXPAXH@Z @ 444 NONAME ; void ESock::TSafeMessageCarrierBase::Error(void *, int)
	?EventNotification@RSubConnection@@QAEXAAVTNotificationEventBuf@@HAAVTRequestStatus@@@Z @ 445 NONAME ; void RSubConnection::EventNotification(class TNotificationEventBuf &, int, class TRequestStatus &)
	?EventNotification@RSubConnection@@QAEXAAVTNotificationEventBuf@@QAUTEventFilter@1@IAAVTRequestStatus@@@Z @ 446 NONAME ; void RSubConnection::EventNotification(class TNotificationEventBuf &, struct RSubConnection::TEventFilter * const, unsigned int, class TRequestStatus &)
	?ExtensionId@TConnPref@@QBEHXZ @ 447 NONAME ; int TConnPref::ExtensionId(void) const
	?Family@TSockAddr@@QBEIXZ @ 448 NONAME ; unsigned int TSockAddr::Family(void) const
	?FetchExtInterface@AApiExtBase@ESock@@QAEPAXW4TSupportedCommsApiExt@@@Z @ 449 NONAME ; void * ESock::AApiExtBase::FetchExtInterface(enum TSupportedCommsApiExt)
	?FetchExtInterfaceControlL@AApiExtBase@ESock@@QAEPAVTInterfaceControl@NetInterfaces@@W4TSupportedCommsApiExt@@@Z @ 450 NONAME ; class NetInterfaces::TInterfaceControl * ESock::AApiExtBase::FetchExtInterfaceControlL(enum TSupportedCommsApiExt)
	?FetchExtInterfaceL@AApiExtBase@ESock@@QAEPAXW4TSupportedCommsApiExt@@@Z @ 451 NONAME ; void * ESock::AApiExtBase::FetchExtInterfaceL(enum TSupportedCommsApiExt)
	?FetchInterfaceControlOrForwardMsgL@TCFItfExt@ESock@@IAEPAVTInterfaceControl@NetInterfaces@@AAVTCFESockSignalBase@2@AAVMCFNode@2@W4TSupportedCommsApiExt@@HH@Z @ 452 NONAME ; class NetInterfaces::TInterfaceControl * ESock::TCFItfExt::FetchInterfaceControlOrForwardMsgL(class ESock::TCFESockSignalBase &, class ESock::MCFNode &, enum TSupportedCommsApiExt, int, int)
	?FetchInterfaceL@TCFItfExt@ESock@@IAEPAXAAVMCFNode@2@W4TSupportedCommsApiExt@@@Z @ 453 NONAME ; void * ESock::TCFItfExt::FetchInterfaceL(class ESock::MCFNode &, enum TSupportedCommsApiExt)
	?FetchInterfaceOrForwardMsgL@TCFItfExt@ESock@@IAEPAXAAVTCFESockSignalBase@2@AAVMCFNode@2@W4TSupportedCommsApiExt@@HH@Z @ 454 NONAME ; void * ESock::TCFItfExt::FetchInterfaceOrForwardMsgL(class ESock::TCFESockSignalBase &, class ESock::MCFNode &, enum TSupportedCommsApiExt, int, int)
	?FetchNodeInterfaceControlL@ACFMMNodeIdBase@ESock@@MAEPAVTInterfaceControl@NetInterfaces@@W4TSupportedCommsApiExt@@@Z @ 455 NONAME ; class NetInterfaces::TInterfaceControl * ESock::ACFMMNodeIdBase::FetchNodeInterfaceControlL(enum TSupportedCommsApiExt)
	?FetchNodeInterfaceControlL@CSubConnectionFlowBase@ESock@@MAEPAVTInterfaceControl@NetInterfaces@@W4TSupportedCommsApiExt@@@Z @ 456 NONAME ; class NetInterfaces::TInterfaceControl * ESock::CSubConnectionFlowBase::FetchNodeInterfaceControlL(enum TSupportedCommsApiExt)
	?FetchNodeInterfaceControlL@MCFNode@ESock@@UAEPAVTInterfaceControl@NetInterfaces@@W4TSupportedCommsApiExt@@@Z @ 457 NONAME ; class NetInterfaces::TInterfaceControl * ESock::MCFNode::FetchNodeInterfaceControlL(enum TSupportedCommsApiExt)
	?FetchNodeInterfaceL@MCFNode@ESock@@QAEPAXW4TSupportedCommsApiExt@@@Z @ 458 NONAME ; void * ESock::MCFNode::FetchNodeInterfaceL(enum TSupportedCommsApiExt)
	?FetchPlatsecApiInterfaceL@TCFESockSignalBase@ESock@@QAEPAVMPlatsecApiExt@2@XZ @ 459 NONAME ; class ESock::MPlatsecApiExt * ESock::TCFESockSignalBase::FetchPlatsecApiInterfaceL(void)
	?FillListL@TierManagerUtils@ESock@@SAXAAVTConnIdList@@IAAVCMDBSession@CommsDat@@@Z @ 460 NONAME ; void ESock::TierManagerUtils::FillListL(class TConnIdList &, unsigned int, class CommsDat::CMDBSession &)
	?Find@CConnectionProviderFactoryBase@ESock@@QAEPAVCConnectionProviderBase@2@AAVMCommsFactoryQuery@2@@Z @ 461 NONAME ; class ESock::CConnectionProviderBase * ESock::CConnectionProviderFactoryBase::Find(class ESock::MCommsFactoryQuery &)
	?Find@CMetaConnectionProviderFactoryBase@ESock@@QAEPAVCMetaConnectionProviderBase@2@AAVMCommsFactoryQuery@2@@Z @ 462 NONAME ; class ESock::CMetaConnectionProviderBase * ESock::CMetaConnectionProviderFactoryBase::Find(class ESock::MCommsFactoryQuery &)
	?Find@CSubConnectionFlowFactoryBase@ESock@@QAEPAVCSubConnectionFlowBase@2@AAVMCommsFactoryQuery@2@@Z @ 463 NONAME ; class ESock::CSubConnectionFlowBase * ESock::CSubConnectionFlowFactoryBase::Find(class ESock::MCommsFactoryQuery &)
	?Find@CSubConnectionProviderFactoryBase@ESock@@QAEPAVCSubConnectionProviderBase@2@AAVMCommsFactoryQuery@2@@Z @ 464 NONAME ; class ESock::CSubConnectionProviderBase * ESock::CSubConnectionProviderFactoryBase::Find(class ESock::MCommsFactoryQuery &)
	?Find@TClientIterBase@ESock@@IAEPAVRNodeInterface@2@AAHHH@Z @ 465 NONAME ; class ESock::RNodeInterface * ESock::TClientIterBase::Find(int &, int, int)
	?FindActivityById@ACFNodeBase@ESock@@QBEPAVCCFNodeActivityBase@2@I@Z @ 466 NONAME ; class ESock::CCFNodeActivityBase * ESock::ACFNodeBase::FindActivityById(unsigned int) const
	?FindActivityOriginatedBy@ACFNodeBase@ESock@@QAEPAVCCFNodeActivityBase@2@AAUTCFNodePeerId@2@@Z @ 467 NONAME ; class ESock::CCFNodeActivityBase * ESock::ACFNodeBase::FindActivityOriginatedBy(struct ESock::TCFNodePeerId &)
	?FindAddressedActivity@ACFNodeBase@ESock@@QBEPAVCCFNodeActivityBase@2@ABVTCFSignatureBase@2@@Z @ 468 NONAME ; class ESock::CCFNodeActivityBase * ESock::ACFNodeBase::FindAddressedActivity(class ESock::TCFSignatureBase const &) const
	?FindAndLoadProtocolL@SocketServExt@@SAPAVCProtocolBase@@ABVTDesC16@@W4TProtocolType@@@Z @ 469 NONAME ; class CProtocolBase * SocketServExt::FindAndLoadProtocolL(class TDesC16 const &, enum TProtocolType)
	?FindAndLoadProtocolL@SocketServExt@@SAPAVCProtocolBase@@III@Z @ 470 NONAME ; class CProtocolBase * SocketServExt::FindAndLoadProtocolL(unsigned int, unsigned int, unsigned int)
	?FindClient@ACFNodeBase@ESock@@QBEPAVRNodeInterface@2@ABUTCommsId@2@@Z @ 471 NONAME ; class ESock::RNodeInterface * ESock::ACFNodeBase::FindClient(struct ESock::TCommsId const &) const
	?FindClientL@ACFNodeBase@ESock@@QBEPAVRNodeInterface@2@ABUTCommsId@2@@Z @ 472 NONAME ; class ESock::RNodeInterface * ESock::ACFNodeBase::FindClientL(struct ESock::TCommsId const &) const
	?FindExtension@CAccessPointConfig@ESock@@QBEPBUSMetaData@Meta@@ABUSTypeId@4@@Z @ 473 NONAME ; struct Meta::SMetaData const * ESock::CAccessPointConfig::FindExtension(struct Meta::STypeId const &) const
	?FindExtensionL@CAccessPointConfig@ESock@@QBEPBUSMetaData@Meta@@ABUSTypeId@4@@Z @ 474 NONAME ; struct Meta::SMetaData const * ESock::CAccessPointConfig::FindExtensionL(struct Meta::STypeId const &) const
	?FindExtensionSet@CSubConParameterFamily@@QAEPAVCSubConExtensionParameterSet@@USTypeId@Meta@@W4TParameterSetType@1@@Z @ 475 NONAME ; class CSubConExtensionParameterSet * CSubConParameterFamily::FindExtensionSet(struct Meta::STypeId, enum CSubConParameterFamily::TParameterSetType)
	?FindExtensionSet@CSubConParameterFamily@@QAEPAVCSubConExtensionParameterSet@@VTUid@@W4TParameterSetType@1@@Z @ 476 NONAME ; class CSubConExtensionParameterSet * CSubConParameterFamily::FindExtensionSet(class TUid, enum CSubConParameterFamily::TParameterSetType)
	?FindFactory@CConnectionFactoryContainer@ESock@@QBEPAVCConnectionProviderFactoryBase@2@VTUid@@@Z @ 477 NONAME ; class ESock::CConnectionProviderFactoryBase * ESock::CConnectionFactoryContainer::FindFactory(class TUid) const
	?FindFactory@CMetaConnectionFactoryContainer@ESock@@QBEPAVCMetaConnectionProviderFactoryBase@2@VTUid@@@Z @ 478 NONAME ; class ESock::CMetaConnectionProviderFactoryBase * ESock::CMetaConnectionFactoryContainer::FindFactory(class TUid) const
	?FindFactory@CProtocolIntfFactoryContainer@ESock@@QBEPAVCProtocolIntfFactoryBase@2@VTUid@@@Z @ 479 NONAME ; class ESock::CProtocolIntfFactoryBase * ESock::CProtocolIntfFactoryContainer::FindFactory(class TUid) const
	?FindFactory@CSubConnectionFactoryContainer@ESock@@QBEPAVCSubConnectionProviderFactoryBase@2@VTUid@@@Z @ 480 NONAME ; class ESock::CSubConnectionProviderFactoryBase * ESock::CSubConnectionFactoryContainer::FindFactory(class TUid) const
	?FindFactory@CSubConnectionFlowFactoryContainer@ESock@@QBEPAVCSubConnectionFlowFactoryBase@2@VTUid@@@Z @ 481 NONAME ; class ESock::CSubConnectionFlowFactoryBase * ESock::CSubConnectionFlowFactoryContainer::FindFactory(class TUid) const
	?FindFamily@CSubConParameterBundle@@QAEPAVCSubConParameterFamily@@K@Z @ 482 NONAME ; class CSubConParameterFamily * CSubConParameterBundle::FindFamily(unsigned long)
	?FindFamily@RSubConParameterBundle@@QAEPAVCSubConParameterFamily@@K@Z @ 483 NONAME ; class CSubConParameterFamily * RSubConParameterBundle::FindFamily(unsigned long)
	?FindFlowL@CSubConnectionFlowFactoryContainer@ESock@@QAEPAVCSubConnectionFlowBase@2@VTUid@@AAVXSubConnectionFlowFactoryQuery@2@@Z @ 484 NONAME ; class ESock::CSubConnectionFlowBase * ESock::CSubConnectionFlowFactoryContainer::FindFlowL(class TUid, class ESock::XSubConnectionFlowFactoryQuery &)
	?FindGenericQuery@CConnectionServParameterBundle@ConnectionServ@@QBEPBVXAccessPointGenericQuery@2@XZ @ 485 NONAME ; class ConnectionServ::XAccessPointGenericQuery const * ConnectionServ::CConnectionServParameterBundle::FindGenericQuery(void) const
	?FindObject@CCommsFactoryBase@ESock@@IBEPAVAFactoryObject@2@AAVMCommsFactoryQuery@2@@Z @ 486 NONAME ; class ESock::AFactoryObject * ESock::CCommsFactoryBase::FindObject(class ESock::MCommsFactoryQuery &) const
	?FindOrCreateFactoryL@CConnectionFactoryContainer@ESock@@QAEPAVCConnectionProviderFactoryBase@2@VTUid@@@Z @ 487 NONAME ; class ESock::CConnectionProviderFactoryBase * ESock::CConnectionFactoryContainer::FindOrCreateFactoryL(class TUid)
	?FindOrCreateFactoryL@CMetaConnectionFactoryContainer@ESock@@QAEPAVCMetaConnectionProviderFactoryBase@2@VTUid@@@Z @ 488 NONAME ; class ESock::CMetaConnectionProviderFactoryBase * ESock::CMetaConnectionFactoryContainer::FindOrCreateFactoryL(class TUid)
	?FindOrCreateFactoryL@CProtocolIntfFactoryContainer@ESock@@QAEPAVCProtocolIntfFactoryBase@2@VTUid@@@Z @ 489 NONAME ; class ESock::CProtocolIntfFactoryBase * ESock::CProtocolIntfFactoryContainer::FindOrCreateFactoryL(class TUid)
	?FindOrCreateFactoryL@CSubConnectionFactoryContainer@ESock@@QAEPAVCSubConnectionProviderFactoryBase@2@VTUid@@@Z @ 490 NONAME ; class ESock::CSubConnectionProviderFactoryBase * ESock::CSubConnectionFactoryContainer::FindOrCreateFactoryL(class TUid)
	?FindOrCreateFactoryL@CSubConnectionFlowFactoryContainer@ESock@@QAEPAVCSubConnectionFlowFactoryBase@2@VTUid@@@Z @ 491 NONAME ; class ESock::CSubConnectionFlowFactoryBase * ESock::CSubConnectionFlowFactoryContainer::FindOrCreateFactoryL(class TUid)
	?FindOrCreateFactoryL@CTierManagerFactoryContainer@ESock@@QAEPAVCTierManagerFactoryBase@2@VTUid@@@Z @ 492 NONAME ; class ESock::CTierManagerFactoryBase * ESock::CTierManagerFactoryContainer::FindOrCreateFactoryL(class TUid)
	?FindOrCreateGenericQueryL@CConnectionServParameterBundle@ConnectionServ@@QAEPAVXAccessPointGenericQuery@2@XZ @ 493 NONAME ; class ConnectionServ::XAccessPointGenericQuery * ConnectionServ::CConnectionServParameterBundle::FindOrCreateGenericQueryL(void)
	?FindOrCreateL@CConnectionProviderFactoryBase@ESock@@QAEPAVCConnectionProviderBase@2@AAVXConnectionFactoryQuery@2@@Z @ 494 NONAME ; class ESock::CConnectionProviderBase * ESock::CConnectionProviderFactoryBase::FindOrCreateL(class ESock::XConnectionFactoryQuery &)
	?FindOrCreateL@CMetaConnectionProviderFactoryBase@ESock@@QAEPAVCMetaConnectionProviderBase@2@AAVXMetaConnectionFactoryQuery@2@@Z @ 495 NONAME ; class ESock::CMetaConnectionProviderBase * ESock::CMetaConnectionProviderFactoryBase::FindOrCreateL(class ESock::XMetaConnectionFactoryQuery &)
	?FindOrCreateL@CProtocolFamilyFactoryContainer@ESock@@QAEPAVCProtocolFamilyFactoryBase@2@ABVTDesC8@@VTUid@@@Z @ 496 NONAME ; class ESock::CProtocolFamilyFactoryBase * ESock::CProtocolFamilyFactoryContainer::FindOrCreateL(class TDesC8 const &, class TUid)
	?FindOrCreateL@CSubConnectionFlowFactoryBase@ESock@@QAEPAVCSubConnectionFlowBase@2@AAVXSubConnectionFlowFactoryQuery@2@@Z @ 497 NONAME ; class ESock::CSubConnectionFlowBase * ESock::CSubConnectionFlowFactoryBase::FindOrCreateL(class ESock::XSubConnectionFlowFactoryQuery &)
	?FindOrCreateL@CSubConnectionProviderFactoryBase@ESock@@QAEPAVCSubConnectionProviderBase@2@AAVXSubConnectionFactoryQuery@2@@Z @ 498 NONAME ; class ESock::CSubConnectionProviderBase * ESock::CSubConnectionProviderFactoryBase::FindOrCreateL(class ESock::XSubConnectionFactoryQuery &)
	?FindOrCreateProtocolIntfL@CProtocolIntfFactoryBase@ESock@@QAEPAVCProtocolIntfBase@2@AAVXProtocolIntfFactoryQuery@2@@Z @ 499 NONAME ; class ESock::CProtocolIntfBase * ESock::CProtocolIntfFactoryBase::FindOrCreateProtocolIntfL(class ESock::XProtocolIntfFactoryQuery &)
	?FindOrCreateProtocolIntfL@CProtocolIntfFactoryContainer@ESock@@QAEPAVCProtocolIntfBase@2@VTUid@@AAVXProtocolIntfFactoryQuery@2@@Z @ 500 NONAME ; class ESock::CProtocolIntfBase * ESock::CProtocolIntfFactoryContainer::FindOrCreateProtocolIntfL(class TUid, class ESock::XProtocolIntfFactoryQuery &)
	?FindOrCreateTierManagerL@CTierManagerFactoryBase@ESock@@QAEPAVCTierManagerBase@2@XZ @ 501 NONAME ; class ESock::CTierManagerBase * ESock::CTierManagerFactoryBase::FindOrCreateTierManagerL(void)
	?FindOriginator@CCFNodeActivityBase@ESock@@QAEHABUTCFNodePeerId@2@@Z @ 502 NONAME ; int ESock::CCFNodeActivityBase::FindOriginator(struct ESock::TCFNodePeerId const &)
	?FindOriginator@CCFNodeActivityBase@ESock@@QAEHABUTCommsId@2@@Z @ 503 NONAME ; int ESock::CCFNodeActivityBase::FindOriginator(struct ESock::TCommsId const &)
	?FindOriginator@CCFNodeActivityBase@ESock@@QAEHABVRNodeInterface@2@@Z @ 504 NONAME ; int ESock::CCFNodeActivityBase::FindOriginator(class ESock::RNodeInterface const &)
	?FindParamSetContainer@CParameterBundleBase@@QAEPAVCParameterSetContainer@@K@Z @ 505 NONAME ; class CParameterSetContainer * CParameterBundleBase::FindParamSetContainer(unsigned long)
	?FindParameterSet@CParameterBundleBase@@QAEPAVXParameterSet@@ABUSTypeId@Meta@@@Z @ 506 NONAME ; class XParameterSet * CParameterBundleBase::FindParameterSet(struct Meta::STypeId const &)
	?FindParameterSet@CParameterSetContainer@@QAEHABVXParameterSet@@@Z @ 507 NONAME ; int CParameterSetContainer::FindParameterSet(class XParameterSet const &)
	?FindParameterSet@CParameterSetContainer@@QAEPAVXParameterSet@@ABUSTypeId@Meta@@@Z @ 508 NONAME ; class XParameterSet * CParameterSetContainer::FindParameterSet(struct Meta::STypeId const &)
	?FindProtocol@CProtocolFamilyFactoryBase@ESock@@QAEPAVCProtocolBase@@I@Z @ 509 NONAME ; class CProtocolBase * ESock::CProtocolFamilyFactoryBase::FindProtocol(unsigned int)
	?FindProtocol@RSocketServ@@QAEHABV?$TBuf@$0CA@@@AAUTProtocolDesc@@@Z @ 510 NONAME ; int RSocketServ::FindProtocol(class TBuf<32> const &, struct TProtocolDesc &)
	?FindProtocolIntf@CProtocolIntfFactoryBase@ESock@@QAEPAVCProtocolIntfBase@2@AAVMCommsFactoryQuery@2@@Z @ 511 NONAME ; class ESock::CProtocolIntfBase * ESock::CProtocolIntfFactoryBase::FindProtocolIntf(class ESock::MCommsFactoryQuery &)
	?FindProtocolIntfL@CProtocolIntfFactoryContainer@ESock@@QAEPAVCProtocolIntfBase@2@VTUid@@AAVMCommsFactoryQuery@2@@Z @ 512 NONAME ; class ESock::CProtocolIntfBase * ESock::CProtocolIntfFactoryContainer::FindProtocolIntfL(class TUid, class ESock::MCommsFactoryQuery &)
	?FindServiceProvider@CMetaConnectionProviderBase@ESock@@QAEPAVRMetaServiceProviderInterface@2@I@Z @ 513 NONAME ; class ESock::RMetaServiceProviderInterface * ESock::CMetaConnectionProviderBase::FindServiceProvider(unsigned int)
	?FindVar@CESockIniData@@QBEHABVTDesC16@@0AAH@Z @ 514 NONAME ; int CESockIniData::FindVar(class TDesC16 const &, class TDesC16 const &, int &) const
	?FindVar@CESockIniData@@QBEHABVTDesC16@@0AAVTPtrC16@@@Z @ 515 NONAME ; int CESockIniData::FindVar(class TDesC16 const &, class TDesC16 const &, class TPtrC16 &) const
	?FindVar@CESockIniData@@QBEHABVTDesC16@@AAH@Z @ 516 NONAME ; int CESockIniData::FindVar(class TDesC16 const &, int &) const
	?FindVar@CESockIniData@@QBEHABVTDesC16@@AAVTPtrC16@@@Z @ 517 NONAME ; int CESockIniData::FindVar(class TDesC16 const &, class TPtrC16 &) const
	?FirstTriple@CoreError@CoreErrorActivity@@SAABUTStateTriple@NetStateMachine@@XZ @ 518 NONAME ; struct NetStateMachine::TStateTriple const & CoreErrorActivity::CoreError::FirstTriple(void)
	?FirstTriple@PRClientLeave@PRClientLeaveActivity@@SAABUTStateTriple@NetStateMachine@@XZ @ 519 NONAME ; struct NetStateMachine::TStateTriple const & PRClientLeaveActivity::PRClientLeave::FirstTriple(void)
	?FirstTriple@PRControlClientJoin@PRControlClientJoinActivity@@SAABUTStateTriple@NetStateMachine@@XZ @ 520 NONAME ; struct NetStateMachine::TStateTriple const & PRControlClientJoinActivity::PRControlClientJoin::FirstTriple(void)
	?FirstTriple@PRDataClientActive@PRDataClientActiveActivity@@SAABUTStateTriple@NetStateMachine@@XZ @ 521 NONAME ; struct NetStateMachine::TStateTriple const & PRDataClientActiveActivity::PRDataClientActive::FirstTriple(void)
	?FirstTriple@PRDataClientIdle@PRDataClientIdleActivity@@SAABUTStateTriple@NetStateMachine@@XZ @ 522 NONAME ; struct NetStateMachine::TStateTriple const & PRDataClientIdleActivity::PRDataClientIdle::FirstTriple(void)
	?FirstTriple@PRDataClientJoin@PRDataClientJoinActivity@@SAABUTStateTriple@NetStateMachine@@XZ @ 523 NONAME ; struct NetStateMachine::TStateTriple const & PRDataClientJoinActivity::PRDataClientJoin::FirstTriple(void)
	?ForwardMessageL@TCFItfExt@ESock@@IAEXAAVTCFESockSignalBase@2@AAVMCFNode@2@HH@Z @ 524 NONAME ; void ESock::TCFItfExt::ForwardMessageL(class ESock::TCFESockSignalBase &, class ESock::MCFNode &, int, int)
	?Get16@BigEndian@@SAGPBE@Z @ 525 NONAME ; unsigned short BigEndian::Get16(unsigned char const *)
	?Get16@LittleEndian@@SAGPBE@Z @ 526 NONAME ; unsigned short LittleEndian::Get16(unsigned char const *)
	?Get32@BigEndian@@SAKPBE@Z @ 527 NONAME ; unsigned long BigEndian::Get32(unsigned char const *)
	?Get32@LittleEndian@@SAKPBE@Z @ 528 NONAME ; unsigned long LittleEndian::Get32(unsigned char const *)
	?Get@SockManGlobals@@SAPAVCSockManData@@XZ @ 529 NONAME ; class CSockManData * SockManGlobals::Get(void)
	?Get@TConnIdList@@QBEHH@Z @ 530 NONAME ; int TConnIdList::Get(int) const
	?GetAccessPointConfig@CMMCommsProviderBase@ESock@@EBEABVCAccessPointConfig@2@XZ @ 531 NONAME ; class ESock::CAccessPointConfig const & ESock::CMMCommsProviderBase::GetAccessPointConfig(void) const
	?GetAttribPtr@CAccessPointConfig@ESock@@UBEPAEH@Z @ 532 NONAME ; unsigned char * ESock::CAccessPointConfig::GetAttribPtr(int) const
	?GetAttribPtr@CConfigAccessPointConfig@ESock@@UBEPAEH@Z @ 533 NONAME ; unsigned char * ESock::CConfigAccessPointConfig::GetAttribPtr(int) const
	?GetAttribPtr@TBinderConfig4@@UBEPAEH@Z @ 534 NONAME ; unsigned char * TBinderConfig4::GetAttribPtr(int) const
	?GetAttribPtr@TBinderConfig6@@UBEPAEH@Z @ 535 NONAME ; unsigned char * TBinderConfig6::GetAttribPtr(int) const
	?GetAttribPtr@TCFDeregisterMessageHook@ESock@@UBEPAEH@Z @ 536 NONAME ; unsigned char * ESock::TCFDeregisterMessageHook::GetAttribPtr(int) const
	?GetAttribPtr@TCFESockSignalBase@ESock@@UBEPAEH@Z @ 537 NONAME ; unsigned char * ESock::TCFESockSignalBase::GetAttribPtr(int) const
	?GetAttribPtr@TCFFlowRequestBase@ESock@@MBEPAEH@Z @ 538 NONAME ; unsigned char * ESock::TCFFlowRequestBase::GetAttribPtr(int) const
	?GetAttribPtr@TCFNodeSignalBase@ESock@@UBEPAEH@Z @ 539 NONAME ; unsigned char * ESock::TCFNodeSignalBase::GetAttribPtr(int) const
	?GetAttribPtr@TCFRegisterMessageHook@ESock@@UBEPAEH@Z @ 540 NONAME ; unsigned char * ESock::TCFRegisterMessageHook::GetAttribPtr(int) const
	?GetAttribPtr@TCFSigRMessage2Ext@ESock@@UBEPAEH@Z @ 541 NONAME ; unsigned char * ESock::TCFSigRMessage2Ext::GetAttribPtr(int) const
	?GetAttribPtr@TCFSignatureBase@ESock@@UBEPAEH@Z @ 542 NONAME ; unsigned char * ESock::TCFSignatureBase::GetAttribPtr(int) const
	?GetAttribPtr@TDataMonitoringConnProvisioningInfo@ESock@@UBEPAEH@Z @ 543 NONAME ; unsigned char * ESock::TDataMonitoringConnProvisioningInfo::GetAttribPtr(int) const
	?GetAttribPtr@TDataMonitoringProvisioningInfoBase@ESock@@UBEPAEH@Z @ 544 NONAME ; unsigned char * ESock::TDataMonitoringProvisioningInfoBase::GetAttribPtr(int) const
	?GetAttribPtr@TDataMonitoringSubConnProvisioningInfo@ESock@@UBEPAEH@Z @ 545 NONAME ; unsigned char * ESock::TDataMonitoringSubConnProvisioningInfo::GetAttribPtr(int) const
	?GetAttribPtr@TDeferredSelectionPrefsExt@ESock@@UBEPAEH@Z @ 546 NONAME ; unsigned char * ESock::TDeferredSelectionPrefsExt::GetAttribPtr(int) const
	?GetAttribPtr@TGetOrSetParameters@ESock@@UBEPAEH@Z @ 547 NONAME ; unsigned char * ESock::TGetOrSetParameters::GetAttribPtr(int) const
	?GetAttribPtr@TOverridenSelectionPrefsExt@ESock@@UBEPAEH@Z @ 548 NONAME ; unsigned char * ESock::TOverridenSelectionPrefsExt::GetAttribPtr(int) const
	?GetAttribPtr@TSafeMessageCarrierBase@ESock@@MBEPAEH@Z @ 549 NONAME ; unsigned char * ESock::TSafeMessageCarrierBase::GetAttribPtr(int) const
	?GetAttribPtr@TSafeRequestCarrierEast@ESock@@MBEPAEH@Z @ 550 NONAME ; unsigned char * ESock::TSafeRequestCarrierEast::GetAttribPtr(int) const
	?GetAttribPtr@TSafeResponseCarrierWest@ESock@@MBEPAEH@Z @ 551 NONAME ; unsigned char * ESock::TSafeResponseCarrierWest::GetAttribPtr(int) const
	?GetAttribPtr@TSelectionPrefs@ESock@@UBEPAEH@Z @ 552 NONAME ; unsigned char * ESock::TSelectionPrefs::GetAttribPtr(int) const
	?GetAttribPtr@TSigAddrUpdate@ESock@@UBEPAEH@Z @ 553 NONAME ; unsigned char * ESock::TSigAddrUpdate::GetAttribPtr(int) const
	?GetAttribPtr@TSigAny@ESock@@UBEPAEH@Z @ 554 NONAME ; unsigned char * ESock::TSigAny::GetAttribPtr(int) const
	?GetAttribPtr@TSigAnyNumber@ESock@@UBEPAEH@Z @ 555 NONAME ; unsigned char * ESock::TSigAnyNumber::GetAttribPtr(int) const
	?GetAttribPtr@TSigAvailabilityStatus@ESock@@UBEPAEH@Z @ 556 NONAME ; unsigned char * ESock::TSigAvailabilityStatus::GetAttribPtr(int) const
	?GetAttribPtr@TSigAvailabilitySubscriptionOptions@ESock@@UBEPAEH@Z @ 557 NONAME ; unsigned char * ESock::TSigAvailabilitySubscriptionOptions::GetAttribPtr(int) const
	?GetAttribPtr@TSigBundle@ESock@@UBEPAEH@Z @ 558 NONAME ; unsigned char * ESock::TSigBundle::GetAttribPtr(int) const
	?GetAttribPtr@TSigBundleRMessage2@ESock@@UBEPAEH@Z @ 559 NONAME ; unsigned char * ESock::TSigBundleRMessage2::GetAttribPtr(int) const
	?GetAttribPtr@TSigCommsBinder@ESock@@UBEPAEH@Z @ 560 NONAME ; unsigned char * ESock::TSigCommsBinder::GetAttribPtr(int) const
	?GetAttribPtr@TSigCommsBinderMetaDataPtrNumber@ESock@@UBEPAEH@Z @ 561 NONAME ; unsigned char * ESock::TSigCommsBinderMetaDataPtrNumber::GetAttribPtr(int) const
	?GetAttribPtr@TSigCommsBinderNumber@ESock@@UBEPAEH@Z @ 562 NONAME ; unsigned char * ESock::TSigCommsBinderNumber::GetAttribPtr(int) const
	?GetAttribPtr@TSigCommsId@ESock@@UBEPAEH@Z @ 563 NONAME ; unsigned char * ESock::TSigCommsId::GetAttribPtr(int) const
	?GetAttribPtr@TSigCommsIdAny@ESock@@UBEPAEH@Z @ 564 NONAME ; unsigned char * ESock::TSigCommsIdAny::GetAttribPtr(int) const
	?GetAttribPtr@TSigCommsIdCommsId@ESock@@UBEPAEH@Z @ 565 NONAME ; unsigned char * ESock::TSigCommsIdCommsId::GetAttribPtr(int) const
	?GetAttribPtr@TSigCommsIdCommsIdNumber@ESock@@UBEPAEH@Z @ 566 NONAME ; unsigned char * ESock::TSigCommsIdCommsIdNumber::GetAttribPtr(int) const
	?GetAttribPtr@TSigCommsIdNumber@ESock@@UBEPAEH@Z @ 567 NONAME ; unsigned char * ESock::TSigCommsIdNumber::GetAttribPtr(int) const
	?GetAttribPtr@TSigCommsIdNumberNumber@ESock@@UBEPAEH@Z @ 568 NONAME ; unsigned char * ESock::TSigCommsIdNumberNumber::GetAttribPtr(int) const
	?GetAttribPtr@TSigConnectionInfo@ESock@@UBEPAEH@Z @ 569 NONAME ; unsigned char * ESock::TSigConnectionInfo::GetAttribPtr(int) const
	?GetAttribPtr@TSigErrContext@ESock@@UBEPAEH@Z @ 570 NONAME ; unsigned char * ESock::TSigErrContext::GetAttribPtr(int) const
	?GetAttribPtr@TSigErrResponse@ESock@@UBEPAEH@Z @ 571 NONAME ; unsigned char * ESock::TSigErrResponse::GetAttribPtr(int) const
	?GetAttribPtr@TSigFactoryObjectParams@ESock@@UBEPAEH@Z @ 572 NONAME ; unsigned char * ESock::TSigFactoryObjectParams::GetAttribPtr(int) const
	?GetAttribPtr@TSigMessageIdNumber@ESock@@UBEPAEH@Z @ 573 NONAME ; unsigned char * ESock::TSigMessageIdNumber::GetAttribPtr(int) const
	?GetAttribPtr@TSigMetaDataPtr@ESock@@UBEPAEH@Z @ 574 NONAME ; unsigned char * ESock::TSigMetaDataPtr::GetAttribPtr(int) const
	?GetAttribPtr@TSigNumber@ESock@@UBEPAEH@Z @ 575 NONAME ; unsigned char * ESock::TSigNumber::GetAttribPtr(int) const
	?GetAttribPtr@TSigNumberNumber@ESock@@UBEPAEH@Z @ 576 NONAME ; unsigned char * ESock::TSigNumberNumber::GetAttribPtr(int) const
	?GetAttribPtr@TSigNumberNumberNumber@ESock@@UBEPAEH@Z @ 577 NONAME ; unsigned char * ESock::TSigNumberNumberNumber::GetAttribPtr(int) const
	?GetAttribPtr@TSigNumberNumberNumberNumber@ESock@@UBEPAEH@Z @ 578 NONAME ; unsigned char * ESock::TSigNumberNumberNumberNumber::GetAttribPtr(int) const
	?GetAttribPtr@TSigNumberRMessage2@ESock@@UBEPAEH@Z @ 579 NONAME ; unsigned char * ESock::TSigNumberRMessage2::GetAttribPtr(int) const
	?GetAttribPtr@TSigProvisionConfig@ESock@@UBEPAEH@Z @ 580 NONAME ; unsigned char * ESock::TSigProvisionConfig::GetAttribPtr(int) const
	?GetAttribPtr@TSigRMessage2@ESock@@UBEPAEH@Z @ 581 NONAME ; unsigned char * ESock::TSigRMessage2::GetAttribPtr(int) const
	?GetAttribPtr@TSigSelectComplete@ESock@@UBEPAEH@Z @ 582 NONAME ; unsigned char * ESock::TSigSelectComplete::GetAttribPtr(int) const
	?GetAttribPtr@TSigSelectionPrefs@ESock@@UBEPAEH@Z @ 583 NONAME ; unsigned char * ESock::TSigSelectionPrefs::GetAttribPtr(int) const
	?GetAttribPtr@TSigStateChange@ESock@@UBEPAEH@Z @ 584 NONAME ; unsigned char * ESock::TSigStateChange::GetAttribPtr(int) const
	?GetAttribPtr@TSigSubConNotification@ESock@@UBEPAEH@Z @ 585 NONAME ; unsigned char * ESock::TSigSubConNotification::GetAttribPtr(int) const
	?GetAttribPtr@TSigSubConnClosedEvent@ESock@@UBEPAEH@Z @ 586 NONAME ; unsigned char * ESock::TSigSubConnClosedEvent::GetAttribPtr(int) const
	?GetAttribPtr@TSigSubConnOpenedEvent@ESock@@UBEPAEH@Z @ 587 NONAME ; unsigned char * ESock::TSigSubConnOpenedEvent::GetAttribPtr(int) const
	?GetAttribPtr@TSigSubConnParams@ESock@@UBEPAEH@Z @ 588 NONAME ; unsigned char * ESock::TSigSubConnParams::GetAttribPtr(int) const
	?GetAttribPtr@TSigUid@ESock@@UBEPAEH@Z @ 589 NONAME ; unsigned char * ESock::TSigUid::GetAttribPtr(int) const
	?GetAttribPtr@TTransportHookError@ESock@@UBEPAEH@Z @ 590 NONAME ; unsigned char * ESock::TTransportHookError::GetAttribPtr(int) const
	?GetAttribPtr@XCommsDataObject@ESock@@MBEPAEH@Z @ 591 NONAME ; unsigned char * ESock::XCommsDataObject::GetAttribPtr(int) const
	?GetBearerTableType@CCommsDatIapView@ESock@@QBEKXZ @ 592 NONAME ; unsigned long ESock::CCommsDatIapView::GetBearerTableType(void) const
	?GetBinderControlL@CSubConnectionFlowBase@ESock@@QAEPAVMFlowBinderControl@2@XZ @ 593 NONAME ; class ESock::MFlowBinderControl * ESock::CSubConnectionFlowBase::GetBinderControlL(void)
	?GetBool@CCommsDatIapView@ESock@@QAEHKAAH@Z @ 594 NONAME ; int ESock::CCommsDatIapView::GetBool(unsigned long, int &)
	?GetBoolL@CCommsDatIapView@ESock@@QAEXKAAH@Z @ 595 NONAME ; void ESock::CCommsDatIapView::GetBoolL(unsigned long, int &)
	?GetBoolSetting@RConnection@@QAEHABVTDesC16@@AAH@Z @ 596 NONAME ; int RConnection::GetBoolSetting(class TDesC16 const &, int &)
	?GetBoolSettingL@CConnectionProvdBase@@QAEXABVTDesC16@@AAH@Z @ 597 NONAME ; void CConnectionProvdBase::GetBoolSettingL(class TDesC16 const &, int &)
	?GetBoolSettingL@CConnectionProvdBase@@QAEXABVTDesC16@@AAHPBVRMessagePtr2@@@Z @ 598 NONAME ; void CConnectionProvdBase::GetBoolSettingL(class TDesC16 const &, int &, class RMessagePtr2 const *)
	?GetBoolSettingL@CConnectionSettings@@QAEXABVTDesC16@@AAHPBVRMessagePtr2@@@Z @ 599 NONAME ; void CConnectionSettings::GetBoolSettingL(class TDesC16 const &, int &, class RMessagePtr2 const *)
	?GetByAddress@RHostResolver@@QAEHABVTSockAddr@@AAV?$TPckgBuf@VTNameRecord@@@@@Z @ 600 NONAME ; int RHostResolver::GetByAddress(class TSockAddr const &, class TPckgBuf<class TNameRecord> &)
	?GetByAddress@RHostResolver@@QAEXABVTSockAddr@@AAV?$TPckgBuf@VTNameRecord@@@@AAVTRequestStatus@@@Z @ 601 NONAME ; void RHostResolver::GetByAddress(class TSockAddr const &, class TPckgBuf<class TNameRecord> &, class TRequestStatus &)
	?GetByName@RHostResolver@@QAEHABVTDesC16@@AAV?$TPckgBuf@VTNameRecord@@@@@Z @ 602 NONAME ; int RHostResolver::GetByName(class TDesC16 const &, class TPckgBuf<class TNameRecord> &)
	?GetByName@RHostResolver@@QAEXABVTDesC16@@AAV?$TPckgBuf@VTNameRecord@@@@AAVTRequestStatus@@@Z @ 603 NONAME ; void RHostResolver::GetByName(class TDesC16 const &, class TPckgBuf<class TNameRecord> &, class TRequestStatus &)
	?GetByName@RServiceResolver@@QAEHABVTDesC16@@AAV?$TPckgBuf@H@@@Z @ 604 NONAME ; int RServiceResolver::GetByName(class TDesC16 const &, class TPckgBuf<int> &)
	?GetByName@RServiceResolver@@QAEXABVTDesC16@@AAV?$TPckgBuf@H@@AAVTRequestStatus@@@Z @ 605 NONAME ; void RServiceResolver::GetByName(class TDesC16 const &, class TPckgBuf<int> &, class TRequestStatus &)
	?GetByNumber@RServiceResolver@@QAEHIAAVTDes16@@@Z @ 606 NONAME ; int RServiceResolver::GetByNumber(unsigned int, class TDes16 &)
	?GetByNumber@RServiceResolver@@QAEXIAAVTDes16@@AAVTRequestStatus@@@Z @ 607 NONAME ; void RServiceResolver::GetByNumber(unsigned int, class TDes16 &, class TRequestStatus &)
	?GetConfig@MLowerControl@ESock@@UAEHAAVTBinderConfig@@@Z @ 608 NONAME ; int ESock::MLowerControl::GetConfig(class TBinderConfig &)
	?GetConnectionAttemptsL@TierManagerUtils@ESock@@SAIAAVCMDBSession@CommsDat@@@Z @ 609 NONAME ; unsigned int ESock::TierManagerUtils::GetConnectionAttemptsL(class CommsDat::CMDBSession &)
	?GetConnectionInfo@RConnection@@QAEHIAAVTDes8@@@Z @ 610 NONAME ; int RConnection::GetConnectionInfo(unsigned int, class TDes8 &)
	?GetControlL@MFlowBinderControl@ESock@@UAEPAVMLowerControl@2@ABVTDesC8@@@Z @ 611 NONAME ; class ESock::MLowerControl * ESock::MFlowBinderControl::GetControlL(class TDesC8 const &)
	?GetControlL@MFlowBinderControl@ESock@@UAEPAVMSessionControl@2@HAAVMSessionControlNotify@2@@Z @ 612 NONAME ; class ESock::MSessionControl * ESock::MFlowBinderControl::GetControlL(int, class ESock::MSessionControlNotify &)
	?GetData@CServProviderBase@@UAEHAAVRMBufChain@@IIPAVTSockAddr@@@Z @ 613 NONAME ; int CServProviderBase::GetData(class RMBufChain &, unsigned int, unsigned int, class TSockAddr *)
	?GetData@CServProviderBase@@UAEXAAVTDes8@@IPAVTSockAddr@@@Z @ 614 NONAME ; void CServProviderBase::GetData(class TDes8 &, unsigned int, class TSockAddr *)
	?GetDes16SettingL@CConnectionProvdBase@@QAEXABVTDesC16@@AAVTDes16@@@Z @ 615 NONAME ; void CConnectionProvdBase::GetDes16SettingL(class TDesC16 const &, class TDes16 &)
	?GetDes16SettingL@CConnectionProvdBase@@QAEXABVTDesC16@@AAVTDes16@@PBVRMessagePtr2@@@Z @ 616 NONAME ; void CConnectionProvdBase::GetDes16SettingL(class TDesC16 const &, class TDes16 &, class RMessagePtr2 const *)
	?GetDes16SettingL@CConnectionSettings@@QAEXABVTDesC16@@AAVTDes16@@PBVRMessagePtr2@@@Z @ 617 NONAME ; void CConnectionSettings::GetDes16SettingL(class TDesC16 const &, class TDes16 &, class RMessagePtr2 const *)
	?GetDes8SettingL@CConnectionProvdBase@@QAEXABVTDesC16@@AAVTDes8@@@Z @ 618 NONAME ; void CConnectionProvdBase::GetDes8SettingL(class TDesC16 const &, class TDes8 &)
	?GetDes8SettingL@CConnectionProvdBase@@QAEXABVTDesC16@@AAVTDes8@@PBVRMessagePtr2@@@Z @ 619 NONAME ; void CConnectionProvdBase::GetDes8SettingL(class TDesC16 const &, class TDes8 &, class RMessagePtr2 const *)
	?GetDes8SettingL@CConnectionSettings@@QAEXABVTDesC16@@AAVTDes8@@PBVRMessagePtr2@@@Z @ 620 NONAME ; void CConnectionSettings::GetDes8SettingL(class TDesC16 const &, class TDes8 &, class RMessagePtr2 const *)
	?GetDesSetting@RConnection@@QAEHABVTDesC16@@AAVTDes16@@@Z @ 621 NONAME ; int RConnection::GetDesSetting(class TDesC16 const &, class TDes16 &)
	?GetDesSetting@RConnection@@QAEHABVTDesC16@@AAVTDes8@@@Z @ 622 NONAME ; int RConnection::GetDesSetting(class TDesC16 const &, class TDes8 &)
	?GetDisconnectData@RSocket@@QAEHAAVTDes8@@@Z @ 623 NONAME ; int RSocket::GetDisconnectData(class TDes8 &)
	?GetGenericSet@CSubConParameterFamily@@QAEPAVCSubConGenericParameterSet@@W4TParameterSetType@1@@Z @ 624 NONAME ; class CSubConGenericParameterSet * CSubConParameterFamily::GetGenericSet(enum CSubConParameterFamily::TParameterSetType)
	?GetHostName@RHostResolver@@QAEHAAVTDes16@@@Z @ 625 NONAME ; int RHostResolver::GetHostName(class TDes16 &)
	?GetHostName@RHostResolver@@QAEXAAVTDes16@@AAVTRequestStatus@@@Z @ 626 NONAME ; void RHostResolver::GetHostName(class TDes16 &, class TRequestStatus &)
	?GetInt@CCommsDatIapView@ESock@@QAEHKAAH@Z @ 627 NONAME ; int ESock::CCommsDatIapView::GetInt(unsigned long, int &)
	?GetInt@CCommsDatIapView@ESock@@QAEHKAAK@Z @ 628 NONAME ; int ESock::CCommsDatIapView::GetInt(unsigned long, unsigned long &)
	?GetIntL@CCommsDatIapView@ESock@@QAEXKAAH@Z @ 629 NONAME ; void ESock::CCommsDatIapView::GetIntL(unsigned long, int &)
	?GetIntL@CCommsDatIapView@ESock@@QAEXKAAK@Z @ 630 NONAME ; void ESock::CCommsDatIapView::GetIntL(unsigned long, unsigned long &)
	?GetIntSetting@RConnection@@QAEHABVTDesC16@@AAK@Z @ 631 NONAME ; int RConnection::GetIntSetting(class TDesC16 const &, unsigned long &)
	?GetIntSettingL@CConnectionProvdBase@@QAEXABVTDesC16@@AAK@Z @ 632 NONAME ; void CConnectionProvdBase::GetIntSettingL(class TDesC16 const &, unsigned long &)
	?GetIntSettingL@CConnectionProvdBase@@QAEXABVTDesC16@@AAKPBVRMessagePtr2@@@Z @ 633 NONAME ; void CConnectionProvdBase::GetIntSettingL(class TDesC16 const &, unsigned long &, class RMessagePtr2 const *)
	?GetIntSettingL@CConnectionSettings@@QAEXABVTDesC16@@AAKPBVRMessagePtr2@@@Z @ 634 NONAME ; void CConnectionSettings::GetIntSettingL(class TDesC16 const &, unsigned long &, class RMessagePtr2 const *)
	?GetLayerCount@CConfigAccessPointConfig@ESock@@QBEIXZ @ 635 NONAME ; unsigned int ESock::CConfigAccessPointConfig::GetLayerCount(void) const
	?GetLayerL@CConfigAccessPointConfig@ESock@@QBEABVTConfigAccessPointLayer@2@I@Z @ 636 NONAME ; class ESock::TConfigAccessPointLayer const & ESock::CConfigAccessPointConfig::GetLayerL(unsigned int) const
	?GetLongDesSetting@RConnection@@QAEHABVTDesC16@@AAVTDes16@@@Z @ 637 NONAME ; int RConnection::GetLongDesSetting(class TDesC16 const &, class TDes16 &)
	?GetLongDesSettingLC@CConnectionProvdBase@@QAEPAVHBufC16@@ABVTDesC16@@@Z @ 638 NONAME ; class HBufC16 * CConnectionProvdBase::GetLongDesSettingLC(class TDesC16 const &)
	?GetLongDesSettingLC@CConnectionProvdBase@@QAEPAVHBufC16@@ABVTDesC16@@PBVRMessagePtr2@@@Z @ 639 NONAME ; class HBufC16 * CConnectionProvdBase::GetLongDesSettingLC(class TDesC16 const &, class RMessagePtr2 const *)
	?GetLongDesSettingLC@CConnectionSettings@@QAEPAVHBufC16@@ABVTDesC16@@PBVRMessagePtr2@@@Z @ 640 NONAME ; class HBufC16 * CConnectionSettings::GetLongDesSettingLC(class TDesC16 const &, class RMessagePtr2 const *)
	?GetName@MLowerControl@ESock@@UAEHAAVTDes16@@@Z @ 641 NONAME ; int ESock::MLowerControl::GetName(class TDes16 &)
	?GetNextActivityCountL@CCFNodeParallelActivityBase@ESock@@KAIABUTCFNodeActivity@2@ABVACFNodeBase@2@@Z @ 642 NONAME ; unsigned int ESock::CCFNodeParallelActivityBase::GetNextActivityCountL(struct ESock::TCFNodeActivity const &, class ESock::ACFNodeBase const &)
	?GetOpt@RConnection@@QAEHIIAAH@Z @ 643 NONAME ; int RConnection::GetOpt(unsigned int, unsigned int, int &)
	?GetOpt@RSocket@@QAEHIIAAH@Z @ 644 NONAME ; int RSocket::GetOpt(unsigned int, unsigned int, int &)
	?GetOpt@RSocket@@QAEHIIAAVTDes8@@@Z @ 645 NONAME ; int RSocket::GetOpt(unsigned int, unsigned int, class TDes8 &)
	?GetOption@CProtocolBase@@UAEHIIAAVTDes8@@PAV1@@Z @ 646 NONAME ; int CProtocolBase::GetOption(unsigned int, unsigned int, class TDes8 &, class CProtocolBase *)
	?GetOriginator@CNoBearer@PRActivities@@QAEAAVRNodeInterface@ESock@@XZ @ 647 NONAME ; class ESock::RNodeInterface & PRActivities::CNoBearer::GetOriginator(void)
	?GetOwnerInfo@CSockSubSession@@QBEXAAVTProcessId@@AAVTUidType@@AAVTThreadId@@@Z @ 648 NONAME ; void CSockSubSession::GetOwnerInfo(class TProcessId &, class TUidType &, class TThreadId &) const
	?GetParamSetContainer@CParameterBundleBase@@QAEPAVCParameterSetContainer@@H@Z @ 649 NONAME ; class CParameterSetContainer * CParameterBundleBase::GetParamSetContainer(int)
	?GetParameterSet@CParameterSetContainer@@QAEPAVXParameterSet@@H@Z @ 650 NONAME ; class XParameterSet * CParameterSetContainer::GetParameterSet(int)
	?GetParameterSetsToReturnL@CConnectionServParameterBundle@ConnectionServ@@QBEABV?$RArray@USTypeId@Meta@@@@XZ @ 651 NONAME ; class RArray<struct Meta::STypeId> const & ConnectionServ::CConnectionServParameterBundle::GetParameterSetsToReturnL(void) const
	?GetParameters@RConnection@@QAEHAAVCCommsDataObjectBase@ESock@@@Z @ 652 NONAME ; int RConnection::GetParameters(class ESock::CCommsDataObjectBase &)
	?GetParameters@RSubConnection@@QAEHAAVRSubConParameterBundle@@@Z @ 653 NONAME ; int RSubConnection::GetParameters(class RSubConParameterBundle &)
	?GetPlaneFC@CSockManData@@QAE?AUTCommsId@ESock@@KH@Z @ 654 NONAME ; struct ESock::TCommsId CSockManData::GetPlaneFC(unsigned long, int)
	?GetProtocolInfo@RSocketServ@@QAEHIAAUTProtocolDesc@@@Z @ 655 NONAME ; int RSocketServ::GetProtocolInfo(unsigned int, struct TProtocolDesc &)
	?GetServiceTableType@CCommsDatIapView@ESock@@QBEKXZ @ 656 NONAME ; unsigned long ESock::CCommsDatIapView::GetServiceTableType(void) const
	?GetSubConnectionInfo@RConnection@@QAEHAAVTDes8@@@Z @ 657 NONAME ; int RConnection::GetSubConnectionInfo(class TDes8 &)
	?GetSubConnectionInfo@RConnection@@QAEHIAAVTDes8@@@Z @ 658 NONAME ; int RConnection::GetSubConnectionInfo(unsigned int, class TDes8 &)
	?GetTableCommonTextFieldL@CCommsDatIapView@ESock@@QAEXW4TFieldId@12@AAPAVHBufC16@@@Z @ 659 NONAME ; void ESock::CCommsDatIapView::GetTableCommonTextFieldL(enum ESock::CCommsDatIapView::TFieldId, class HBufC16 * &)
	?GetText@CCommsDatIapView@ESock@@QAEHKAAPAVHBufC16@@@Z @ 660 NONAME ; int ESock::CCommsDatIapView::GetText(unsigned long, class HBufC16 * &)
	?GetText@CCommsDatIapView@ESock@@QAEHKAAPAVHBufC8@@@Z @ 661 NONAME ; int ESock::CCommsDatIapView::GetText(unsigned long, class HBufC8 * &)
	?GetTextL@CCommsDatIapView@ESock@@QAEXKAAPAVHBufC16@@@Z @ 662 NONAME ; void ESock::CCommsDatIapView::GetTextL(unsigned long, class HBufC16 * &)
	?GetTextL@CCommsDatIapView@ESock@@QAEXKAAPAVHBufC8@@@Z @ 663 NONAME ; void ESock::CCommsDatIapView::GetTextL(unsigned long, class HBufC8 * &)
	?GetTimeoutValuesL@CCommsDatIapView@ESock@@QAEXAAK00@Z @ 664 NONAME ; void ESock::CCommsDatIapView::GetTimeoutValuesL(unsigned long &, unsigned long &, unsigned long &)
	?GetTopLayersL@CConfigAccessPointConfig@ESock@@QBEXVTUid@@AAV?$RPointerArray@VTConfigAccessPointLayer@ESock@@@@@Z @ 665 NONAME ; void ESock::CConfigAccessPointConfig::GetTopLayersL(class TUid, class RPointerArray<class ESock::TConfigAccessPointLayer> &) const
	?GetUserLen@TConnPref@@QAEHXZ @ 666 NONAME ; int TConnPref::GetUserLen(void)
	?GetUserLen@TSockAddr@@QAEHXZ @ 667 NONAME ; int TSockAddr::GetUserLen(void)
	?GetVDataTable@CAccessPointConfig@ESock@@UBEPBUSVDataTableEntry@Meta@@XZ @ 668 NONAME ; struct Meta::SVDataTableEntry const * ESock::CAccessPointConfig::GetVDataTable(void) const
	?GetVDataTable@CConfigAccessPointConfig@ESock@@UBEPBUSVDataTableEntry@Meta@@XZ @ 669 NONAME ; struct Meta::SVDataTableEntry const * ESock::CConfigAccessPointConfig::GetVDataTable(void) const
	?GetVDataTable@TBinderConfig4@@UBEPBUSVDataTableEntry@Meta@@XZ @ 670 NONAME ; struct Meta::SVDataTableEntry const * TBinderConfig4::GetVDataTable(void) const
	?GetVDataTable@TBinderConfig6@@UBEPBUSVDataTableEntry@Meta@@XZ @ 671 NONAME ; struct Meta::SVDataTableEntry const * TBinderConfig6::GetVDataTable(void) const
	?GetVDataTable@TCFDeregisterMessageHook@ESock@@UBEPBUSVDataTableEntry@Meta@@XZ @ 672 NONAME ; struct Meta::SVDataTableEntry const * ESock::TCFDeregisterMessageHook::GetVDataTable(void) const
	?GetVDataTable@TCFESockSignalBase@ESock@@UBEPBUSVDataTableEntry@Meta@@XZ @ 673 NONAME ; struct Meta::SVDataTableEntry const * ESock::TCFESockSignalBase::GetVDataTable(void) const
	?GetVDataTable@TCFFlowRequestBase@ESock@@MBEPBUSVDataTableEntry@Meta@@XZ @ 674 NONAME ; struct Meta::SVDataTableEntry const * ESock::TCFFlowRequestBase::GetVDataTable(void) const
	?GetVDataTable@TCFNodeSignalBase@ESock@@UBEPBUSVDataTableEntry@Meta@@XZ @ 675 NONAME ; struct Meta::SVDataTableEntry const * ESock::TCFNodeSignalBase::GetVDataTable(void) const
	?GetVDataTable@TCFRegisterMessageHook@ESock@@UBEPBUSVDataTableEntry@Meta@@XZ @ 676 NONAME ; struct Meta::SVDataTableEntry const * ESock::TCFRegisterMessageHook::GetVDataTable(void) const
	?GetVDataTable@TCFSigRMessage2Ext@ESock@@UBEPBUSVDataTableEntry@Meta@@XZ @ 677 NONAME ; struct Meta::SVDataTableEntry const * ESock::TCFSigRMessage2Ext::GetVDataTable(void) const
	?GetVDataTable@TCFSignatureBase@ESock@@UBEPBUSVDataTableEntry@Meta@@XZ @ 678 NONAME ; struct Meta::SVDataTableEntry const * ESock::TCFSignatureBase::GetVDataTable(void) const
	?GetVDataTable@TDataMonitoringConnProvisioningInfo@ESock@@UBEPBUSVDataTableEntry@Meta@@XZ @ 679 NONAME ; struct Meta::SVDataTableEntry const * ESock::TDataMonitoringConnProvisioningInfo::GetVDataTable(void) const
	?GetVDataTable@TDataMonitoringProvisioningInfoBase@ESock@@UBEPBUSVDataTableEntry@Meta@@XZ @ 680 NONAME ; struct Meta::SVDataTableEntry const * ESock::TDataMonitoringProvisioningInfoBase::GetVDataTable(void) const
	?GetVDataTable@TDataMonitoringSubConnProvisioningInfo@ESock@@UBEPBUSVDataTableEntry@Meta@@XZ @ 681 NONAME ; struct Meta::SVDataTableEntry const * ESock::TDataMonitoringSubConnProvisioningInfo::GetVDataTable(void) const
	?GetVDataTable@TDeferredSelectionPrefsExt@ESock@@UBEPBUSVDataTableEntry@Meta@@XZ @ 682 NONAME ; struct Meta::SVDataTableEntry const * ESock::TDeferredSelectionPrefsExt::GetVDataTable(void) const
	?GetVDataTable@TGetOrSetParameters@ESock@@UBEPBUSVDataTableEntry@Meta@@XZ @ 683 NONAME ; struct Meta::SVDataTableEntry const * ESock::TGetOrSetParameters::GetVDataTable(void) const
	?GetVDataTable@TOverridenSelectionPrefsExt@ESock@@UBEPBUSVDataTableEntry@Meta@@XZ @ 684 NONAME ; struct Meta::SVDataTableEntry const * ESock::TOverridenSelectionPrefsExt::GetVDataTable(void) const
	?GetVDataTable@TSafeMessageCarrierBase@ESock@@MBEPBUSVDataTableEntry@Meta@@XZ @ 685 NONAME ; struct Meta::SVDataTableEntry const * ESock::TSafeMessageCarrierBase::GetVDataTable(void) const
	?GetVDataTable@TSafeRequestCarrierEast@ESock@@MBEPBUSVDataTableEntry@Meta@@XZ @ 686 NONAME ; struct Meta::SVDataTableEntry const * ESock::TSafeRequestCarrierEast::GetVDataTable(void) const
	?GetVDataTable@TSafeResponseCarrierWest@ESock@@MBEPBUSVDataTableEntry@Meta@@XZ @ 687 NONAME ; struct Meta::SVDataTableEntry const * ESock::TSafeResponseCarrierWest::GetVDataTable(void) const
	?GetVDataTable@TSelectionPrefs@ESock@@UBEPBUSVDataTableEntry@Meta@@XZ @ 688 NONAME ; struct Meta::SVDataTableEntry const * ESock::TSelectionPrefs::GetVDataTable(void) const
	?GetVDataTable@TSigAddrUpdate@ESock@@UBEPBUSVDataTableEntry@Meta@@XZ @ 689 NONAME ; struct Meta::SVDataTableEntry const * ESock::TSigAddrUpdate::GetVDataTable(void) const
	?GetVDataTable@TSigAny@ESock@@UBEPBUSVDataTableEntry@Meta@@XZ @ 690 NONAME ; struct Meta::SVDataTableEntry const * ESock::TSigAny::GetVDataTable(void) const
	?GetVDataTable@TSigAnyNumber@ESock@@UBEPBUSVDataTableEntry@Meta@@XZ @ 691 NONAME ; struct Meta::SVDataTableEntry const * ESock::TSigAnyNumber::GetVDataTable(void) const
	?GetVDataTable@TSigAvailabilityStatus@ESock@@UBEPBUSVDataTableEntry@Meta@@XZ @ 692 NONAME ; struct Meta::SVDataTableEntry const * ESock::TSigAvailabilityStatus::GetVDataTable(void) const
	?GetVDataTable@TSigAvailabilitySubscriptionOptions@ESock@@UBEPBUSVDataTableEntry@Meta@@XZ @ 693 NONAME ; struct Meta::SVDataTableEntry const * ESock::TSigAvailabilitySubscriptionOptions::GetVDataTable(void) const
	?GetVDataTable@TSigBundle@ESock@@UBEPBUSVDataTableEntry@Meta@@XZ @ 694 NONAME ; struct Meta::SVDataTableEntry const * ESock::TSigBundle::GetVDataTable(void) const
	?GetVDataTable@TSigBundleRMessage2@ESock@@UBEPBUSVDataTableEntry@Meta@@XZ @ 695 NONAME ; struct Meta::SVDataTableEntry const * ESock::TSigBundleRMessage2::GetVDataTable(void) const
	?GetVDataTable@TSigCommsBinder@ESock@@UBEPBUSVDataTableEntry@Meta@@XZ @ 696 NONAME ; struct Meta::SVDataTableEntry const * ESock::TSigCommsBinder::GetVDataTable(void) const
	?GetVDataTable@TSigCommsBinderMetaDataPtrNumber@ESock@@UBEPBUSVDataTableEntry@Meta@@XZ @ 697 NONAME ; struct Meta::SVDataTableEntry const * ESock::TSigCommsBinderMetaDataPtrNumber::GetVDataTable(void) const
	?GetVDataTable@TSigCommsBinderNumber@ESock@@UBEPBUSVDataTableEntry@Meta@@XZ @ 698 NONAME ; struct Meta::SVDataTableEntry const * ESock::TSigCommsBinderNumber::GetVDataTable(void) const
	?GetVDataTable@TSigCommsId@ESock@@UBEPBUSVDataTableEntry@Meta@@XZ @ 699 NONAME ; struct Meta::SVDataTableEntry const * ESock::TSigCommsId::GetVDataTable(void) const
	?GetVDataTable@TSigCommsIdAny@ESock@@UBEPBUSVDataTableEntry@Meta@@XZ @ 700 NONAME ; struct Meta::SVDataTableEntry const * ESock::TSigCommsIdAny::GetVDataTable(void) const
	?GetVDataTable@TSigCommsIdCommsId@ESock@@UBEPBUSVDataTableEntry@Meta@@XZ @ 701 NONAME ; struct Meta::SVDataTableEntry const * ESock::TSigCommsIdCommsId::GetVDataTable(void) const
	?GetVDataTable@TSigCommsIdCommsIdNumber@ESock@@UBEPBUSVDataTableEntry@Meta@@XZ @ 702 NONAME ; struct Meta::SVDataTableEntry const * ESock::TSigCommsIdCommsIdNumber::GetVDataTable(void) const
	?GetVDataTable@TSigCommsIdNumber@ESock@@UBEPBUSVDataTableEntry@Meta@@XZ @ 703 NONAME ; struct Meta::SVDataTableEntry const * ESock::TSigCommsIdNumber::GetVDataTable(void) const
	?GetVDataTable@TSigCommsIdNumberNumber@ESock@@UBEPBUSVDataTableEntry@Meta@@XZ @ 704 NONAME ; struct Meta::SVDataTableEntry const * ESock::TSigCommsIdNumberNumber::GetVDataTable(void) const
	?GetVDataTable@TSigConnectionInfo@ESock@@UBEPBUSVDataTableEntry@Meta@@XZ @ 705 NONAME ; struct Meta::SVDataTableEntry const * ESock::TSigConnectionInfo::GetVDataTable(void) const
	?GetVDataTable@TSigErrContext@ESock@@UBEPBUSVDataTableEntry@Meta@@XZ @ 706 NONAME ; struct Meta::SVDataTableEntry const * ESock::TSigErrContext::GetVDataTable(void) const
	?GetVDataTable@TSigErrResponse@ESock@@UBEPBUSVDataTableEntry@Meta@@XZ @ 707 NONAME ; struct Meta::SVDataTableEntry const * ESock::TSigErrResponse::GetVDataTable(void) const
	?GetVDataTable@TSigFactoryObjectParams@ESock@@UBEPBUSVDataTableEntry@Meta@@XZ @ 708 NONAME ; struct Meta::SVDataTableEntry const * ESock::TSigFactoryObjectParams::GetVDataTable(void) const
	?GetVDataTable@TSigMessageIdNumber@ESock@@UBEPBUSVDataTableEntry@Meta@@XZ @ 709 NONAME ; struct Meta::SVDataTableEntry const * ESock::TSigMessageIdNumber::GetVDataTable(void) const
	?GetVDataTable@TSigMetaDataPtr@ESock@@UBEPBUSVDataTableEntry@Meta@@XZ @ 710 NONAME ; struct Meta::SVDataTableEntry const * ESock::TSigMetaDataPtr::GetVDataTable(void) const
	?GetVDataTable@TSigNumber@ESock@@UBEPBUSVDataTableEntry@Meta@@XZ @ 711 NONAME ; struct Meta::SVDataTableEntry const * ESock::TSigNumber::GetVDataTable(void) const
	?GetVDataTable@TSigNumberNumber@ESock@@UBEPBUSVDataTableEntry@Meta@@XZ @ 712 NONAME ; struct Meta::SVDataTableEntry const * ESock::TSigNumberNumber::GetVDataTable(void) const
	?GetVDataTable@TSigNumberNumberNumber@ESock@@UBEPBUSVDataTableEntry@Meta@@XZ @ 713 NONAME ; struct Meta::SVDataTableEntry const * ESock::TSigNumberNumberNumber::GetVDataTable(void) const
	?GetVDataTable@TSigNumberNumberNumberNumber@ESock@@UBEPBUSVDataTableEntry@Meta@@XZ @ 714 NONAME ; struct Meta::SVDataTableEntry const * ESock::TSigNumberNumberNumberNumber::GetVDataTable(void) const
	?GetVDataTable@TSigNumberRMessage2@ESock@@UBEPBUSVDataTableEntry@Meta@@XZ @ 715 NONAME ; struct Meta::SVDataTableEntry const * ESock::TSigNumberRMessage2::GetVDataTable(void) const
	?GetVDataTable@TSigProvisionConfig@ESock@@UBEPBUSVDataTableEntry@Meta@@XZ @ 716 NONAME ; struct Meta::SVDataTableEntry const * ESock::TSigProvisionConfig::GetVDataTable(void) const
	?GetVDataTable@TSigRMessage2@ESock@@UBEPBUSVDataTableEntry@Meta@@XZ @ 717 NONAME ; struct Meta::SVDataTableEntry const * ESock::TSigRMessage2::GetVDataTable(void) const
	?GetVDataTable@TSigSelectComplete@ESock@@UBEPBUSVDataTableEntry@Meta@@XZ @ 718 NONAME ; struct Meta::SVDataTableEntry const * ESock::TSigSelectComplete::GetVDataTable(void) const
	?GetVDataTable@TSigSelectionPrefs@ESock@@UBEPBUSVDataTableEntry@Meta@@XZ @ 719 NONAME ; struct Meta::SVDataTableEntry const * ESock::TSigSelectionPrefs::GetVDataTable(void) const
	?GetVDataTable@TSigStateChange@ESock@@UBEPBUSVDataTableEntry@Meta@@XZ @ 720 NONAME ; struct Meta::SVDataTableEntry const * ESock::TSigStateChange::GetVDataTable(void) const
	?GetVDataTable@TSigSubConNotification@ESock@@UBEPBUSVDataTableEntry@Meta@@XZ @ 721 NONAME ; struct Meta::SVDataTableEntry const * ESock::TSigSubConNotification::GetVDataTable(void) const
	?GetVDataTable@TSigSubConnClosedEvent@ESock@@UBEPBUSVDataTableEntry@Meta@@XZ @ 722 NONAME ; struct Meta::SVDataTableEntry const * ESock::TSigSubConnClosedEvent::GetVDataTable(void) const
	?GetVDataTable@TSigSubConnOpenedEvent@ESock@@UBEPBUSVDataTableEntry@Meta@@XZ @ 723 NONAME ; struct Meta::SVDataTableEntry const * ESock::TSigSubConnOpenedEvent::GetVDataTable(void) const
	?GetVDataTable@TSigSubConnParams@ESock@@UBEPBUSVDataTableEntry@Meta@@XZ @ 724 NONAME ; struct Meta::SVDataTableEntry const * ESock::TSigSubConnParams::GetVDataTable(void) const
	?GetVDataTable@TSigUid@ESock@@UBEPBUSVDataTableEntry@Meta@@XZ @ 725 NONAME ; struct Meta::SVDataTableEntry const * ESock::TSigUid::GetVDataTable(void) const
	?GetVDataTable@TTransportHookError@ESock@@UBEPBUSVDataTableEntry@Meta@@XZ @ 726 NONAME ; struct Meta::SVDataTableEntry const * ESock::TTransportHookError::GetVDataTable(void) const
	?GetVDataTable@XCommsDataObject@ESock@@MBEPBUSVDataTableEntry@Meta@@XZ @ 727 NONAME ; struct Meta::SVDataTableEntry const * ESock::XCommsDataObject::GetVDataTable(void) const
	?GetVDataTableStatic@CAccessPointConfig@ESock@@SAPBUSVDataTableEntry@Meta@@XZ @ 728 NONAME ; struct Meta::SVDataTableEntry const * ESock::CAccessPointConfig::GetVDataTableStatic(void)
	?GetVDataTableStatic@CConfigAccessPointConfig@ESock@@SAPBUSVDataTableEntry@Meta@@XZ @ 729 NONAME ; struct Meta::SVDataTableEntry const * ESock::CConfigAccessPointConfig::GetVDataTableStatic(void)
	?GetVDataTableStatic@TBinderConfig4@@SAPBUSVDataTableEntry@Meta@@XZ @ 730 NONAME ; struct Meta::SVDataTableEntry const * TBinderConfig4::GetVDataTableStatic(void)
	?GetVDataTableStatic@TBinderConfig6@@SAPBUSVDataTableEntry@Meta@@XZ @ 731 NONAME ; struct Meta::SVDataTableEntry const * TBinderConfig6::GetVDataTableStatic(void)
	?GetVDataTableStatic@TCFDeregisterMessageHook@ESock@@SAPBUSVDataTableEntry@Meta@@XZ @ 732 NONAME ; struct Meta::SVDataTableEntry const * ESock::TCFDeregisterMessageHook::GetVDataTableStatic(void)
	?GetVDataTableStatic@TCFESockSignalBase@ESock@@SAPBUSVDataTableEntry@Meta@@XZ @ 733 NONAME ; struct Meta::SVDataTableEntry const * ESock::TCFESockSignalBase::GetVDataTableStatic(void)
	?GetVDataTableStatic@TCFFlowRequestBase@ESock@@KAPBUSVDataTableEntry@Meta@@XZ @ 734 NONAME ; struct Meta::SVDataTableEntry const * ESock::TCFFlowRequestBase::GetVDataTableStatic(void)
	?GetVDataTableStatic@TCFNodeSignalBase@ESock@@SAPBUSVDataTableEntry@Meta@@XZ @ 735 NONAME ; struct Meta::SVDataTableEntry const * ESock::TCFNodeSignalBase::GetVDataTableStatic(void)
	?GetVDataTableStatic@TCFRegisterMessageHook@ESock@@SAPBUSVDataTableEntry@Meta@@XZ @ 736 NONAME ; struct Meta::SVDataTableEntry const * ESock::TCFRegisterMessageHook::GetVDataTableStatic(void)
	?GetVDataTableStatic@TCFSigRMessage2Ext@ESock@@SAPBUSVDataTableEntry@Meta@@XZ @ 737 NONAME ; struct Meta::SVDataTableEntry const * ESock::TCFSigRMessage2Ext::GetVDataTableStatic(void)
	?GetVDataTableStatic@TCFSignatureBase@ESock@@SAPBUSVDataTableEntry@Meta@@XZ @ 738 NONAME ; struct Meta::SVDataTableEntry const * ESock::TCFSignatureBase::GetVDataTableStatic(void)
	?GetVDataTableStatic@TDataMonitoringConnProvisioningInfo@ESock@@SAPBUSVDataTableEntry@Meta@@XZ @ 739 NONAME ; struct Meta::SVDataTableEntry const * ESock::TDataMonitoringConnProvisioningInfo::GetVDataTableStatic(void)
	?GetVDataTableStatic@TDataMonitoringProvisioningInfoBase@ESock@@SAPBUSVDataTableEntry@Meta@@XZ @ 740 NONAME ; struct Meta::SVDataTableEntry const * ESock::TDataMonitoringProvisioningInfoBase::GetVDataTableStatic(void)
	?GetVDataTableStatic@TDataMonitoringSubConnProvisioningInfo@ESock@@SAPBUSVDataTableEntry@Meta@@XZ @ 741 NONAME ; struct Meta::SVDataTableEntry const * ESock::TDataMonitoringSubConnProvisioningInfo::GetVDataTableStatic(void)
	?GetVDataTableStatic@TDeferredSelectionPrefsExt@ESock@@SAPBUSVDataTableEntry@Meta@@XZ @ 742 NONAME ; struct Meta::SVDataTableEntry const * ESock::TDeferredSelectionPrefsExt::GetVDataTableStatic(void)
	?GetVDataTableStatic@TGetOrSetParameters@ESock@@SAPBUSVDataTableEntry@Meta@@XZ @ 743 NONAME ; struct Meta::SVDataTableEntry const * ESock::TGetOrSetParameters::GetVDataTableStatic(void)
	?GetVDataTableStatic@TOverridenSelectionPrefsExt@ESock@@SAPBUSVDataTableEntry@Meta@@XZ @ 744 NONAME ; struct Meta::SVDataTableEntry const * ESock::TOverridenSelectionPrefsExt::GetVDataTableStatic(void)
	?GetVDataTableStatic@TSafeMessageCarrierBase@ESock@@KAPBUSVDataTableEntry@Meta@@XZ @ 745 NONAME ; struct Meta::SVDataTableEntry const * ESock::TSafeMessageCarrierBase::GetVDataTableStatic(void)
	?GetVDataTableStatic@TSafeRequestCarrierEast@ESock@@KAPBUSVDataTableEntry@Meta@@XZ @ 746 NONAME ; struct Meta::SVDataTableEntry const * ESock::TSafeRequestCarrierEast::GetVDataTableStatic(void)
	?GetVDataTableStatic@TSafeResponseCarrierWest@ESock@@KAPBUSVDataTableEntry@Meta@@XZ @ 747 NONAME ; struct Meta::SVDataTableEntry const * ESock::TSafeResponseCarrierWest::GetVDataTableStatic(void)
	?GetVDataTableStatic@TSelectionPrefs@ESock@@SAPBUSVDataTableEntry@Meta@@XZ @ 748 NONAME ; struct Meta::SVDataTableEntry const * ESock::TSelectionPrefs::GetVDataTableStatic(void)
	?GetVDataTableStatic@TSigAddrUpdate@ESock@@SAPBUSVDataTableEntry@Meta@@XZ @ 749 NONAME ; struct Meta::SVDataTableEntry const * ESock::TSigAddrUpdate::GetVDataTableStatic(void)
	?GetVDataTableStatic@TSigAny@ESock@@SAPBUSVDataTableEntry@Meta@@XZ @ 750 NONAME ; struct Meta::SVDataTableEntry const * ESock::TSigAny::GetVDataTableStatic(void)
	?GetVDataTableStatic@TSigAnyNumber@ESock@@SAPBUSVDataTableEntry@Meta@@XZ @ 751 NONAME ; struct Meta::SVDataTableEntry const * ESock::TSigAnyNumber::GetVDataTableStatic(void)
	?GetVDataTableStatic@TSigAvailabilityStatus@ESock@@SAPBUSVDataTableEntry@Meta@@XZ @ 752 NONAME ; struct Meta::SVDataTableEntry const * ESock::TSigAvailabilityStatus::GetVDataTableStatic(void)
	?GetVDataTableStatic@TSigAvailabilitySubscriptionOptions@ESock@@SAPBUSVDataTableEntry@Meta@@XZ @ 753 NONAME ; struct Meta::SVDataTableEntry const * ESock::TSigAvailabilitySubscriptionOptions::GetVDataTableStatic(void)
	?GetVDataTableStatic@TSigBundle@ESock@@SAPBUSVDataTableEntry@Meta@@XZ @ 754 NONAME ; struct Meta::SVDataTableEntry const * ESock::TSigBundle::GetVDataTableStatic(void)
	?GetVDataTableStatic@TSigBundleRMessage2@ESock@@SAPBUSVDataTableEntry@Meta@@XZ @ 755 NONAME ; struct Meta::SVDataTableEntry const * ESock::TSigBundleRMessage2::GetVDataTableStatic(void)
	?GetVDataTableStatic@TSigCommsBinder@ESock@@SAPBUSVDataTableEntry@Meta@@XZ @ 756 NONAME ; struct Meta::SVDataTableEntry const * ESock::TSigCommsBinder::GetVDataTableStatic(void)
	?GetVDataTableStatic@TSigCommsBinderMetaDataPtrNumber@ESock@@SAPBUSVDataTableEntry@Meta@@XZ @ 757 NONAME ; struct Meta::SVDataTableEntry const * ESock::TSigCommsBinderMetaDataPtrNumber::GetVDataTableStatic(void)
	?GetVDataTableStatic@TSigCommsBinderNumber@ESock@@SAPBUSVDataTableEntry@Meta@@XZ @ 758 NONAME ; struct Meta::SVDataTableEntry const * ESock::TSigCommsBinderNumber::GetVDataTableStatic(void)
	?GetVDataTableStatic@TSigCommsId@ESock@@SAPBUSVDataTableEntry@Meta@@XZ @ 759 NONAME ; struct Meta::SVDataTableEntry const * ESock::TSigCommsId::GetVDataTableStatic(void)
	?GetVDataTableStatic@TSigCommsIdAny@ESock@@SAPBUSVDataTableEntry@Meta@@XZ @ 760 NONAME ; struct Meta::SVDataTableEntry const * ESock::TSigCommsIdAny::GetVDataTableStatic(void)
	?GetVDataTableStatic@TSigCommsIdCommsId@ESock@@SAPBUSVDataTableEntry@Meta@@XZ @ 761 NONAME ; struct Meta::SVDataTableEntry const * ESock::TSigCommsIdCommsId::GetVDataTableStatic(void)
	?GetVDataTableStatic@TSigCommsIdCommsIdNumber@ESock@@SAPBUSVDataTableEntry@Meta@@XZ @ 762 NONAME ; struct Meta::SVDataTableEntry const * ESock::TSigCommsIdCommsIdNumber::GetVDataTableStatic(void)
	?GetVDataTableStatic@TSigCommsIdNumber@ESock@@SAPBUSVDataTableEntry@Meta@@XZ @ 763 NONAME ; struct Meta::SVDataTableEntry const * ESock::TSigCommsIdNumber::GetVDataTableStatic(void)
	?GetVDataTableStatic@TSigCommsIdNumberNumber@ESock@@SAPBUSVDataTableEntry@Meta@@XZ @ 764 NONAME ; struct Meta::SVDataTableEntry const * ESock::TSigCommsIdNumberNumber::GetVDataTableStatic(void)
	?GetVDataTableStatic@TSigConnectionInfo@ESock@@SAPBUSVDataTableEntry@Meta@@XZ @ 765 NONAME ; struct Meta::SVDataTableEntry const * ESock::TSigConnectionInfo::GetVDataTableStatic(void)
	?GetVDataTableStatic@TSigErrContext@ESock@@SAPBUSVDataTableEntry@Meta@@XZ @ 766 NONAME ; struct Meta::SVDataTableEntry const * ESock::TSigErrContext::GetVDataTableStatic(void)
	?GetVDataTableStatic@TSigErrResponse@ESock@@SAPBUSVDataTableEntry@Meta@@XZ @ 767 NONAME ; struct Meta::SVDataTableEntry const * ESock::TSigErrResponse::GetVDataTableStatic(void)
	?GetVDataTableStatic@TSigFactoryObjectParams@ESock@@SAPBUSVDataTableEntry@Meta@@XZ @ 768 NONAME ; struct Meta::SVDataTableEntry const * ESock::TSigFactoryObjectParams::GetVDataTableStatic(void)
	?GetVDataTableStatic@TSigMessageIdNumber@ESock@@SAPBUSVDataTableEntry@Meta@@XZ @ 769 NONAME ; struct Meta::SVDataTableEntry const * ESock::TSigMessageIdNumber::GetVDataTableStatic(void)
	?GetVDataTableStatic@TSigMetaDataPtr@ESock@@SAPBUSVDataTableEntry@Meta@@XZ @ 770 NONAME ; struct Meta::SVDataTableEntry const * ESock::TSigMetaDataPtr::GetVDataTableStatic(void)
	?GetVDataTableStatic@TSigNumber@ESock@@SAPBUSVDataTableEntry@Meta@@XZ @ 771 NONAME ; struct Meta::SVDataTableEntry const * ESock::TSigNumber::GetVDataTableStatic(void)
	?GetVDataTableStatic@TSigNumberNumber@ESock@@SAPBUSVDataTableEntry@Meta@@XZ @ 772 NONAME ; struct Meta::SVDataTableEntry const * ESock::TSigNumberNumber::GetVDataTableStatic(void)
	?GetVDataTableStatic@TSigNumberNumberNumber@ESock@@SAPBUSVDataTableEntry@Meta@@XZ @ 773 NONAME ; struct Meta::SVDataTableEntry const * ESock::TSigNumberNumberNumber::GetVDataTableStatic(void)
	?GetVDataTableStatic@TSigNumberNumberNumberNumber@ESock@@SAPBUSVDataTableEntry@Meta@@XZ @ 774 NONAME ; struct Meta::SVDataTableEntry const * ESock::TSigNumberNumberNumberNumber::GetVDataTableStatic(void)
	?GetVDataTableStatic@TSigNumberRMessage2@ESock@@SAPBUSVDataTableEntry@Meta@@XZ @ 775 NONAME ; struct Meta::SVDataTableEntry const * ESock::TSigNumberRMessage2::GetVDataTableStatic(void)
	?GetVDataTableStatic@TSigProvisionConfig@ESock@@SAPBUSVDataTableEntry@Meta@@XZ @ 776 NONAME ; struct Meta::SVDataTableEntry const * ESock::TSigProvisionConfig::GetVDataTableStatic(void)
	?GetVDataTableStatic@TSigRMessage2@ESock@@SAPBUSVDataTableEntry@Meta@@XZ @ 777 NONAME ; struct Meta::SVDataTableEntry const * ESock::TSigRMessage2::GetVDataTableStatic(void)
	?GetVDataTableStatic@TSigSelectComplete@ESock@@SAPBUSVDataTableEntry@Meta@@XZ @ 778 NONAME ; struct Meta::SVDataTableEntry const * ESock::TSigSelectComplete::GetVDataTableStatic(void)
	?GetVDataTableStatic@TSigSelectionPrefs@ESock@@SAPBUSVDataTableEntry@Meta@@XZ @ 779 NONAME ; struct Meta::SVDataTableEntry const * ESock::TSigSelectionPrefs::GetVDataTableStatic(void)
	?GetVDataTableStatic@TSigStateChange@ESock@@SAPBUSVDataTableEntry@Meta@@XZ @ 780 NONAME ; struct Meta::SVDataTableEntry const * ESock::TSigStateChange::GetVDataTableStatic(void)
	?GetVDataTableStatic@TSigSubConNotification@ESock@@SAPBUSVDataTableEntry@Meta@@XZ @ 781 NONAME ; struct Meta::SVDataTableEntry const * ESock::TSigSubConNotification::GetVDataTableStatic(void)
	?GetVDataTableStatic@TSigSubConnClosedEvent@ESock@@SAPBUSVDataTableEntry@Meta@@XZ @ 782 NONAME ; struct Meta::SVDataTableEntry const * ESock::TSigSubConnClosedEvent::GetVDataTableStatic(void)
	?GetVDataTableStatic@TSigSubConnOpenedEvent@ESock@@SAPBUSVDataTableEntry@Meta@@XZ @ 783 NONAME ; struct Meta::SVDataTableEntry const * ESock::TSigSubConnOpenedEvent::GetVDataTableStatic(void)
	?GetVDataTableStatic@TSigSubConnParams@ESock@@SAPBUSVDataTableEntry@Meta@@XZ @ 784 NONAME ; struct Meta::SVDataTableEntry const * ESock::TSigSubConnParams::GetVDataTableStatic(void)
	?GetVDataTableStatic@TSigUid@ESock@@SAPBUSVDataTableEntry@Meta@@XZ @ 785 NONAME ; struct Meta::SVDataTableEntry const * ESock::TSigUid::GetVDataTableStatic(void)
	?GetVDataTableStatic@TTransportHookError@ESock@@SAPBUSVDataTableEntry@Meta@@XZ @ 786 NONAME ; struct Meta::SVDataTableEntry const * ESock::TTransportHookError::GetVDataTableStatic(void)
	?GetVDataTableStatic@XCommsDataObject@ESock@@KAPBUSVDataTableEntry@Meta@@XZ @ 787 NONAME ; struct Meta::SVDataTableEntry const * ESock::XCommsDataObject::GetVDataTableStatic(void)
	?GetVTablePtr@TAbortAllActivities@CoreStates@@SAPAVMStateTransition@NetStateMachine@@AAVTDesC8@@PAX@Z @ 788 NONAME ; class NetStateMachine::MStateTransition * CoreStates::TAbortAllActivities::GetVTablePtr(class TDesC8 &, void *)
	?GetVTablePtr@TAbortAllActivitiesNodeDeletion@CoreStates@@SAPAVMStateTransition@NetStateMachine@@AAVTDesC8@@PAX@Z @ 789 NONAME ; class NetStateMachine::MStateTransition * CoreStates::TAbortAllActivitiesNodeDeletion::GetVTablePtr(class TDesC8 &, void *)
	?GetVTablePtr@TAddAuxClient@CoreNetStates@@SAPAVMStateTransition@NetStateMachine@@AAVTDesC8@@PAX@Z @ 790 NONAME ; class NetStateMachine::MStateTransition * CoreNetStates::TAddAuxClient::GetVTablePtr(class TDesC8 &, void *)
	?GetVTablePtr@TAddControlClientAndSendJoinCompleteIfRequest@CoreNetStates@@SAPAVMStateTransition@NetStateMachine@@AAVTDesC8@@PAX@Z @ 791 NONAME ; class NetStateMachine::MStateTransition * CoreNetStates::TAddControlClientAndSendJoinCompleteIfRequest::GetVTablePtr(class TDesC8 &, void *)
	?GetVTablePtr@TAddDataClient@CoreNetStates@@SAPAVMStateTransition@NetStateMachine@@AAVTDesC8@@PAX@Z @ 792 NONAME ; class NetStateMachine::MStateTransition * CoreNetStates::TAddDataClient::GetVTablePtr(class TDesC8 &, void *)
	?GetVTablePtr@TAddDataClientAndRespond@CoreNetStates@@SAPAVMStateTransition@NetStateMachine@@AAVTDesC8@@PAX@Z @ 793 NONAME ; class NetStateMachine::MStateTransition * CoreNetStates::TAddDataClientAndRespond::GetVTablePtr(class TDesC8 &, void *)
	?GetVTablePtr@TAlwaysAccept@CoreStates@@SAPAVMState@NetStateMachine@@AAVTDesC8@@PAX@Z @ 794 NONAME ; class NetStateMachine::MState * CoreStates::TAlwaysAccept::GetVTablePtr(class TDesC8 &, void *)
	?GetVTablePtr@TApplyRejoin@CRejoinDataClientActivity@PRActivities@@SAPAVMStateTransition@NetStateMachine@@AAVTDesC8@@PAX@Z @ 795 NONAME ; class NetStateMachine::MStateTransition * PRActivities::CRejoinDataClientActivity::TApplyRejoin::GetVTablePtr(class TDesC8 &, void *)
	?GetVTablePtr@TAwaitingApplyResponse@CoreNetStates@@SAPAVMState@NetStateMachine@@AAVTDesC8@@PAX@Z @ 796 NONAME ; class NetStateMachine::MState * CoreNetStates::TAwaitingApplyResponse::GetVTablePtr(class TDesC8 &, void *)
	?GetVTablePtr@TAwaitingBindTo@CoreNetStates@@SAPAVMState@NetStateMachine@@AAVTDesC8@@PAX@Z @ 797 NONAME ; class NetStateMachine::MState * CoreNetStates::TAwaitingBindTo::GetVTablePtr(class TDesC8 &, void *)
	?GetVTablePtr@TAwaitingBindToComplete@CCommsBinderActivity@PRActivities@@SAPAVMState@NetStateMachine@@AAVTDesC8@@PAX@Z @ 798 NONAME ; class NetStateMachine::MState * PRActivities::CCommsBinderActivity::TAwaitingBindToComplete::GetVTablePtr(class TDesC8 &, void *)
	?GetVTablePtr@TAwaitingBindToComplete@CoreNetStates@@SAPAVMState@NetStateMachine@@AAVTDesC8@@PAX@Z @ 799 NONAME ; class NetStateMachine::MState * CoreNetStates::TAwaitingBindToComplete::GetVTablePtr(class TDesC8 &, void *)
	?GetVTablePtr@TAwaitingBindToOrCancel@CoreNetStates@@SAPAVMState@NetStateMachine@@AAVTDesC8@@PAX@Z @ 800 NONAME ; class NetStateMachine::MState * CoreNetStates::TAwaitingBindToOrCancel::GetVTablePtr(class TDesC8 &, void *)
	?GetVTablePtr@TAwaitingBindToRequest@CoreNetStates@@SAPAVMState@NetStateMachine@@AAVTDesC8@@PAX@Z @ 801 NONAME ; class NetStateMachine::MState * CoreNetStates::TAwaitingBindToRequest::GetVTablePtr(class TDesC8 &, void *)
	?GetVTablePtr@TAwaitingBindToRequestComplete@CoreNetStates@@SAPAVMState@NetStateMachine@@AAVTDesC8@@PAX@Z @ 802 NONAME ; class NetStateMachine::MState * CoreNetStates::TAwaitingBindToRequestComplete::GetVTablePtr(class TDesC8 &, void *)
	?GetVTablePtr@TAwaitingBindToRequestCompleteOrCancel@CStartActivity@PRActivities@@SAPAVMState@NetStateMachine@@AAVTDesC8@@PAX@Z @ 803 NONAME ; class NetStateMachine::MState * PRActivities::CStartActivity::TAwaitingBindToRequestCompleteOrCancel::GetVTablePtr(class TDesC8 &, void *)
	?GetVTablePtr@TAwaitingBinderRequest@CoreNetStates@@SAPAVMState@NetStateMachine@@AAVTDesC8@@PAX@Z @ 804 NONAME ; class NetStateMachine::MState * CoreNetStates::TAwaitingBinderRequest::GetVTablePtr(class TDesC8 &, void *)
	?GetVTablePtr@TAwaitingBinderResponse@CoreNetStates@@SAPAVMState@NetStateMachine@@AAVTDesC8@@PAX@Z @ 805 NONAME ; class NetStateMachine::MState * CoreNetStates::TAwaitingBinderResponse::GetVTablePtr(class TDesC8 &, void *)
	?GetVTablePtr@TAwaitingBuildLowerLayer@CoreNetStates@@SAPAVMState@NetStateMachine@@AAVTDesC8@@PAX@Z @ 806 NONAME ; class NetStateMachine::MState * CoreNetStates::TAwaitingBuildLowerLayer::GetVTablePtr(class TDesC8 &, void *)
	?GetVTablePtr@TAwaitingCancel@CoreStates@@SAPAVMState@NetStateMachine@@AAVTDesC8@@PAX@Z @ 807 NONAME ; class NetStateMachine::MState * CoreStates::TAwaitingCancel::GetVTablePtr(class TDesC8 &, void *)
	?GetVTablePtr@TAwaitingClientLeave@CoreStates@@SAPAVMState@NetStateMachine@@AAVTDesC8@@PAX@Z @ 808 NONAME ; class NetStateMachine::MState * CoreStates::TAwaitingClientLeave::GetVTablePtr(class TDesC8 &, void *)
	?GetVTablePtr@TAwaitingControlClientJoin@CoreNetStates@@SAPAVMState@NetStateMachine@@AAVTDesC8@@PAX@Z @ 809 NONAME ; class NetStateMachine::MState * CoreNetStates::TAwaitingControlClientJoin::GetVTablePtr(class TDesC8 &, void *)
	?GetVTablePtr@TAwaitingDataClientActive@CoreNetStates@@SAPAVMState@NetStateMachine@@AAVTDesC8@@PAX@Z @ 810 NONAME ; class NetStateMachine::MState * CoreNetStates::TAwaitingDataClientActive::GetVTablePtr(class TDesC8 &, void *)
	?GetVTablePtr@TAwaitingDataClientGoneDown@CoreNetStates@@SAPAVMState@NetStateMachine@@AAVTDesC8@@PAX@Z @ 811 NONAME ; class NetStateMachine::MState * CoreNetStates::TAwaitingDataClientGoneDown::GetVTablePtr(class TDesC8 &, void *)
	?GetVTablePtr@TAwaitingDataClientIdle@CoreNetStates@@SAPAVMState@NetStateMachine@@AAVTDesC8@@PAX@Z @ 812 NONAME ; class NetStateMachine::MState * CoreNetStates::TAwaitingDataClientIdle::GetVTablePtr(class TDesC8 &, void *)
	?GetVTablePtr@TAwaitingDataClientJoin@CoreNetStates@@SAPAVMState@NetStateMachine@@AAVTDesC8@@PAX@Z @ 813 NONAME ; class NetStateMachine::MState * CoreNetStates::TAwaitingDataClientJoin::GetVTablePtr(class TDesC8 &, void *)
	?GetVTablePtr@TAwaitingDataClientJoinRequest@CoreNetStates@@SAPAVMState@NetStateMachine@@AAVTDesC8@@PAX@Z @ 814 NONAME ; class NetStateMachine::MState * CoreNetStates::TAwaitingDataClientJoinRequest::GetVTablePtr(class TDesC8 &, void *)
	?GetVTablePtr@TAwaitingDataClientRejoin@CoreNetStates@@SAPAVMState@NetStateMachine@@AAVTDesC8@@PAX@Z @ 815 NONAME ; class NetStateMachine::MState * CoreNetStates::TAwaitingDataClientRejoin::GetVTablePtr(class TDesC8 &, void *)
	?GetVTablePtr@TAwaitingDataClientRejoinOrApplyOrCancel@CoreNetStates@@SAPAVMState@NetStateMachine@@AAVTDesC8@@PAX@Z @ 816 NONAME ; class NetStateMachine::MState * CoreNetStates::TAwaitingDataClientRejoinOrApplyOrCancel::GetVTablePtr(class TDesC8 &, void *)
	?GetVTablePtr@TAwaitingDataClientStart@CoreNetStates@@SAPAVMState@NetStateMachine@@AAVTDesC8@@PAX@Z @ 817 NONAME ; class NetStateMachine::MState * CoreNetStates::TAwaitingDataClientStart::GetVTablePtr(class TDesC8 &, void *)
	?GetVTablePtr@TAwaitingDataClientStarted@CoreNetStates@@SAPAVMState@NetStateMachine@@AAVTDesC8@@PAX@Z @ 818 NONAME ; class NetStateMachine::MState * CoreNetStates::TAwaitingDataClientStarted::GetVTablePtr(class TDesC8 &, void *)
	?GetVTablePtr@TAwaitingDataClientStop@CoreNetStates@@SAPAVMState@NetStateMachine@@AAVTDesC8@@PAX@Z @ 819 NONAME ; class NetStateMachine::MState * CoreNetStates::TAwaitingDataClientStop::GetVTablePtr(class TDesC8 &, void *)
	?GetVTablePtr@TAwaitingDataClientStopped@CoreNetStates@@SAPAVMState@NetStateMachine@@AAVTDesC8@@PAX@Z @ 820 NONAME ; class NetStateMachine::MState * CoreNetStates::TAwaitingDataClientStopped::GetVTablePtr(class TDesC8 &, void *)
	?GetVTablePtr@TAwaitingDataClientsStopped@CoreNetStates@@SAPAVMState@NetStateMachine@@AAVTDesC8@@PAX@Z @ 821 NONAME ; class NetStateMachine::MState * CoreNetStates::TAwaitingDataClientsStopped::GetVTablePtr(class TDesC8 &, void *)
	?GetVTablePtr@TAwaitingDestroy@CoreStates@@SAPAVMState@NetStateMachine@@AAVTDesC8@@PAX@Z @ 822 NONAME ; class NetStateMachine::MState * CoreStates::TAwaitingDestroy::GetVTablePtr(class TDesC8 &, void *)
	?GetVTablePtr@TAwaitingError@CErrorActivity@CoreActivities@@SAPAVMState@NetStateMachine@@AAVTDesC8@@PAX@Z @ 823 NONAME ; class NetStateMachine::MState * CoreActivities::CErrorActivity::TAwaitingError::GetVTablePtr(class TDesC8 &, void *)
	?GetVTablePtr@TAwaitingErrorRecoveryResponseOrError@CoreStates@@SAPAVMState@NetStateMachine@@AAVTDesC8@@PAX@Z @ 824 NONAME ; class NetStateMachine::MState * CoreStates::TAwaitingErrorRecoveryResponseOrError::GetVTablePtr(class TDesC8 &, void *)
	?GetVTablePtr@TAwaitingGoneDown@CoreNetStates@@SAPAVMState@NetStateMachine@@AAVTDesC8@@PAX@Z @ 825 NONAME ; class NetStateMachine::MState * CoreNetStates::TAwaitingGoneDown::GetVTablePtr(class TDesC8 &, void *)
	?GetVTablePtr@TAwaitingJoinComplete@CRejoinDataClientActivity@PRActivities@@SAPAVMState@NetStateMachine@@AAVTDesC8@@PAX@Z @ 826 NONAME ; class NetStateMachine::MState * PRActivities::CRejoinDataClientActivity::TAwaitingJoinComplete::GetVTablePtr(class TDesC8 &, void *)
	?GetVTablePtr@TAwaitingJoinComplete@CoreStates@@SAPAVMState@NetStateMachine@@AAVTDesC8@@PAX@Z @ 827 NONAME ; class NetStateMachine::MState * CoreStates::TAwaitingJoinComplete::GetVTablePtr(class TDesC8 &, void *)
	?GetVTablePtr@TAwaitingLeaveComplete@CoreStates@@SAPAVMState@NetStateMachine@@AAVTDesC8@@PAX@Z @ 828 NONAME ABSENT; class NetStateMachine::MState * CoreStates::TAwaitingLeaveComplete::GetVTablePtr(class TDesC8 &, void *)
	?GetVTablePtr@TAwaitingLowerLayerComplete@CoreNetStates@@SAPAVMState@NetStateMachine@@AAVTDesC8@@PAX@Z @ 829 NONAME ; class NetStateMachine::MState * CoreNetStates::TAwaitingLowerLayerComplete::GetVTablePtr(class TDesC8 &, void *)
	?GetVTablePtr@TAwaitingNULL@CoreStates@@SAPAVMState@NetStateMachine@@AAVTDesC8@@PAX@Z @ 830 NONAME ; class NetStateMachine::MState * CoreStates::TAwaitingNULL::GetVTablePtr(class TDesC8 &, void *)
	?GetVTablePtr@TAwaitingNoBearer@CoreNetStates@@SAPAVMState@NetStateMachine@@AAVTDesC8@@PAX@Z @ 831 NONAME ; class NetStateMachine::MState * CoreNetStates::TAwaitingNoBearer::GetVTablePtr(class TDesC8 &, void *)
	?GetVTablePtr@TAwaitingParamResponse@CoreNetStates@@SAPAVMState@NetStateMachine@@AAVTDesC8@@PAX@Z @ 832 NONAME ; class NetStateMachine::MState * CoreNetStates::TAwaitingParamResponse::GetVTablePtr(class TDesC8 &, void *)
	?GetVTablePtr@TAwaitingProviderStatusChange@CoreNetStates@@SAPAVMState@NetStateMachine@@AAVTDesC8@@PAX@Z @ 833 NONAME ; class NetStateMachine::MState * CoreNetStates::TAwaitingProviderStatusChange::GetVTablePtr(class TDesC8 &, void *)
	?GetVTablePtr@TAwaitingProvision@CoreNetStates@@SAPAVMState@NetStateMachine@@AAVTDesC8@@PAX@Z @ 834 NONAME ; class NetStateMachine::MState * CoreNetStates::TAwaitingProvision::GetVTablePtr(class TDesC8 &, void *)
	?GetVTablePtr@TAwaitingReBindLayer@CoreNetStates@@SAPAVMState@NetStateMachine@@AAVTDesC8@@PAX@Z @ 835 NONAME ; class NetStateMachine::MState * CoreNetStates::TAwaitingReBindLayer::GetVTablePtr(class TDesC8 &, void *)
	?GetVTablePtr@TAwaitingReJoinDataClientComplete@CoreNetStates@@SAPAVMState@NetStateMachine@@AAVTDesC8@@PAX@Z @ 836 NONAME ; class NetStateMachine::MState * CoreNetStates::TAwaitingReJoinDataClientComplete::GetVTablePtr(class TDesC8 &, void *)
	?GetVTablePtr@TAwaitingStart@CoreNetStates@@SAPAVMState@NetStateMachine@@AAVTDesC8@@PAX@Z @ 837 NONAME ; class NetStateMachine::MState * CoreNetStates::TAwaitingStart::GetVTablePtr(class TDesC8 &, void *)
	?GetVTablePtr@TAwaitingStarted@CoreNetStates@@SAPAVMState@NetStateMachine@@AAVTDesC8@@PAX@Z @ 838 NONAME ; class NetStateMachine::MState * CoreNetStates::TAwaitingStarted::GetVTablePtr(class TDesC8 &, void *)
	?GetVTablePtr@TAwaitingStateChange@CoreStates@@SAPAVMState@NetStateMachine@@AAVTDesC8@@PAX@Z @ 839 NONAME ; class NetStateMachine::MState * CoreStates::TAwaitingStateChange::GetVTablePtr(class TDesC8 &, void *)
	?GetVTablePtr@TAwaitingStop@CoreNetStates@@SAPAVMState@NetStateMachine@@AAVTDesC8@@PAX@Z @ 840 NONAME ; class NetStateMachine::MState * CoreNetStates::TAwaitingStop::GetVTablePtr(class TDesC8 &, void *)
	?GetVTablePtr@TAwaitingStopped@CoreNetStates@@SAPAVMState@NetStateMachine@@AAVTDesC8@@PAX@Z @ 841 NONAME ; class NetStateMachine::MState * CoreNetStates::TAwaitingStopped::GetVTablePtr(class TDesC8 &, void *)
	?GetVTablePtr@TAwaitingSubConEvent@CoreNetStates@@SAPAVMState@NetStateMachine@@AAVTDesC8@@PAX@Z @ 842 NONAME ; class NetStateMachine::MState * CoreNetStates::TAwaitingSubConEvent::GetVTablePtr(class TDesC8 &, void *)
	?GetVTablePtr@TBearerPresent@CoreNetStates@@SAPAVMStateFork@NetStateMachine@@AAVTDesC8@@PAX@Z @ 843 NONAME ; class NetStateMachine::MStateFork * CoreNetStates::TBearerPresent::GetVTablePtr(class TDesC8 &, void *)
	?GetVTablePtr@TBearerReady@CoreNetStates@@SAPAVMStateFork@NetStateMachine@@AAVTDesC8@@PAX@Z @ 844 NONAME ; class NetStateMachine::MStateFork * CoreNetStates::TBearerReady::GetVTablePtr(class TDesC8 &, void *)
	?GetVTablePtr@TBindSelf@CoreNetStates@@SAPAVMStateTransition@NetStateMachine@@AAVTDesC8@@PAX@Z @ 845 NONAME ; class NetStateMachine::MStateTransition * CoreNetStates::TBindSelf::GetVTablePtr(class TDesC8 &, void *)
	?GetVTablePtr@TBindSelfToPresentBearer@CoreNetStates@@SAPAVMStateTransition@NetStateMachine@@AAVTDesC8@@PAX@Z @ 846 NONAME ; class NetStateMachine::MStateTransition * CoreNetStates::TBindSelfToPresentBearer::GetVTablePtr(class TDesC8 &, void *)
	?GetVTablePtr@TCancelDataClientStart@CoreNetStates@@SAPAVMStateTransition@NetStateMachine@@AAVTDesC8@@PAX@Z @ 847 NONAME ; class NetStateMachine::MStateTransition * CoreNetStates::TCancelDataClientStart::GetVTablePtr(class TDesC8 &, void *)
	?GetVTablePtr@TClearError@CoreStates@@SAPAVMStateTransition@NetStateMachine@@AAVTDesC8@@PAX@Z @ 848 NONAME ; class NetStateMachine::MStateTransition * CoreStates::TClearError::GetVTablePtr(class TDesC8 &, void *)
	?GetVTablePtr@TCreateDataClient@CBindToRequestActivity@PRActivities@@SAPAVMStateTransition@NetStateMachine@@AAVTDesC8@@PAX@Z @ 849 NONAME ; class NetStateMachine::MStateTransition * PRActivities::CBindToRequestActivity::TCreateDataClient::GetVTablePtr(class TDesC8 &, void *)
	?GetVTablePtr@TCreateDataClient@PRStates@@SAPAVMStateTransition@NetStateMachine@@AAVTDesC8@@PAX@Z @ 850 NONAME ; class NetStateMachine::MStateTransition * PRStates::TCreateDataClient::GetVTablePtr(class TDesC8 &, void *)
	?GetVTablePtr@TDataClientPresent@CoreNetStates@@SAPAVMStateFork@NetStateMachine@@AAVTDesC8@@PAX@Z @ 851 NONAME ; class NetStateMachine::MStateFork * CoreNetStates::TDataClientPresent::GetVTablePtr(class TDesC8 &, void *)
	?GetVTablePtr@TDestroyOrphanedDataClients@PRStates@@SAPAVMStateTransition@NetStateMachine@@AAVTDesC8@@PAX@Z @ 852 NONAME ; class NetStateMachine::MStateTransition * PRStates::TDestroyOrphanedDataClients::GetVTablePtr(class TDesC8 &, void *)
	?GetVTablePtr@TDoErrorRecovery@CErrorActivity@CoreActivities@@SAPAVMStateTransition@NetStateMachine@@AAVTDesC8@@PAX@Z @ 853 NONAME ; class NetStateMachine::MStateTransition * CoreActivities::CErrorActivity::TDoErrorRecovery::GetVTablePtr(class TDesC8 &, void *)
	?GetVTablePtr@TDoNothing@CoreStates@@SAPAVMStateTransition@NetStateMachine@@AAVTDesC8@@PAX@Z @ 854 NONAME ; class NetStateMachine::MStateTransition * CoreStates::TDoNothing::GetVTablePtr(class TDesC8 &, void *)
	?GetVTablePtr@TErrorTag@CoreStates@@SAPAVMStateFork@NetStateMachine@@AAVTDesC8@@PAX@Z @ 855 NONAME ; class NetStateMachine::MStateFork * CoreStates::TErrorTag::GetVTablePtr(class TDesC8 &, void *)
	?GetVTablePtr@TForwardStateChange@PRStates@@SAPAVMStateTransition@NetStateMachine@@AAVTDesC8@@PAX@Z @ 856 NONAME ; class NetStateMachine::MStateTransition * PRStates::TForwardStateChange::GetVTablePtr(class TDesC8 &, void *)
	?GetVTablePtr@TForwardToControlClients@CoreNetStates@@SAPAVMStateTransition@NetStateMachine@@AAVTDesC8@@PAX@Z @ 857 NONAME ; class NetStateMachine::MStateTransition * CoreNetStates::TForwardToControlClients::GetVTablePtr(class TDesC8 &, void *)
	?GetVTablePtr@TForwardToControlProvider@CoreNetStates@@SAPAVMStateTransition@NetStateMachine@@AAVTDesC8@@PAX@Z @ 858 NONAME ; class NetStateMachine::MStateTransition * CoreNetStates::TForwardToControlProvider::GetVTablePtr(class TDesC8 &, void *)
	?GetVTablePtr@THandleDataClientIdle@CoreNetStates@@SAPAVMStateTransition@NetStateMachine@@AAVTDesC8@@PAX@Z @ 859 NONAME ; class NetStateMachine::MStateTransition * CoreNetStates::THandleDataClientIdle::GetVTablePtr(class TDesC8 &, void *)
	?GetVTablePtr@THandleProviderStatusChange@PRStates@@SAPAVMStateTransition@NetStateMachine@@AAVTDesC8@@PAX@Z @ 860 NONAME ; class NetStateMachine::MStateTransition * PRStates::THandleProviderStatusChange::GetVTablePtr(class TDesC8 &, void *)
	?GetVTablePtr@TLayerCompleted@CoreNetStates@@SAPAVMStateFork@NetStateMachine@@AAVTDesC8@@PAX@Z @ 861 NONAME ; class NetStateMachine::MStateFork * CoreNetStates::TLayerCompleted::GetVTablePtr(class TDesC8 &, void *)
	?GetVTablePtr@TMakeClientsLeaveOrProcessClientLeave@CDestroyActivity@CoreActivities@@SAPAVMStateTransition@NetStateMachine@@AAVTDesC8@@PAX@Z @ 862 NONAME ; class NetStateMachine::MStateTransition * CoreActivities::CDestroyActivity::TMakeClientsLeaveOrProcessClientLeave::GetVTablePtr(class TDesC8 &, void *)
	?GetVTablePtr@TNeverAccept@CoreStates@@SAPAVMState@NetStateMachine@@AAVTDesC8@@PAX@Z @ 863 NONAME ; class NetStateMachine::MState * CoreStates::TNeverAccept::GetVTablePtr(class TDesC8 &, void *)
	?GetVTablePtr@TNoTag@CoreStates@@SAPAVMStateFork@NetStateMachine@@AAVTDesC8@@PAX@Z @ 864 NONAME ; class NetStateMachine::MStateFork * CoreStates::TNoTag::GetVTablePtr(class TDesC8 &, void *)
	?GetVTablePtr@TNoTagBackward@CoreStates@@SAPAVMStateFork@NetStateMachine@@AAVTDesC8@@PAX@Z @ 865 NONAME ; class NetStateMachine::MStateFork * CoreStates::TNoTagBackward::GetVTablePtr(class TDesC8 &, void *)
	?GetVTablePtr@TNoTagBackwardsOrProviderStopped@CoreNetStates@@SAPAVMStateFork@NetStateMachine@@AAVTDesC8@@PAX@Z @ 866 NONAME ; class NetStateMachine::MStateFork * CoreNetStates::TNoTagBackwardsOrProviderStopped::GetVTablePtr(class TDesC8 &, void *)
	?GetVTablePtr@TNoTagOnEvent@CoreNetStates@@SAPAVMStateFork@NetStateMachine@@AAVTDesC8@@PAX@Z @ 867 NONAME ; class NetStateMachine::MStateFork * CoreNetStates::TNoTagOnEvent::GetVTablePtr(class TDesC8 &, void *)
	?GetVTablePtr@TNoTagOrBearerPresent@CoreNetStates@@SAPAVMStateFork@NetStateMachine@@AAVTDesC8@@PAX@Z @ 868 NONAME ; class NetStateMachine::MStateFork * CoreNetStates::TNoTagOrBearerPresent::GetVTablePtr(class TDesC8 &, void *)
	?GetVTablePtr@TNoTagOrBearerPresentOrErrorTag@CoreNetStates@@SAPAVMStateFork@NetStateMachine@@AAVTDesC8@@PAX@Z @ 869 NONAME ; class NetStateMachine::MStateFork * CoreNetStates::TNoTagOrBearerPresentOrErrorTag::GetVTablePtr(class TDesC8 &, void *)
	?GetVTablePtr@TNoTagOrBearerReady@CBindToRequestActivity@PRActivities@@SAPAVMStateFork@NetStateMachine@@AAVTDesC8@@PAX@Z @ 870 NONAME ; class NetStateMachine::MStateFork * PRActivities::CBindToRequestActivity::TNoTagOrBearerReady::GetVTablePtr(class TDesC8 &, void *)
	?GetVTablePtr@TNoTagOrDataClientPresent@CoreNetStates@@SAPAVMStateFork@NetStateMachine@@AAVTDesC8@@PAX@Z @ 871 NONAME ; class NetStateMachine::MStateFork * CoreNetStates::TNoTagOrDataClientPresent::GetVTablePtr(class TDesC8 &, void *)
	?GetVTablePtr@TNoTagOrDataClientReadyOrBindToComplete@CBindToRequestActivity@PRActivities@@SAPAVMStateFork@NetStateMachine@@AAVTDesC8@@PAX@Z @ 872 NONAME ; class NetStateMachine::MStateFork * PRActivities::CBindToRequestActivity::TNoTagOrDataClientReadyOrBindToComplete::GetVTablePtr(class TDesC8 &, void *)
	?GetVTablePtr@TNoTagOrDataClientsToStart@CNoBearer@PRActivities@@SAPAVMStateFork@NetStateMachine@@AAVTDesC8@@PAX@Z @ 873 NONAME ; class NetStateMachine::MStateFork * PRActivities::CNoBearer::TNoTagOrDataClientsToStart::GetVTablePtr(class TDesC8 &, void *)
	?GetVTablePtr@TNoTagOrDataClientsToStop@CoreNetStates@@SAPAVMStateFork@NetStateMachine@@AAVTDesC8@@PAX@Z @ 874 NONAME ; class NetStateMachine::MStateFork * CoreNetStates::TNoTagOrDataClientsToStop::GetVTablePtr(class TDesC8 &, void *)
	?GetVTablePtr@TNoTagOrErrorTag@CoreStates@@SAPAVMStateFork@NetStateMachine@@AAVTDesC8@@PAX@Z @ 875 NONAME ; class NetStateMachine::MStateFork * CoreStates::TNoTagOrErrorTag::GetVTablePtr(class TDesC8 &, void *)
	?GetVTablePtr@TNoTagOrNoBearer@CoreNetStates@@SAPAVMStateFork@NetStateMachine@@AAVTDesC8@@PAX@Z @ 876 NONAME ; class NetStateMachine::MStateFork * CoreNetStates::TNoTagOrNoBearer::GetVTablePtr(class TDesC8 &, void *)
	?GetVTablePtr@TNoTagOrNoClients@CoreStates@@SAPAVMStateFork@NetStateMachine@@AAVTDesC8@@PAX@Z @ 877 NONAME ; class NetStateMachine::MStateFork * CoreStates::TNoTagOrNoClients::GetVTablePtr(class TDesC8 &, void *)
	?GetVTablePtr@TNoTagOrNoDataClients@CoreNetStates@@SAPAVMStateFork@NetStateMachine@@AAVTDesC8@@PAX@Z @ 878 NONAME ; class NetStateMachine::MStateFork * CoreNetStates::TNoTagOrNoDataClients::GetVTablePtr(class TDesC8 &, void *)
	?GetVTablePtr@TNoTagOrNoDataClientsToStop@CoreNetStates@@SAPAVMStateFork@NetStateMachine@@AAVTDesC8@@PAX@Z @ 879 NONAME ; class NetStateMachine::MStateFork * CoreNetStates::TNoTagOrNoDataClientsToStop::GetVTablePtr(class TDesC8 &, void *)
	?GetVTablePtr@TNoTagOrNoPeer@CoreStates@@SAPAVMStateFork@NetStateMachine@@AAVTDesC8@@PAX@Z @ 880 NONAME ; class NetStateMachine::MStateFork * CoreStates::TNoTagOrNoPeer::GetVTablePtr(class TDesC8 &, void *)
	?GetVTablePtr@TNoTagOrNoTagBackwards@ACountLoopActivity@CoreActivities@@SAPAVMStateFork@NetStateMachine@@AAVTDesC8@@PAX@Z @ 881 NONAME ; class NetStateMachine::MStateFork * CoreActivities::ACountLoopActivity::TNoTagOrNoTagBackwards::GetVTablePtr(class TDesC8 &, void *)
	?GetVTablePtr@TNoTagOrNoTagBackwards@CDestroyActivity@CoreActivities@@SAPAVMStateFork@NetStateMachine@@AAVTDesC8@@PAX@Z @ 882 NONAME ; class NetStateMachine::MStateFork * CoreActivities::CDestroyActivity::TNoTagOrNoTagBackwards::GetVTablePtr(class TDesC8 &, void *)
	?GetVTablePtr@TNoTagOrNonDefault@CoreNetStates@@SAPAVMStateFork@NetStateMachine@@AAVTDesC8@@PAX@Z @ 883 NONAME ; class NetStateMachine::MStateFork * CoreNetStates::TNoTagOrNonDefault::GetVTablePtr(class TDesC8 &, void *)
	?GetVTablePtr@TNoTagOrProviderStopped@PRDataClientStopActivity@@SAPAVMStateFork@NetStateMachine@@AAVTDesC8@@PAX@Z @ 884 NONAME ; class NetStateMachine::MStateFork * PRDataClientStopActivity::TNoTagOrProviderStopped::GetVTablePtr(class TDesC8 &, void *)
	?GetVTablePtr@TNoTagOrRecoverableErrorTagOrErrorTag@CoreStates@@SAPAVMStateFork@NetStateMachine@@AAVTDesC8@@PAX@Z @ 885 NONAME ; class NetStateMachine::MStateFork * CoreStates::TNoTagOrRecoverableErrorTagOrErrorTag::GetVTablePtr(class TDesC8 &, void *)
	?GetVTablePtr@TNoTagOrUnbindOnStop@CoreNetStates@@SAPAVMStateFork@NetStateMachine@@AAVTDesC8@@PAX@Z @ 886 NONAME ; class NetStateMachine::MStateFork * CoreNetStates::TNoTagOrUnbindOnStop::GetVTablePtr(class TDesC8 &, void *)
	?GetVTablePtr@TNoTagOrUseExisting@CCommsBinderActivity@PRActivities@@SAPAVMStateFork@NetStateMachine@@AAVTDesC8@@PAX@Z @ 887 NONAME ; class NetStateMachine::MStateFork * PRActivities::CCommsBinderActivity::TNoTagOrUseExisting::GetVTablePtr(class TDesC8 &, void *)
	?GetVTablePtr@TNoTagOrWaitForIncomingOrUseExisting@CCommsBinderActivity@PRActivities@@SAPAVMStateFork@NetStateMachine@@AAVTDesC8@@PAX@Z @ 888 NONAME ; class NetStateMachine::MStateFork * PRActivities::CCommsBinderActivity::TNoTagOrWaitForIncomingOrUseExisting::GetVTablePtr(class TDesC8 &, void *)
	?GetVTablePtr@TNoTagOrWaitForIncomingOrUseExistingDefault@CCommsBinderActivity@PRActivities@@SAPAVMStateFork@NetStateMachine@@AAVTDesC8@@PAX@Z @ 889 NONAME ; class NetStateMachine::MStateFork * PRActivities::CCommsBinderActivity::TNoTagOrWaitForIncomingOrUseExistingDefault::GetVTablePtr(class TDesC8 &, void *)
	?GetVTablePtr@TPanic@CoreStates@@SAPAVMStateTransition@NetStateMachine@@AAVTDesC8@@PAX@Z @ 890 NONAME ; class NetStateMachine::MStateTransition * CoreStates::TPanic::GetVTablePtr(class TDesC8 &, void *)
	?GetVTablePtr@TPeerPresent@CoreStates@@SAPAVMStateFork@NetStateMachine@@AAVTDesC8@@PAX@Z @ 891 NONAME ; class NetStateMachine::MStateFork * CoreStates::TPeerPresent::GetVTablePtr(class TDesC8 &, void *)
	?GetVTablePtr@TPostToOriginators@CoreStates@@SAPAVMStateTransition@NetStateMachine@@AAVTDesC8@@PAX@Z @ 892 NONAME ; class NetStateMachine::MStateTransition * CoreStates::TPostToOriginators::GetVTablePtr(class TDesC8 &, void *)
	?GetVTablePtr@TRaiseActivityError@CoreStates@@SAPAVMStateTransition@NetStateMachine@@AAVTDesC8@@PAX@Z @ 893 NONAME ; class NetStateMachine::MStateTransition * CoreStates::TRaiseActivityError::GetVTablePtr(class TDesC8 &, void *)
	?GetVTablePtr@TRaiseAndClearActivityError@CoreStates@@SAPAVMStateTransition@NetStateMachine@@AAVTDesC8@@PAX@Z @ 894 NONAME ; class NetStateMachine::MStateTransition * CoreStates::TRaiseAndClearActivityError::GetVTablePtr(class TDesC8 &, void *)
	?GetVTablePtr@TReBindLeaveAndForward@PRStates@@SAPAVMStateTransition@NetStateMachine@@AAVTDesC8@@PAX@Z @ 895 NONAME ; class NetStateMachine::MStateTransition * PRStates::TReBindLeaveAndForward::GetVTablePtr(class TDesC8 &, void *)
	?GetVTablePtr@TRejoinDataClient@CRejoinDataClientActivity@PRActivities@@SAPAVMStateTransition@NetStateMachine@@AAVTDesC8@@PAX@Z @ 896 NONAME ; class NetStateMachine::MStateTransition * PRActivities::CRejoinDataClientActivity::TRejoinDataClient::GetVTablePtr(class TDesC8 &, void *)
	?GetVTablePtr@TRejoinLoopTag@CRejoinDataClientActivity@PRActivities@@SAPAVMStateFork@NetStateMachine@@AAVTDesC8@@PAX@Z @ 897 NONAME ; class NetStateMachine::MStateFork * PRActivities::CRejoinDataClientActivity::TRejoinLoopTag::GetVTablePtr(class TDesC8 &, void *)
	?GetVTablePtr@TRemoveAuxClient@CoreNetStates@@SAPAVMStateTransition@NetStateMachine@@AAVTDesC8@@PAX@Z @ 898 NONAME ; class NetStateMachine::MStateTransition * CoreNetStates::TRemoveAuxClient::GetVTablePtr(class TDesC8 &, void *)
	?GetVTablePtr@TRemoveClient@CoreStates@@SAPAVMStateTransition@NetStateMachine@@AAVTDesC8@@PAX@Z @ 899 NONAME ; class NetStateMachine::MStateTransition * CoreStates::TRemoveClient::GetVTablePtr(class TDesC8 &, void *)
	?GetVTablePtr@TRequestCommsBinder@CNoBearer@PRActivities@@SAPAVMStateTransition@NetStateMachine@@AAVTDesC8@@PAX@Z @ 900 NONAME ; class NetStateMachine::MStateTransition * PRActivities::CNoBearer::TRequestCommsBinder::GetVTablePtr(class TDesC8 &, void *)
	?GetVTablePtr@TRequestCommsBinder@CoreNetStates@@SAPAVMStateTransition@NetStateMachine@@AAVTDesC8@@PAX@Z @ 901 NONAME ; class NetStateMachine::MStateTransition * CoreNetStates::TRequestCommsBinder::GetVTablePtr(class TDesC8 &, void *)
	?GetVTablePtr@TRetryOrIgnoreOrPropagate@CoreStates@@SAPAVMStateFork@NetStateMachine@@AAVTDesC8@@PAX@Z @ 902 NONAME ; class NetStateMachine::MStateFork * CoreStates::TRetryOrIgnoreOrPropagate::GetVTablePtr(class TDesC8 &, void *)
	?GetVTablePtr@TSendApplyRequest@CoreNetStates@@SAPAVMStateTransition@NetStateMachine@@AAVTDesC8@@PAX@Z @ 903 NONAME ; class NetStateMachine::MStateTransition * CoreNetStates::TSendApplyRequest::GetVTablePtr(class TDesC8 &, void *)
	?GetVTablePtr@TSendBindToComplete@ABindingActivity@CoreActivities@@SAPAVMStateTransition@NetStateMachine@@AAVTDesC8@@PAX@Z @ 904 NONAME ; class NetStateMachine::MStateTransition * CoreActivities::ABindingActivity::TSendBindToComplete::GetVTablePtr(class TDesC8 &, void *)
	?GetVTablePtr@TSendBindToComplete@CoreNetStates@@SAPAVMStateTransition@NetStateMachine@@AAVTDesC8@@PAX@Z @ 905 NONAME ; class NetStateMachine::MStateTransition * CoreNetStates::TSendBindToComplete::GetVTablePtr(class TDesC8 &, void *)
	?GetVTablePtr@TSendBindToCompleteIfExpected@ABindingActivity@CoreActivities@@SAPAVMStateTransition@NetStateMachine@@AAVTDesC8@@PAX@Z @ 906 NONAME ; class NetStateMachine::MStateTransition * CoreActivities::ABindingActivity::TSendBindToCompleteIfExpected::GetVTablePtr(class TDesC8 &, void *)
	?GetVTablePtr@TSendBindToRequest@CBindToRequestActivity@PRActivities@@SAPAVMStateTransition@NetStateMachine@@AAVTDesC8@@PAX@Z @ 907 NONAME ; class NetStateMachine::MStateTransition * PRActivities::CBindToRequestActivity::TSendBindToRequest::GetVTablePtr(class TDesC8 &, void *)
	?GetVTablePtr@TSendBindToRequestComplete@CBindToRequestActivity@PRActivities@@SAPAVMStateTransition@NetStateMachine@@AAVTDesC8@@PAX@Z @ 908 NONAME ; class NetStateMachine::MStateTransition * PRActivities::CBindToRequestActivity::TSendBindToRequestComplete::GetVTablePtr(class TDesC8 &, void *)
	?GetVTablePtr@TSendBindToResponse@CoreNetStates@@SAPAVMStateTransition@NetStateMachine@@AAVTDesC8@@PAX@Z @ 909 NONAME ; class NetStateMachine::MStateTransition * CoreNetStates::TSendBindToResponse::GetVTablePtr(class TDesC8 &, void *)
	?GetVTablePtr@TSendBinderResponse@CCommsBinderActivity@PRActivities@@SAPAVMStateTransition@NetStateMachine@@AAVTDesC8@@PAX@Z @ 910 NONAME ; class NetStateMachine::MStateTransition * PRActivities::CCommsBinderActivity::TSendBinderResponse::GetVTablePtr(class TDesC8 &, void *)
	?GetVTablePtr@TSendClientLeavingAndRemoveControlProvider@CoreNetStates@@SAPAVMStateTransition@NetStateMachine@@AAVTDesC8@@PAX@Z @ 911 NONAME ; class NetStateMachine::MStateTransition * CoreNetStates::TSendClientLeavingAndRemoveControlProvider::GetVTablePtr(class TDesC8 &, void *)
	?GetVTablePtr@TSendClientLeavingAndRemoveControlProviderIfNoServiceProviders@CoreNetStates@@SAPAVMStateTransition@NetStateMachine@@AAVTDesC8@@PAX@Z @ 912 NONAME ; class NetStateMachine::MStateTransition * CoreNetStates::TSendClientLeavingAndRemoveControlProviderIfNoServiceProviders::GetVTablePtr(class TDesC8 &, void *)
	?GetVTablePtr@TSendClientLeavingAndRemoveServiceProvider@CoreNetStates@@SAPAVMStateTransition@NetStateMachine@@AAVTDesC8@@PAX@Z @ 913 NONAME ; class NetStateMachine::MStateTransition * CoreNetStates::TSendClientLeavingAndRemoveServiceProvider::GetVTablePtr(class TDesC8 &, void *)
	?GetVTablePtr@TSendClientLeavingRequestToServiceProvider@CoreNetStates@@SAPAVMStateTransition@NetStateMachine@@AAVTDesC8@@PAX@Z @ 914 NONAME ; class NetStateMachine::MStateTransition * CoreNetStates::TSendClientLeavingRequestToServiceProvider::GetVTablePtr(class TDesC8 &, void *)
	?GetVTablePtr@TSendClientLeavingRequestToServiceProviders@CoreNetStates@@SAPAVMStateTransition@NetStateMachine@@AAVTDesC8@@PAX@Z @ 915 NONAME ; class NetStateMachine::MStateTransition * CoreNetStates::TSendClientLeavingRequestToServiceProviders::GetVTablePtr(class TDesC8 &, void *)
	?GetVTablePtr@TSendControlClientJoinRequest@CoreNetStates@@SAPAVMStateTransition@NetStateMachine@@AAVTDesC8@@PAX@Z @ 916 NONAME ; class NetStateMachine::MStateTransition * CoreNetStates::TSendControlClientJoinRequest::GetVTablePtr(class TDesC8 &, void *)
	?GetVTablePtr@TSendDataClientActive@CoreNetStates@@SAPAVMStateTransition@NetStateMachine@@AAVTDesC8@@PAX@Z @ 917 NONAME ; class NetStateMachine::MStateTransition * CoreNetStates::TSendDataClientActive::GetVTablePtr(class TDesC8 &, void *)
	?GetVTablePtr@TSendDataClientIdle@CoreNetStates@@SAPAVMStateTransition@NetStateMachine@@AAVTDesC8@@PAX@Z @ 918 NONAME ; class NetStateMachine::MStateTransition * CoreNetStates::TSendDataClientIdle::GetVTablePtr(class TDesC8 &, void *)
	?GetVTablePtr@TSendDataClientIdleIfNoClients@CoreNetStates@@SAPAVMStateTransition@NetStateMachine@@AAVTDesC8@@PAX@Z @ 919 NONAME ; class NetStateMachine::MStateTransition * CoreNetStates::TSendDataClientIdleIfNoClients::GetVTablePtr(class TDesC8 &, void *)
	?GetVTablePtr@TSendDataClientStarted@PRStates@@SAPAVMStateTransition@NetStateMachine@@AAVTDesC8@@PAX@Z @ 920 NONAME ; class NetStateMachine::MStateTransition * PRStates::TSendDataClientStarted::GetVTablePtr(class TDesC8 &, void *)
	?GetVTablePtr@TSendDataClientStopped@PRStates@@SAPAVMStateTransition@NetStateMachine@@AAVTDesC8@@PAX@Z @ 921 NONAME ; class NetStateMachine::MStateTransition * PRStates::TSendDataClientStopped::GetVTablePtr(class TDesC8 &, void *)
	?GetVTablePtr@TSendErrorRecoveryReq@CErrorActivity@CoreActivities@@SAPAVMStateTransition@NetStateMachine@@AAVTDesC8@@PAX@Z @ 922 NONAME ; class NetStateMachine::MStateTransition * CoreActivities::CErrorActivity::TSendErrorRecoveryReq::GetVTablePtr(class TDesC8 &, void *)
	?GetVTablePtr@TSendGoneDown@PRStates@@SAPAVMStateTransition@NetStateMachine@@AAVTDesC8@@PAX@Z @ 923 NONAME ; class NetStateMachine::MStateTransition * PRStates::TSendGoneDown::GetVTablePtr(class TDesC8 &, void *)
	?GetVTablePtr@TSendLeaveCompleteIfRequest@CoreNetStates@@SAPAVMStateTransition@NetStateMachine@@AAVTDesC8@@PAX@Z @ 924 NONAME ; class NetStateMachine::MStateTransition * CoreNetStates::TSendLeaveCompleteIfRequest::GetVTablePtr(class TDesC8 &, void *)
	?GetVTablePtr@TSendLowerLayerComplete@CoreNetStates@@SAPAVMStateTransition@NetStateMachine@@AAVTDesC8@@PAX@Z @ 925 NONAME ; class NetStateMachine::MStateTransition * CoreNetStates::TSendLowerLayerComplete::GetVTablePtr(class TDesC8 &, void *)
	?GetVTablePtr@TSendNoBearer@CoreNetStates@@SAPAVMStateTransition@NetStateMachine@@AAVTDesC8@@PAX@Z @ 926 NONAME ; class NetStateMachine::MStateTransition * CoreNetStates::TSendNoBearer::GetVTablePtr(class TDesC8 &, void *)
	?GetVTablePtr@TSendProvision@PRStates@@SAPAVMStateTransition@NetStateMachine@@AAVTDesC8@@PAX@Z @ 927 NONAME ; class NetStateMachine::MStateTransition * PRStates::TSendProvision::GetVTablePtr(class TDesC8 &, void *)
	?GetVTablePtr@TSendRejoinComplete@CoreNetStates@@SAPAVMStateTransition@NetStateMachine@@AAVTDesC8@@PAX@Z @ 928 NONAME ; class NetStateMachine::MStateTransition * CoreNetStates::TSendRejoinComplete::GetVTablePtr(class TDesC8 &, void *)
	?GetVTablePtr@TSendStarted@CoreNetStates@@SAPAVMStateTransition@NetStateMachine@@AAVTDesC8@@PAX@Z @ 929 NONAME ; class NetStateMachine::MStateTransition * CoreNetStates::TSendStarted::GetVTablePtr(class TDesC8 &, void *)
	?GetVTablePtr@TSendStop@CoreNetStates@@SAPAVMStateTransition@NetStateMachine@@AAVTDesC8@@PAX@Z @ 930 NONAME ; class NetStateMachine::MStateTransition * CoreNetStates::TSendStop::GetVTablePtr(class TDesC8 &, void *)
	?GetVTablePtr@TSendStopped@PRStates@@SAPAVMStateTransition@NetStateMachine@@AAVTDesC8@@PAX@Z @ 931 NONAME ; class NetStateMachine::MStateTransition * PRStates::TSendStopped::GetVTablePtr(class TDesC8 &, void *)
	?GetVTablePtr@TSendStoppedAndGoneDown@PRStates@@SAPAVMStateTransition@NetStateMachine@@AAVTDesC8@@PAX@Z @ 932 NONAME ; class NetStateMachine::MStateTransition * PRStates::TSendStoppedAndGoneDown::GetVTablePtr(class TDesC8 &, void *)
	?GetVTablePtr@TSetIdle@CoreStates@@SAPAVMStateTransition@NetStateMachine@@AAVTDesC8@@PAX@Z @ 933 NONAME ; class NetStateMachine::MStateTransition * CoreStates::TSetIdle::GetVTablePtr(class TDesC8 &, void *)
	?GetVTablePtr@TSetIdleIfMoreClients@CoreStates@@SAPAVMStateTransition@NetStateMachine@@AAVTDesC8@@PAX@Z @ 934 NONAME ; class NetStateMachine::MStateTransition * CoreStates::TSetIdleIfMoreClients::GetVTablePtr(class TDesC8 &, void *)
	?GetVTablePtr@TSetIdleIfNoServiceProviders@CoreNetStates@@SAPAVMStateTransition@NetStateMachine@@AAVTDesC8@@PAX@Z @ 935 NONAME ; class NetStateMachine::MStateTransition * CoreNetStates::TSetIdleIfNoServiceProviders::GetVTablePtr(class TDesC8 &, void *)
	?GetVTablePtr@TStartDefaultDataClient@PRStates@@SAPAVMStateTransition@NetStateMachine@@AAVTDesC8@@PAX@Z @ 936 NONAME ; class NetStateMachine::MStateTransition * PRStates::TStartDefaultDataClient::GetVTablePtr(class TDesC8 &, void *)
	?GetVTablePtr@TStartOriginatingDataClient@CNoBearer@PRActivities@@SAPAVMStateTransition@NetStateMachine@@AAVTDesC8@@PAX@Z @ 937 NONAME ; class NetStateMachine::MStateTransition * PRActivities::CNoBearer::TStartOriginatingDataClient::GetVTablePtr(class TDesC8 &, void *)
	?GetVTablePtr@TStartSelf@CoreNetStates@@SAPAVMStateTransition@NetStateMachine@@AAVTDesC8@@PAX@Z @ 938 NONAME ; class NetStateMachine::MStateTransition * CoreNetStates::TStartSelf::GetVTablePtr(class TDesC8 &, void *)
	?GetVTablePtr@TStartServiceProvider@CoreNetStates@@SAPAVMStateTransition@NetStateMachine@@AAVTDesC8@@PAX@Z @ 939 NONAME ; class NetStateMachine::MStateTransition * CoreNetStates::TStartServiceProvider::GetVTablePtr(class TDesC8 &, void *)
	?GetVTablePtr@TStopSelf@CoreNetStates@@SAPAVMStateTransition@NetStateMachine@@AAVTDesC8@@PAX@Z @ 940 NONAME ; class NetStateMachine::MStateTransition * CoreNetStates::TStopSelf::GetVTablePtr(class TDesC8 &, void *)
	?GetVTablePtr@TStoreError@CoreStates@@SAPAVMStateTransition@NetStateMachine@@AAVTDesC8@@PAX@Z @ 941 NONAME ; class NetStateMachine::MStateTransition * CoreStates::TStoreError::GetVTablePtr(class TDesC8 &, void *)
	?GetVTablePtr@TStorePendingBinder@CCommsBinderActivity@PRActivities@@SAPAVMStateTransition@NetStateMachine@@AAVTDesC8@@PAX@Z @ 942 NONAME ; class NetStateMachine::MStateTransition * PRActivities::CCommsBinderActivity::TStorePendingBinder::GetVTablePtr(class TDesC8 &, void *)
	?GetVTablePtr@TStoreProvision@PRStates@@SAPAVMStateTransition@NetStateMachine@@AAVTDesC8@@PAX@Z @ 943 NONAME ; class NetStateMachine::MStateTransition * PRStates::TStoreProvision::GetVTablePtr(class TDesC8 &, void *)
	?GroupId@CSubConNotificationEvent@@QBEJXZ @ 944 NONAME ; long CSubConNotificationEvent::GroupId(void) const
	?GroupId@TNotificationEventBuf@@QBEJXZ @ 945 NONAME ; long TNotificationEventBuf::GroupId(void) const
	?HandleMessageReturnValue@ACFNodeBase@ESock@@MAEXAAUTCFNodeContextBase@2@@Z @ 946 NONAME ; void ESock::ACFNodeBase::HandleMessageReturnValue(struct ESock::TCFNodeContextBase &)
	?HandlePassThroughMessage@ACFMMNodeIdBase@ESock@@MAEXAAUTCFNodeContextBase@2@@Z @ 947 NONAME ; void ESock::ACFMMNodeIdBase::HandlePassThroughMessage(struct ESock::TCFNodeContextBase &)
	?HandlePassThroughMessage@ACFNodeBase@ESock@@MAEXAAUTCFNodeContextBase@2@@Z @ 948 NONAME ; void ESock::ACFNodeBase::HandlePassThroughMessage(struct ESock::TCFNodeContextBase &)
	?HasCapabilityL@AIPCClientPlatsecInfo@ESock@@QBEHIW4TCapability@@@Z @ 949 NONAME ; int ESock::AIPCClientPlatsecInfo::HasCapabilityL(unsigned int, enum TCapability) const
	?HasCapabilityL@ASubSessionPlatsecApiExt@ESock@@UBEHW4TCapability@@@Z @ 950 NONAME ; int ESock::ASubSessionPlatsecApiExt::HasCapabilityL(enum TCapability) const
	?HasCapabilityL@TCFSigRMessage2PlatsecExt@ESock@@MBEHW4TCapability@@@Z @ 951 NONAME ; int ESock::TCFSigRMessage2PlatsecExt::HasCapabilityL(enum TCapability) const
	?IapId@CCommsDatIapView@ESock@@QAEIXZ @ 952 NONAME ; unsigned int ESock::CCommsDatIapView::IapId(void)
	?Id@CConnectionProvdBase@@QBEIXZ @ 953 NONAME ; unsigned int CConnectionProvdBase::Id(void) const
	?Id@CSubConNotificationEvent@@QBEKXZ @ 954 NONAME ; unsigned long CSubConNotificationEvent::Id(void) const
	?Id@TNotificationEventBuf@@QBEKXZ @ 955 NONAME ; unsigned long TNotificationEventBuf::Id(void) const
	?IgnorePreferredCarrier@CActiveCommsMobilityApiExt@@QAEXXZ @ 956 NONAME ; void CActiveCommsMobilityApiExt::IgnorePreferredCarrier(void)
	?IgnorePreferredCarrier@RCommsMobilityApiExt@@QAEXXZ @ 957 NONAME ; void RCommsMobilityApiExt::IgnorePreferredCarrier(void)
	?Info@RSocket@@QAEHAAUTProtocolDesc@@@Z @ 958 NONAME ; int RSocket::Info(struct TProtocolDesc &)
	?Info@TConnProviderInfoPref@ESock@@QBEABVTConnProviderInfo@@XZ @ 959 NONAME ; class TConnProviderInfo const & ESock::TConnProviderInfoPref::Info(void) const
	?InitL@CProtocolBase@@UAEXAAVTDesC16@@@Z @ 960 NONAME ; void CProtocolBase::InitL(class TDesC16 &)
	?InstallExtension@RSocketServ@@QAEHABVTDesC16@@0@Z @ 961 NONAME ; int RSocketServ::InstallExtension(class TDesC16 const &, class TDesC16 const &)
	?InstallExtensionL@SocketServExt@@SAXABVTDesC16@@0@Z @ 962 NONAME ; void SocketServExt::InstallExtensionL(class TDesC16 const &, class TDesC16 const &)
	?InstallFactoryL@CSockManData@@SAPAVCCommsFactoryBase@ESock@@W4EFactoryType@3@ABVTDesC8@@VTUid@@@Z @ 963 NONAME ; class ESock::CCommsFactoryBase * CSockManData::InstallFactoryL(enum ESock::EFactoryType, class TDesC8 const &, class TUid)
	?InstallSchedulerWaitHook@SocketServExt@@SAXPAVTCallBack@@@Z @ 964 NONAME ; void SocketServExt::InstallSchedulerWaitHook(class TCallBack *)
	?Ioctl@RConnection@@QAEXIIAAVTRequestStatus@@@Z @ 965 NONAME ; void RConnection::Ioctl(unsigned int, unsigned int, class TRequestStatus &)
	?Ioctl@RConnection@@QAEXIIAAVTRequestStatus@@PAVTDes8@@@Z @ 966 NONAME ; void RConnection::Ioctl(unsigned int, unsigned int, class TRequestStatus &, class TDes8 *)
	?Ioctl@RSocket@@QAEXIAAVTRequestStatus@@PAVTDes8@@I@Z @ 967 NONAME ; void RSocket::Ioctl(unsigned int, class TRequestStatus &, class TDes8 *, unsigned int)
	?IsBlocked@TDataClientMutex@CCommsBinderActivity@PRActivities@@SAHAAUTCFNodeContextBase@ESock@@@Z @ 968 NONAME ; int PRActivities::CCommsBinderActivity::TDataClientMutex::IsBlocked(struct ESock::TCFNodeContextBase &)
	?IsBlocked@TDefaultDataClientMutex@CCommsBinderActivity@PRActivities@@SAHAAUTCFNodeContextBase@ESock@@@Z @ 969 NONAME ; int PRActivities::CCommsBinderActivity::TDefaultDataClientMutex::IsBlocked(struct ESock::TCFNodeContextBase &)
	?IsBlocked@TServiceProviderMutex@CNoBearer@PRActivities@@SAHAAUTCFNodeContextBase@ESock@@@Z @ 970 NONAME ; int PRActivities::CNoBearer::TServiceProviderMutex::IsBlocked(struct ESock::TCFNodeContextBase &)
	?IsConnectionActiveCancel@RConnection@@QAEXXZ @ 971 NONAME ; void RConnection::IsConnectionActiveCancel(void)
	?IsConnectionActiveRequest@RConnection@@QAEXIAAV?$TPckg@H@@AAVTRequestStatus@@@Z @ 972 NONAME ; void RConnection::IsConnectionActiveRequest(unsigned int, class TPckg<int> &, class TRequestStatus &)
	?IsDataClientPresent@CCommsBinderActivity@PRActivities@@SAPAVRNodeInterface@ESock@@AAUTCFNodeContextBase@4@I@Z @ 973 NONAME ; class ESock::RNodeInterface * PRActivities::CCommsBinderActivity::IsDataClientPresent(struct ESock::TCFNodeContextBase &, unsigned int)
	?IsGeneric@CSubConNotificationEvent@@QBEHXZ @ 974 NONAME ; int CSubConNotificationEvent::IsGeneric(void) const
	?IsGeneric@TNotificationEventBuf@@QBEHXZ @ 975 NONAME ; int TNotificationEventBuf::IsGeneric(void) const
	?IsIdle@CCFNodeActivityBase@ESock@@UBEHXZ @ 976 NONAME ; int ESock::CCFNodeActivityBase::IsIdle(void) const
	?IsIdle@CCFNodeSynchronisedActivity@ESock@@UBEHXZ @ 977 NONAME ; int ESock::CCFNodeSynchronisedActivity::IsIdle(void) const
	?IsIdle@CCFNodeSynchronisedParallelActivity@ESock@@UBEHXZ @ 978 NONAME ; int ESock::CCFNodeSynchronisedParallelActivity::IsIdle(void) const
	?IsStored@AContextStore@ESock@@QBEHXZ @ 979 NONAME ; int ESock::AContextStore::IsStored(void) const
	?IsSubConnectionActiveCancel@RConnection@@QAEXI@Z @ 980 NONAME ; void RConnection::IsSubConnectionActiveCancel(unsigned int)
	?IsSubConnectionActiveRequest@RConnection@@QAEXIIAAV?$TPckg@H@@AAVTRequestStatus@@@Z @ 981 NONAME ; void RConnection::IsSubConnectionActiveRequest(unsigned int, unsigned int, class TPckg<int> &, class TRequestStatus &)
	?JoinSubConnectionL@CServProviderBase@@UAEXAAVCSubConnectionProviderBase@ESock@@@Z @ 982 NONAME ; void CServProviderBase::JoinSubConnectionL(class ESock::CSubConnectionProviderBase &)
	?LastProgressError@RConnection@@QAEHAAVTNifProgress@@@Z @ 983 NONAME ; int RConnection::LastProgressError(class TNifProgress &)
	?LayerExists@CConfigAccessPointConfig@ESock@@QBEHABVTConfigAccessPointLayer@2@@Z @ 984 NONAME ; int ESock::CConfigAccessPointConfig::LayerExists(class ESock::TConfigAccessPointLayer const &) const
	?LeaveSubConnection@CServProviderBase@@UAEXAAVCSubConnectionProviderBase@ESock@@@Z @ 985 NONAME ; void CServProviderBase::LeaveSubConnection(class ESock::CSubConnectionProviderBase &)
	?Length@CCommsDataObjectBase@ESock@@UBEHXZ @ 986 NONAME ; int ESock::CCommsDataObjectBase::Length(void) const
	?Length@CParameterBundleBase@@QBEIXZ @ 987 NONAME ; unsigned int CParameterBundleBase::Length(void) const
	?Length@CParameterSetContainer@@UBEHXZ @ 988 NONAME ; int CParameterSetContainer::Length(void) const
	?Length@CSubConParameterBundle@@QBEIXZ @ 989 NONAME ; unsigned int CSubConParameterBundle::Length(void) const
	?Length@CSubConParameterFamily@@QBEIXZ @ 990 NONAME ; unsigned int CSubConParameterFamily::Length(void) const
	?Length@RSubConParameterBundle@@QBEIXZ @ 991 NONAME ; unsigned int RSubConParameterBundle::Length(void) const
	?Length@TSubConnectionEvent@@QBEIXZ @ 992 NONAME ; unsigned int TSubConnectionEvent::Length(void) const
	?ListImplementationsL@CProtocolConfigLoader@ESock@@SAXAAV?$RPointerArray@VCImplementationInformation@@@@@Z @ 993 NONAME ; void ESock::CProtocolConfigLoader::ListImplementationsL(class RPointerArray<class CImplementationInformation> &)
	?Listen@RSocket@@QAEHI@Z @ 994 NONAME ; int RSocket::Listen(unsigned int)
	?Listen@RSocket@@QAEHIABVTDesC8@@@Z @ 995 NONAME ; int RSocket::Listen(unsigned int, class TDesC8 const &)
	?Load@CCommsDataObjectBase@ESock@@UAEHAAVTPtrC8@@@Z @ 996 NONAME ; int ESock::CCommsDataObjectBase::Load(class TPtrC8 &)
	?Load@CParameterSetContainer@@UAEHAAVTPtrC8@@@Z @ 997 NONAME ; int CParameterSetContainer::Load(class TPtrC8 &)
	?Load@CSubConParameterBundle@@QAEHABVTDesC8@@@Z @ 998 NONAME ; int CSubConParameterBundle::Load(class TDesC8 const &)
	?Load@CSubConParameterFamily@@QAEHAAVTPtrC8@@@Z @ 999 NONAME ; int CSubConParameterFamily::Load(class TPtrC8 &)
	?Load@RSubConParameterBundle@@QAEHABVTDesC8@@@Z @ 1000 NONAME ; int RSubConParameterBundle::Load(class TDesC8 const &)
	?LoadAccessPointRecordL@TierManagerUtils@ESock@@SAPAVCCDAccessPointRecord@CommsDat@@ABVTProviderInfo@2@AAVCMDBSession@4@@Z @ 1001 NONAME ; class CommsDat::CCDAccessPointRecord * ESock::TierManagerUtils::LoadAccessPointRecordL(class ESock::TProviderInfo const &, class CommsDat::CMDBSession &)
	?LoadAccessPointRecordL@TierManagerUtils@ESock@@SAPAVCCDAccessPointRecord@CommsDat@@IAAVCMDBSession@4@@Z @ 1002 NONAME ; class CommsDat::CCDAccessPointRecord * ESock::TierManagerUtils::LoadAccessPointRecordL(unsigned int, class CommsDat::CMDBSession &)
	?LoadAccessPointRecordsL@TierManagerUtils@ESock@@SAPAV?$CMDBRecordSet@VCCDAccessPointRecord@CommsDat@@@CommsDat@@VTUid@@AAVCMDBSession@4@@Z @ 1003 NONAME ; class CommsDat::CMDBRecordSet<class CommsDat::CCDAccessPointRecord> * ESock::TierManagerUtils::LoadAccessPointRecordsL(class TUid, class CommsDat::CMDBSession &)
	?LoadAccessPointRecordsL@TierManagerUtils@ESock@@SAPAV?$CMDBRecordSet@VCCDAccessPointRecord@CommsDat@@@CommsDat@@VTUid@@ABV?$RArray@UTAccessPointInfo@@@@AAVCMDBSession@4@@Z @ 1004 NONAME ABSENT ; class CommsDat::CMDBRecordSet<class CommsDat::CCDAccessPointRecord> * ESock::TierManagerUtils::LoadAccessPointRecordsL(class TUid, class RArray<struct TAccessPointInfo> const &, class CommsDat::CMDBSession &)
	?LoadConfigAccessPointRecordL@TierManagerUtils@ESock@@SAPAVCCDConfigAccessPointRecord@CommsDat@@IAAVCMDBSession@4@@Z @ 1005 NONAME ; class CommsDat::CCDConfigAccessPointRecord * ESock::TierManagerUtils::LoadConfigAccessPointRecordL(unsigned int, class CommsDat::CMDBSession &)
	?LoadContext@AContextStore@ESock@@IAEPAUTCFNodeContextBase@2@AAVACFNodeBase@2@PAVCCFNodeActivityBase@2@AAVTDes8@@2@Z @ 1006 NONAME ; struct ESock::TCFNodeContextBase * ESock::AContextStore::LoadContext(class ESock::ACFNodeBase &, class ESock::CCFNodeActivityBase *, class TDes8 &, class TDes8 &)
	?LoadCprRecordL@TierManagerUtils@ESock@@SAPAVCCDCprRecord@CommsDat@@IAAVCMDBSession@4@@Z @ 1007 NONAME ; class CommsDat::CCDCprRecord * ESock::TierManagerUtils::LoadCprRecordL(unsigned int, class CommsDat::CMDBSession &)
	?LoadGlobalSettingsRecordL@TierManagerUtils@ESock@@SAPAVCCDGlobalSettingsRecord@CommsDat@@AAVCMDBSession@4@@Z @ 1008 NONAME ; class CommsDat::CCDGlobalSettingsRecord * ESock::TierManagerUtils::LoadGlobalSettingsRecordL(class CommsDat::CMDBSession &)
	?LoadIapRecordL@TierManagerUtils@ESock@@SAPAVCCDIAPRecord@CommsDat@@IAAVCMDBSession@4@@Z @ 1009 NONAME ; class CommsDat::CCDIAPRecord * ESock::TierManagerUtils::LoadIapRecordL(unsigned int, class CommsDat::CMDBSession &)
	?LoadIapRecordsL@TierManagerUtils@ESock@@SAPAV?$CMDBRecordSet@VCCDIAPRecord@CommsDat@@@CommsDat@@AAVCMDBSession@4@@Z @ 1010 NONAME ; class CommsDat::CMDBRecordSet<class CommsDat::CCDIAPRecord> * ESock::TierManagerUtils::LoadIapRecordsL(class CommsDat::CMDBSession &)
	?LoadL@CCommsDataObjectBase@ESock@@SAPAV12@AAVTPtrC8@@@Z @ 1011 NONAME ; class ESock::CCommsDataObjectBase * ESock::CCommsDataObjectBase::LoadL(class TPtrC8 &)
	?LoadL@CParameterSetContainer@@SAPAV1@AAVCParameterBundleBase@@AAVTPtrC8@@@Z @ 1012 NONAME ; class CParameterSetContainer * CParameterSetContainer::LoadL(class CParameterBundleBase &, class TPtrC8 &)
	?LoadL@CParameterSetContainer@@SAPAV1@AAVTPtrC8@@@Z @ 1013 NONAME ; class CParameterSetContainer * CParameterSetContainer::LoadL(class TPtrC8 &)
	?LoadL@CSubConParameterBundle@@SAPAV1@AAVTDesC8@@@Z @ 1014 NONAME ; class CSubConParameterBundle * CSubConParameterBundle::LoadL(class TDesC8 &)
	?LoadL@CSubConParameterFamily@@SAPAV1@AAVCSubConParameterBundle@@AAVTPtrC8@@@Z @ 1015 NONAME ; class CSubConParameterFamily * CSubConParameterFamily::LoadL(class CSubConParameterBundle &, class TPtrC8 &)
	?LoadL@CSubConParameterFamily@@SAPAV1@AAVRSubConParameterBundle@@AAVTPtrC8@@@Z @ 1016 NONAME ; class CSubConParameterFamily * CSubConParameterFamily::LoadL(class RSubConParameterBundle &, class TPtrC8 &)
	?LoadMCprRecordL@TierManagerUtils@ESock@@SAPAVCCDMCprRecord@CommsDat@@IAAVCMDBSession@4@@Z @ 1017 NONAME ; class CommsDat::CCDMCprRecord * ESock::TierManagerUtils::LoadMCprRecordL(unsigned int, class CommsDat::CMDBSession &)
	?LoadMCprRecordL@TierManagerUtils@ESock@@SAPAVCCDMCprRecord@CommsDat@@VTUid@@AAVCMDBSession@4@@Z @ 1018 NONAME ; class CommsDat::CCDMCprRecord * ESock::TierManagerUtils::LoadMCprRecordL(class TUid, class CommsDat::CMDBSession &)
	?LoadProtocolRecordL@TierManagerUtils@ESock@@SAPAVCCDProtocolRecord@CommsDat@@IAAVCMDBSession@4@@Z @ 1019 NONAME ; class CommsDat::CCDProtocolRecord * ESock::TierManagerUtils::LoadProtocolRecordL(unsigned int, class CommsDat::CMDBSession &)
	?LoadSCprRecordL@TierManagerUtils@ESock@@SAPAVCCDSCprRecord@CommsDat@@IAAVCMDBSession@4@@Z @ 1020 NONAME ; class CommsDat::CCDSCprRecord * ESock::TierManagerUtils::LoadSCprRecordL(unsigned int, class CommsDat::CMDBSession &)
	?LoadTierRecordL@TierManagerUtils@ESock@@SAPAVCCDTierRecord@CommsDat@@VTUid@@AAVCMDBSession@4@@Z @ 1021 NONAME ; class CommsDat::CCDTierRecord * ESock::TierManagerUtils::LoadTierRecordL(class TUid, class CommsDat::CMDBSession &)
	?LocalName@RSocket@@QAEXAAVTSockAddr@@@Z @ 1022 NONAME ; void RSocket::LocalName(class TSockAddr &)
	?LocalPort@RSocket@@QAEIXZ @ 1023 NONAME ; unsigned int RSocket::LocalPort(void)
	?MapRankingAndDirectionToPrefsL@TierManagerUtils@ESock@@SAXIW4TCommDbConnectionDirection@@AAVTCommDbConnPref@@AAVCMDBSession@CommsDat@@@Z @ 1024 NONAME ; void ESock::TierManagerUtils::MapRankingAndDirectionToPrefsL(unsigned int, enum TCommDbConnectionDirection, class TCommDbConnPref &, class CommsDat::CMDBSession &)
	?MapRankingToPrefsL@TierManagerUtils@ESock@@SAXIAAVTCommDbConnPref@@AAVCMDBSession@CommsDat@@@Z @ 1025 NONAME ; void ESock::TierManagerUtils::MapRankingToPrefsL(unsigned int, class TCommDbConnPref &, class CommsDat::CMDBSession &)
	?MapTierIdsL@TierManagerUtils@ESock@@SA?AVTUid@@V3@I@Z @ 1026 NONAME ; class TUid ESock::TierManagerUtils::MapTierIdsL(class TUid, unsigned int)
	?MarkMeForDeletion@AFactoryObject@ESock@@QAEXXZ @ 1027 NONAME ; void ESock::AFactoryObject::MarkMeForDeletion(void)
	?Match@CCFMessageHookEntry@ESock@@MBEHABVTCFDeregisterHookSignal@CommsFW@@@Z @ 1028 NONAME ; int ESock::CCFMessageHookEntry::Match(class CommsFW::TCFDeregisterHookSignal const &) const
	?Match@CCFMessageHookEntry@ESock@@UAEHABVTCFSignalBase@CommsFW@@ABVTCookie@4@@Z @ 1029 NONAME ; int ESock::CCFMessageHookEntry::Match(class CommsFW::TCFSignalBase const &, class CommsFW::TCookie const &)
	?Match@XConnectionFactoryQuery@ESock@@UAE?AW4TMatchResult@MCommsFactoryQuery@2@AAUTFactoryObjectInfo@2@@Z @ 1030 NONAME ; enum ESock::MCommsFactoryQuery::TMatchResult ESock::XConnectionFactoryQuery::Match(struct ESock::TFactoryObjectInfo &)
	?Match@XMetaConnectionFactoryQuery@ESock@@UAE?AW4TMatchResult@MCommsFactoryQuery@2@AAUTFactoryObjectInfo@2@@Z @ 1031 NONAME ; enum ESock::MCommsFactoryQuery::TMatchResult ESock::XMetaConnectionFactoryQuery::Match(struct ESock::TFactoryObjectInfo &)
	?Match@XProtocolIntfFactoryQuery@ESock@@UAE?AW4TMatchResult@MCommsFactoryQuery@2@AAUTFactoryObjectInfo@2@@Z @ 1032 NONAME ; enum ESock::MCommsFactoryQuery::TMatchResult ESock::XProtocolIntfFactoryQuery::Match(struct ESock::TFactoryObjectInfo &)
	?Match@XSubConnectionFactoryQuery@ESock@@UAE?AW4TMatchResult@MCommsFactoryQuery@2@AAUTFactoryObjectInfo@2@@Z @ 1033 NONAME ; enum ESock::MCommsFactoryQuery::TMatchResult ESock::XSubConnectionFactoryQuery::Match(struct ESock::TFactoryObjectInfo &)
	?Match@XSubConnectionFlowFactoryQuery@ESock@@UAE?AW4TMatchResult@MCommsFactoryQuery@2@AAUTFactoryObjectInfo@2@@Z @ 1034 NONAME ; enum ESock::MCommsFactoryQuery::TMatchResult ESock::XSubConnectionFlowFactoryQuery::Match(struct ESock::TFactoryObjectInfo &)
	?Match@XTierManagerFactoryQuery@@UAE?AW4TMatchResult@MCommsFactoryQuery@ESock@@AAUTFactoryObjectInfo@4@@Z @ 1035 NONAME ; enum ESock::MCommsFactoryQuery::TMatchResult XTierManagerFactoryQuery::Match(struct ESock::TFactoryObjectInfo &)
	?MaxCount@TConnIdList@@SAHXZ @ 1036 NONAME ; int TConnIdList::MaxCount(void)
	?MigrateToPreferredCarrier@CActiveCommsMobilityApiExt@@QAEXXZ @ 1037 NONAME ; void CActiveCommsMobilityApiExt::MigrateToPreferredCarrier(void)
	?MigrateToPreferredCarrier@RCommsMobilityApiExt@@QAEXXZ @ 1038 NONAME ; void RCommsMobilityApiExt::MigrateToPreferredCarrier(void)
	?Name@RConnection@@QAEHAAV?$TBuf@$0IA@@@@Z @ 1039 NONAME ; int RConnection::Name(class TBuf<128> &)
	?Name@RSocket@@QAEHAAV?$TBuf@$0IA@@@@Z @ 1040 NONAME ; int RSocket::Name(class TBuf<128> &)
	?NewCarrierAccepted@CActiveCommsMobilityApiExt@@QAEXXZ @ 1041 NONAME ; void CActiveCommsMobilityApiExt::NewCarrierAccepted(void)
	?NewCarrierAccepted@RCommsMobilityApiExt@@QAEXXZ @ 1042 NONAME ; void RCommsMobilityApiExt::NewCarrierAccepted(void)
	?NewCarrierActive@CCommsMobilitySrvResp@@SAXAAPAV1@UTAccessPointInfo@@H@Z @ 1043 NONAME ABSENT ; void CCommsMobilitySrvResp::NewCarrierActive(class CCommsMobilitySrvResp * &, struct TAccessPointInfo, int)
	?NewCarrierRejected@CActiveCommsMobilityApiExt@@QAEXXZ @ 1044 NONAME ; void CActiveCommsMobilityApiExt::NewCarrierRejected(void)
	?NewCarrierRejected@RCommsMobilityApiExt@@QAEXXZ @ 1045 NONAME ; void RCommsMobilityApiExt::NewCarrierRejected(void)
	?NewClientInterfaceL@ACFNodeBase@ESock@@MAEPAVRNodeInterface@2@HPAX@Z @ 1046 NONAME ; class ESock::RNodeInterface * ESock::ACFNodeBase::NewClientInterfaceL(int, void *)
	?NewClientInterfaceL@CMetaConnectionProviderBase@ESock@@MAEPAVRNodeInterface@2@HPAX@Z @ 1047 NONAME ; class ESock::RNodeInterface * ESock::CMetaConnectionProviderBase::NewClientInterfaceL(int, void *)
	?NewHookEntryL@TCFRegisterMessageHook@ESock@@MBEPAVCCFHookEntry@CommsFW@@XZ @ 1048 NONAME ; class CommsFW::CCFHookEntry * ESock::TCFRegisterMessageHook::NewHookEntryL(void) const
	?NewHostResolverL@CProtocolBase@@UAEPAVCHostResolvProvdBase@@XZ @ 1049 NONAME ; class CHostResolvProvdBase * CProtocolBase::NewHostResolverL(void)
	?NewInstanceL@CExtItfMsgPluginInfo@ESock@@SAPAV12@ABUSTypeId@Meta@@@Z @ 1050 NONAME ; class ESock::CExtItfMsgPluginInfo * ESock::CExtItfMsgPluginInfo::NewInstanceL(struct Meta::STypeId const &)
	?NewL@CAccessPointConfig@ESock@@SAPAV12@ABVTProviderInfo@2@@Z @ 1051 NONAME ; class ESock::CAccessPointConfig * ESock::CAccessPointConfig::NewL(class ESock::TProviderInfo const &)
	?NewL@CActiveCommsMobilityApiExt@@SAPAV1@AAVRCommsSubSession@@AAVMMobilityProtocolResp@@@Z @ 1052 NONAME ; class CActiveCommsMobilityApiExt * CActiveCommsMobilityApiExt::NewL(class RCommsSubSession &, class MMobilityProtocolResp &)
	?NewL@CBindToRequestActivity@PRActivities@@SAPAVCCFNodeActivityBase@ESock@@ABUTCFNodeActivity@4@AAVACFNodeBase@4@@Z @ 1053 NONAME ; class ESock::CCFNodeActivityBase * PRActivities::CBindToRequestActivity::NewL(struct ESock::TCFNodeActivity const &, class ESock::ACFNodeBase &)
	?NewL@CCFNodeActivityBase@ESock@@SAPAV12@ABUTCFNodeActivity@2@AAVACFNodeBase@2@@Z @ 1054 NONAME ; class ESock::CCFNodeActivityBase * ESock::CCFNodeActivityBase::NewL(struct ESock::TCFNodeActivity const &, class ESock::ACFNodeBase &)
	?NewL@CCFNodeParallelActivityBase@ESock@@SAPAVCCFNodeActivityBase@2@ABUTCFNodeActivity@2@AAVACFNodeBase@2@@Z @ 1055 NONAME ; class ESock::CCFNodeActivityBase * ESock::CCFNodeParallelActivityBase::NewL(struct ESock::TCFNodeActivity const &, class ESock::ACFNodeBase &)
	?NewL@CCFNodeRetryActivity@ESock@@SAPAVCCFNodeActivityBase@2@ABUTCFNodeActivity@2@AAVACFNodeBase@2@@Z @ 1056 NONAME ; class ESock::CCFNodeActivityBase * ESock::CCFNodeRetryActivity::NewL(struct ESock::TCFNodeActivity const &, class ESock::ACFNodeBase &)
	?NewL@CCFNodeRetryParallelActivity@ESock@@SAPAVCCFNodeActivityBase@2@ABUTCFNodeActivity@2@AAVACFNodeBase@2@@Z @ 1057 NONAME ; class ESock::CCFNodeActivityBase * ESock::CCFNodeRetryParallelActivity::NewL(struct ESock::TCFNodeActivity const &, class ESock::ACFNodeBase &)
	?NewL@CCFNodeRetrySynchronisedParallelActivity@ESock@@SAPAVCCFNodeActivityBase@2@ABUTCFNodeActivity@2@AAVACFNodeBase@2@@Z @ 1058 NONAME ; class ESock::CCFNodeActivityBase * ESock::CCFNodeRetrySynchronisedParallelActivity::NewL(struct ESock::TCFNodeActivity const &, class ESock::ACFNodeBase &)
	?NewL@CCFNodeSynchronisedActivity@ESock@@SAPAVCCFNodeActivityBase@2@ABUTCFNodeActivity@2@AAVACFNodeBase@2@@Z @ 1059 NONAME ; class ESock::CCFNodeActivityBase * ESock::CCFNodeSynchronisedActivity::NewL(struct ESock::TCFNodeActivity const &, class ESock::ACFNodeBase &)
	?NewL@CCFNodeSynchronisedParallelActivity@ESock@@SAPAVCCFNodeActivityBase@2@ABUTCFNodeActivity@2@AAVACFNodeBase@2@@Z @ 1060 NONAME ; class ESock::CCFNodeActivityBase * ESock::CCFNodeSynchronisedParallelActivity::NewL(struct ESock::TCFNodeActivity const &, class ESock::ACFNodeBase &)
	?NewL@CCommsApiExtIpcOpenResponder@ESock@@SAPAV12@W4TSupportedCommsApiExt@@IABVRMessage2@@@Z @ 1061 NONAME ; class ESock::CCommsApiExtIpcOpenResponder * ESock::CCommsApiExtIpcOpenResponder::NewL(enum TSupportedCommsApiExt, unsigned int, class RMessage2 const &)
	?NewL@CCommsApiExtIpcResponder@ESock@@SAPAV12@AAVRResponseMsg@Elements@@@Z @ 1062 NONAME ; class ESock::CCommsApiExtIpcResponder * ESock::CCommsApiExtIpcResponder::NewL(class Elements::RResponseMsg &)
	?NewL@CCommsApiExtIpcResponder@ESock@@SAPAV12@ABVRMessage2@@@Z @ 1063 NONAME ; class ESock::CCommsApiExtIpcResponder * ESock::CCommsApiExtIpcResponder::NewL(class RMessage2 const &)
	?NewL@CCommsApiExtRespMsg@@SAPAV1@ABUSTypeId@Meta@@@Z @ 1064 NONAME ; class CCommsApiExtRespMsg * CCommsApiExtRespMsg::NewL(struct Meta::STypeId const &)
	?NewL@CCommsApiExtRespMsg@@SAPAV1@ABVTDesC8@@@Z @ 1065 NONAME ; class CCommsApiExtRespMsg * CCommsApiExtRespMsg::NewL(class TDesC8 const &)
	?NewL@CCommsBinderActivity@PRActivities@@SAPAVCCFNodeActivityBase@ESock@@ABUTCFNodeActivity@4@AAVACFNodeBase@4@@Z @ 1066 NONAME ; class ESock::CCFNodeActivityBase * PRActivities::CCommsBinderActivity::NewL(struct ESock::TCFNodeActivity const &, class ESock::ACFNodeBase &)
	?NewL@CCommsDatIapView@ESock@@SAPAV12@I@Z @ 1067 NONAME ; class ESock::CCommsDatIapView * ESock::CCommsDatIapView::NewL(unsigned int)
	?NewL@CCommsDataObjectBase@ESock@@SAPAV12@PAVXCommsDataObject@2@@Z @ 1068 NONAME ; class ESock::CCommsDataObjectBase * ESock::CCommsDataObjectBase::NewL(class ESock::XCommsDataObject *)
	?NewL@CCommsMobilitySrvIpcResponder@ESock@@CAPAV12@AAVRResponseMsg@Elements@@@Z @ 1069 NONAME ; class ESock::CCommsMobilitySrvIpcResponder * ESock::CCommsMobilitySrvIpcResponder::NewL(class Elements::RResponseMsg &)
	?NewL@CConfigAccessPointConfig@ESock@@SAPAV12@XZ @ 1070 NONAME ; class ESock::CConfigAccessPointConfig * ESock::CConfigAccessPointConfig::NewL(void)
	?NewL@CConnectionFactoryContainer@ESock@@SAPAV12@XZ @ 1071 NONAME ; class ESock::CConnectionFactoryContainer * ESock::CConnectionFactoryContainer::NewL(void)
	?NewL@CCountLoopActivityBase@CoreActivities@@SAPAVCCFNodeActivityBase@ESock@@ABUTCFNodeActivity@4@AAVACFNodeBase@4@@Z @ 1072 NONAME ; class ESock::CCFNodeActivityBase * CoreActivities::CCountLoopActivityBase::NewL(struct ESock::TCFNodeActivity const &, class ESock::ACFNodeBase &)
	?NewL@CDataMonitoringResponder@ESock@@CAPAV12@AAVRResponseMsg@Elements@@@Z @ 1073 NONAME ; class ESock::CDataMonitoringResponder * ESock::CDataMonitoringResponder::NewL(class Elements::RResponseMsg &)
	?NewL@CDestroyActivity@CoreActivities@@SAPAVCCFNodeActivityBase@ESock@@ABUTCFNodeActivity@4@AAVACFNodeBase@4@@Z @ 1074 NONAME ; class ESock::CCFNodeActivityBase * CoreActivities::CDestroyActivity::NewL(struct ESock::TCFNodeActivity const &, class ESock::ACFNodeBase &)
	?NewL@CESockIniData@@SAPAV1@ABVTDesC16@@@Z @ 1075 NONAME ; class CESockIniData * CESockIniData::NewL(class TDesC16 const &)
	?NewL@CESockIniData@@SAPAV1@PBVCOwnEntryList@CommsFW@@@Z @ 1076 NONAME ; class CESockIniData * CESockIniData::NewL(class CommsFW::COwnEntryList const *)
	?NewL@CLegacyDataMonitoringResponder@ESock@@CAPAV12@AAVRResponseMsg@Elements@@@Z @ 1077 NONAME ; class ESock::CLegacyDataMonitoringResponder * ESock::CLegacyDataMonitoringResponder::NewL(class Elements::RResponseMsg &)
	?NewL@CNoBearer@PRActivities@@SAPAVCCFNodeActivityBase@ESock@@ABUTCFNodeActivity@4@AAVACFNodeBase@4@@Z @ 1078 NONAME ; class ESock::CCFNodeActivityBase * PRActivities::CNoBearer::NewL(struct ESock::TCFNodeActivity const &, class ESock::ACFNodeBase &)
	?NewL@CParameterSetContainer@@SAPAV1@AAVCParameterBundleBase@@K@Z @ 1079 NONAME ; class CParameterSetContainer * CParameterSetContainer::NewL(class CParameterBundleBase &, unsigned long)
	?NewL@CParameterSetContainer@@SAPAV1@K@Z @ 1080 NONAME ; class CParameterSetContainer * CParameterSetContainer::NewL(unsigned long)
	?NewL@CProtocolConfigLoader@ESock@@SAPAV12@PAVCMDBSession@CommsDat@@VTUid@@@Z @ 1081 NONAME ; class ESock::CProtocolConfigLoader * ESock::CProtocolConfigLoader::NewL(class CommsDat::CMDBSession *, class TUid)
	?NewL@CProtocolConfigLoader@ESock@@SAPAV12@VTUid@@@Z @ 1082 NONAME ; class ESock::CProtocolConfigLoader * ESock::CProtocolConfigLoader::NewL(class TUid)
	?NewL@CProtocolFamilyFactoryBase@ESock@@SAPAV12@ABVTDesC8@@AAVCProtocolFamilyFactoryContainer@2@@Z @ 1083 NONAME ; class ESock::CProtocolFamilyFactoryBase * ESock::CProtocolFamilyFactoryBase::NewL(class TDesC8 const &, class ESock::CProtocolFamilyFactoryContainer &)
	?NewL@CRejoinDataClientActivity@PRActivities@@SAPAVCCFNodeActivityBase@ESock@@ABUTCFNodeActivity@4@AAVACFNodeBase@4@@Z @ 1084 NONAME ; class ESock::CCFNodeActivityBase * PRActivities::CRejoinDataClientActivity::NewL(struct ESock::TCFNodeActivity const &, class ESock::ACFNodeBase &)
	?NewL@CStartActivity@PRActivities@@SAPAVCCFNodeActivityBase@ESock@@ABUTCFNodeActivity@4@AAVACFNodeBase@4@@Z @ 1085 NONAME ; class ESock::CCFNodeActivityBase * PRActivities::CStartActivity::NewL(struct ESock::TCFNodeActivity const &, class ESock::ACFNodeBase &)
	?NewL@CSubConNotificationEvent@@SAPAV1@ABUSTypeId@Meta@@@Z @ 1086 NONAME ; class CSubConNotificationEvent * CSubConNotificationEvent::NewL(struct Meta::STypeId const &)
	?NewL@CSubConNotificationEvent@@SAPAV1@ABVTNotificationEventBuf@@@Z @ 1087 NONAME ; class CSubConNotificationEvent * CSubConNotificationEvent::NewL(class TNotificationEventBuf const &)
	?NewL@CSubConParameterBundle@@SAPAV1@XZ @ 1088 NONAME ; class CSubConParameterBundle * CSubConParameterBundle::NewL(void)
	?NewL@CSubConParameterFamily@@SAPAV1@AAVCSubConParameterBundle@@K@Z @ 1089 NONAME ; class CSubConParameterFamily * CSubConParameterFamily::NewL(class CSubConParameterBundle &, unsigned long)
	?NewL@CSubConParameterFamily@@SAPAV1@AAVRSubConParameterBundle@@K@Z @ 1090 NONAME ; class CSubConParameterFamily * CSubConParameterFamily::NewL(class RSubConParameterBundle &, unsigned long)
	?NewL@CSubConParameterSet@@SAPAV1@ABUSTypeId@Meta@@@Z @ 1091 NONAME ; class CSubConParameterSet * CSubConParameterSet::NewL(struct Meta::STypeId const &)
	?NewL@CSubConnectionFactoryContainer@ESock@@SAPAV12@XZ @ 1092 NONAME ; class ESock::CSubConnectionFactoryContainer * ESock::CSubConnectionFactoryContainer::NewL(void)
	?NewLC@CCommsDatIapView@ESock@@SAPAV12@I@Z @ 1093 NONAME ; class ESock::CCommsDatIapView * ESock::CCommsDatIapView::NewLC(unsigned int)
	?NewNetDatabaseL@CProtocolBase@@UAEPAVCNetDBProvdBase@@XZ @ 1094 NONAME ; class CNetDBProvdBase * CProtocolBase::NewNetDatabaseL(void)
	?NewSAPL@CProtocolBase@@UAEPAVCServProviderBase@@I@Z @ 1095 NONAME ; class CServProviderBase * CProtocolBase::NewSAPL(unsigned int)
	?NewServiceResolverL@CProtocolBase@@UAEPAVCServiceResolvProvdBase@@XZ @ 1096 NONAME ; class CServiceResolvProvdBase * CProtocolBase::NewServiceResolverL(void)
	?Next@CCFNodeActivityBase@ESock@@UAEHAAUTCFNodeContextBase@2@ABUTCFNodePeerId@2@@Z @ 1097 NONAME ; int ESock::CCFNodeActivityBase::Next(struct ESock::TCFNodeContextBase &, struct ESock::TCFNodePeerId const &)
	?Next@RHostResolver@@QAEHAAV?$TPckgBuf@VTNameRecord@@@@@Z @ 1098 NONAME ; int RHostResolver::Next(class TPckgBuf<class TNameRecord> &)
	?Next@RHostResolver@@QAEXAAV?$TPckgBuf@VTNameRecord@@@@AAVTRequestStatus@@@Z @ 1099 NONAME ; void RHostResolver::Next(class TPckgBuf<class TNameRecord> &, class TRequestStatus &)
	?NodeId@ACFMMNodeIdBase@ESock@@MBEABUTCommsId@2@XZ @ 1100 NONAME ; struct ESock::TCommsId const & ESock::ACFMMNodeIdBase::NodeId(void) const
	?NodeId@ACFNodeIdBase@ESock@@MBEABUTCommsId@2@XZ @ 1101 NONAME ; struct ESock::TCommsId const & ESock::ACFNodeIdBase::NodeId(void) const
	?Notify@CCFMessageHookEntry@ESock@@UBEXABVTCFSignalBase@CommsFW@@@Z @ 1102 NONAME ; void ESock::CCFMessageHookEntry::Notify(class CommsFW::TCFSignalBase const &) const
	?NotifyClientsL@CSubConnectionProviderBase@ESock@@IAEXABVCSubConNotificationEvent@@@Z @ 1103 NONAME ; void ESock::CSubConnectionProviderBase::NotifyClientsL(class CSubConNotificationEvent const &)
	?NullCommsId@TCommsId@ESock@@SAABU12@XZ @ 1104 NONAME ; struct ESock::TCommsId const & ESock::TCommsId::NullCommsId(void)
	?NullProviderInfo@TProviderInfo@ESock@@SAABV12@XZ @ 1105 NONAME ; class ESock::TProviderInfo const & ESock::TProviderInfo::NullProviderInfo(void)
	?NumProtocols@RSocketServ@@QAEHAAI@Z @ 1106 NONAME ; int RSocketServ::NumProtocols(unsigned int &)
	?Open@CProtocolBase@@UAEXXZ @ 1107 NONAME ; void CProtocolBase::Open(void)
	?Open@CProtocolFamilyBase@@UAEXXZ @ 1108 NONAME ; void CProtocolFamilyBase::Open(void)
	?Open@CRefCountOwnerBase@ESock@@QAEXXZ @ 1109 NONAME ; void ESock::CRefCountOwnerBase::Open(void)
	?Open@RCommsApiExtensionBase@@IAEHAAVRCommsSession@@W4TSupportedCommsApiExt@@@Z @ 1110 NONAME ; int RCommsApiExtensionBase::Open(class RCommsSession &, enum TSupportedCommsApiExt)
	?Open@RCommsApiExtensionBase@@IAEHAAVRCommsSubSession@@W4TSupportedCommsApiExt@@@Z @ 1111 NONAME ; int RCommsApiExtensionBase::Open(class RCommsSubSession &, enum TSupportedCommsApiExt)
	?Open@RConnection@@QAEHAAVRSocketServ@@AAV?$TBuf@$0IA@@@@Z @ 1112 NONAME ; int RConnection::Open(class RSocketServ &, class TBuf<128> &)
	?Open@RConnection@@QAEHAAVRSocketServ@@I@Z @ 1113 NONAME ; int RConnection::Open(class RSocketServ &, unsigned int)
	?Open@RHostResolver@@QAEHAAVRSocketServ@@II@Z @ 1114 NONAME ; int RHostResolver::Open(class RSocketServ &, unsigned int, unsigned int)
	?Open@RHostResolver@@QAEHAAVRSocketServ@@IIAAVRConnection@@@Z @ 1115 NONAME ; int RHostResolver::Open(class RSocketServ &, unsigned int, unsigned int, class RConnection &)
	?Open@RNetDatabase@@QAEHAAVRSocketServ@@II@Z @ 1116 NONAME ; int RNetDatabase::Open(class RSocketServ &, unsigned int, unsigned int)
	?Open@RNodeInterface@ESock@@QAEXABUTCommsId@2@I@Z @ 1117 NONAME ; void ESock::RNodeInterface::Open(struct ESock::TCommsId const &, unsigned int)
	?Open@RServiceResolver@@QAEHAAVRSocketServ@@III@Z @ 1118 NONAME ; int RServiceResolver::Open(class RSocketServ &, unsigned int, unsigned int, unsigned int)
	?Open@RSocket@@QAEHAAVRSocketServ@@@Z @ 1119 NONAME ; int RSocket::Open(class RSocketServ &)
	?Open@RSocket@@QAEHAAVRSocketServ@@ABVTDesC16@@@Z @ 1120 NONAME ; int RSocket::Open(class RSocketServ &, class TDesC16 const &)
	?Open@RSocket@@QAEHAAVRSocketServ@@III@Z @ 1121 NONAME ; int RSocket::Open(class RSocketServ &, unsigned int, unsigned int, unsigned int)
	?Open@RSocket@@QAEHAAVRSocketServ@@IIIAAVRConnection@@@Z @ 1122 NONAME ; int RSocket::Open(class RSocketServ &, unsigned int, unsigned int, unsigned int, class RConnection &)
	?Open@RSocket@@QAEHAAVRSocketServ@@IIIAAVRSubConnection@@@Z @ 1123 NONAME ; int RSocket::Open(class RSocketServ &, unsigned int, unsigned int, unsigned int, class RSubConnection &)
	?Open@RSubConnection@@AAEHAAVRSocketServ@@W4TSubConnType@TSubConnOpen@@AAVRConnection@@@Z @ 1124 NONAME ; int RSubConnection::Open(class RSocketServ &, enum TSubConnOpen::TSubConnType, class RConnection &)
	?Open@RSubConnection@@QAEHAAVRSocketServ@@W4TSubConnType@1@AAVRConnection@@@Z @ 1125 NONAME ; int RSubConnection::Open(class RSocketServ &, enum RSubConnection::TSubConnType, class RConnection &)
	?OpenClientProcess@AIPCClientInfo@ESock@@IBEHIAAVRProcess@@@Z @ 1126 NONAME ; int ESock::AIPCClientInfo::OpenClientProcess(unsigned int, class RProcess &) const
	?OpenExtensionInterface@AExtensionInterfaceThickBase@ESock@@UAEXIABUTCommsId@2@PAVCCommsApiExtResponder@2@@Z @ 1127 NONAME ; void ESock::AExtensionInterfaceThickBase::OpenExtensionInterface(unsigned int, struct ESock::TCommsId const &, class ESock::CCommsApiExtResponder *)
	?OpenSession@SocketServExt@@SAXXZ @ 1128 NONAME ; void SocketServExt::OpenSession(void)
	?Panic@@YAXW4TProtocolPanic@@@Z @ 1129 NONAME ; void Panic(enum TProtocolPanic)
	?ParkState@AActivitySemaphore@ESock@@SAHABUTCFNodeContextBase@2@@Z @ 1130 NONAME ; int ESock::AActivitySemaphore::ParkState(struct ESock::TCFNodeContextBase const &)
	?ParkTransitionL@AActivitySemaphore@ESock@@SAXABUTCFNodeContextBase@2@@Z @ 1131 NONAME ; void ESock::AActivitySemaphore::ParkTransitionL(struct ESock::TCFNodeContextBase const &)
	?ParseTLConfigAccessPointIdsL@TierManagerUtils@ESock@@SAXAAV?$RArray@I@@ABVTDesC16@@@Z @ 1132 NONAME ; void ESock::TierManagerUtils::ParseTLConfigAccessPointIdsL(class RArray<unsigned int> &, class TDesC16 const &)
	?Port@TSockAddr@@QBEIXZ @ 1133 NONAME ; unsigned int TSockAddr::Port(void) const
	?PostMessage@RNodeChannelInterface@ESock@@QAEXABVTCFNodeSignalBase@2@@Z @ 1134 NONAME ; void ESock::RNodeChannelInterface::PostMessage(class ESock::TCFNodeSignalBase const &)
	?PostMessage@RNodeInterface@ESock@@QBEXABVTCFESockSignalBase@2@@Z @ 1135 NONAME ; void ESock::RNodeInterface::PostMessage(class ESock::TCFESockSignalBase const &) const
	?PostMessageBlobL@RNodeInterface@ESock@@QBEXABVTCFESockSignalBase@2@@Z @ 1136 NONAME ; void ESock::RNodeInterface::PostMessageBlobL(class ESock::TCFESockSignalBase const &) const
	?PostReceived@ACFNodeBase@ESock@@QAEXAAUTCFNodeContextBase@2@@Z @ 1137 NONAME ; void ESock::ACFNodeBase::PostReceived(struct ESock::TCFNodeContextBase &)
	?PostRequestTo@CCFNodeActivityBase@ESock@@QAEXAAVRNodeInterface@2@ABVTCFSignalBase@CommsFW@@@Z @ 1138 NONAME ; void ESock::CCFNodeActivityBase::PostRequestTo(class ESock::RNodeInterface &, class CommsFW::TCFSignalBase const &)
	?PostRequestTo@CCFNodeActivityBase@ESock@@QAEXABUTCommsId@2@ABVTCFSignalBase@CommsFW@@@Z @ 1139 NONAME ; void ESock::CCFNodeActivityBase::PostRequestTo(struct ESock::TCommsId const &, class CommsFW::TCFSignalBase const &)
	?PostTo@TCFESockSignalBase@ESock@@QBEXABUTCommsId@2@@Z @ 1140 NONAME ; void ESock::TCFESockSignalBase::PostTo(struct ESock::TCommsId const &) const
	?PostTo@TCFNodeSignalBase@ESock@@QBEXABUTCommsId@2@@Z @ 1141 NONAME ; void ESock::TCFNodeSignalBase::PostTo(struct ESock::TCommsId const &) const
	?PostToClients@ACFNodeBase@ESock@@ABEHAAVTClientIterBase@2@ABVTCFESockSignalBase@2@@Z @ 1142 NONAME ; int ESock::ACFNodeBase::PostToClients(class ESock::TClientIterBase &, class ESock::TCFESockSignalBase const &) const
	?PostToOriginators@CCFNodeActivityBase@ESock@@QAEHABVTCFSignatureBase@2@@Z @ 1143 NONAME ; int ESock::CCFNodeActivityBase::PostToOriginators(class ESock::TCFSignatureBase const &)
	?PostToSender@TCFESockSignalBase@ESock@@QBEXABV12@@Z @ 1144 NONAME ; void ESock::TCFESockSignalBase::PostToSender(class ESock::TCFESockSignalBase const &) const
	?PostToSender@TCFSignatureBase@ESock@@QBEXABV12@@Z @ 1145 NONAME ; void ESock::TCFSignatureBase::PostToSender(class ESock::TCFSignatureBase const &) const
	?PreferredCarrierAvailable@CCommsMobilitySrvResp@@SAXAAPAV1@UTAccessPointInfo@@1HH@Z @ 1146 NONAME ABSENT ; void CCommsMobilitySrvResp::PreferredCarrierAvailable(class CCommsMobilitySrvResp * &, struct TAccessPointInfo, struct TAccessPointInfo, int, int)
	?Printf@ESockLogExternal@@SAXABVTDesC8@@0V?$TRefByValue@$$CBVTDesC8@@@@AAY00PAC@Z @ 1147 NONAME ; void ESockLogExternal::Printf(class TDesC8 const &, class TDesC8 const &, class TRefByValue<class TDesC8 const >, signed char * [1] &)
	?Printf@ESockLogExternal@@SAXABVTDesC8@@0V?$TRefByValue@$$CBVTDesC8@@@@ZZ @ 1148 NONAME ; void ESockLogExternal::Printf(class TDesC8 const &, class TDesC8 const &, class TRefByValue<class TDesC8 const >, ...)
	?Process@CProtocolBase@@UAEXAAVRMBufChain@@PAV1@@Z @ 1149 NONAME ; void CProtocolBase::Process(class RMBufChain &, class CProtocolBase *)
	?Process@CProtocolBase@@UAEXAAVTDes8@@PAVTSockAddr@@1PAV1@@Z @ 1150 NONAME ; void CProtocolBase::Process(class TDes8 &, class TSockAddr *, class TSockAddr *, class CProtocolBase *)
	?Progress@RConnection@@QAEHAAVTNifProgress@@@Z @ 1151 NONAME ; int RConnection::Progress(class TNifProgress &)
	?Progress@RConnection@@QAEHIAAVTNifProgress@@@Z @ 1152 NONAME ; int RConnection::Progress(unsigned int, class TNifProgress &)
	?ProgressNotification@RConnection@@QAEXAAV?$TPckgBuf@VTNifProgress@@@@AAVTRequestStatus@@I@Z @ 1153 NONAME ; void RConnection::ProgressNotification(class TPckgBuf<class TNifProgress> &, class TRequestStatus &, unsigned int)
	?ProgressNotification@RConnection@@QAEXIAAV?$TPckgBuf@VTNifProgress@@@@AAVTRequestStatus@@I@Z @ 1154 NONAME ; void RConnection::ProgressNotification(unsigned int, class TPckgBuf<class TNifProgress> &, class TRequestStatus &, unsigned int)
	?ProtocolIntf@CSubConnectionFlowBase@ESock@@IBEPAVCProtocolIntfBase@2@XZ @ 1155 NONAME ; class ESock::CProtocolIntfBase * ESock::CSubConnectionFlowBase::ProtocolIntf(void) const
	?ProviderInfo@CMetaConnectionProviderBase@ESock@@QBEABVTProviderInfo@2@XZ @ 1156 NONAME ; class ESock::TProviderInfo const & ESock::CMetaConnectionProviderBase::ProviderInfo(void) const
	?Put16@BigEndian@@SAXPAEG@Z @ 1157 NONAME ; void BigEndian::Put16(unsigned char *, unsigned short)
	?Put16@LittleEndian@@SAXPAEG@Z @ 1158 NONAME ; void LittleEndian::Put16(unsigned char *, unsigned short)
	?Put32@BigEndian@@SAXPAEK@Z @ 1159 NONAME ; void BigEndian::Put32(unsigned char *, unsigned long)
	?Put32@LittleEndian@@SAXPAEK@Z @ 1160 NONAME ; void LittleEndian::Put32(unsigned char *, unsigned long)
	?Query@CHostResolvProvdBase@@UAEXABVTDesC8@@AAVTDes8@@H@Z @ 1161 NONAME ; void CHostResolvProvdBase::Query(class TDesC8 const &, class TDes8 &, int)
	?Query@RHostResolver@@QAEHABVTDesC8@@AAVTDes8@@@Z @ 1162 NONAME ; int RHostResolver::Query(class TDesC8 const &, class TDes8 &)
	?Query@RHostResolver@@QAEXABVTDesC8@@AAVTDes8@@AAVTRequestStatus@@@Z @ 1163 NONAME ; void RHostResolver::Query(class TDesC8 const &, class TDes8 &, class TRequestStatus &)
	?Query@RNetDatabase@@QAEHABVTDesC8@@AAVTDes8@@@Z @ 1164 NONAME ; int RNetDatabase::Query(class TDesC8 const &, class TDes8 &)
	?Query@RNetDatabase@@QAEXABVTDesC8@@AAVTDes8@@AAVTRequestStatus@@@Z @ 1165 NONAME ; void RNetDatabase::Query(class TDesC8 const &, class TDes8 &, class TRequestStatus &)
	?QueryGetNext@RHostResolver@@QAEHAAVTDes8@@@Z @ 1166 NONAME ; int RHostResolver::QueryGetNext(class TDes8 &)
	?QueryGetNext@RHostResolver@@QAEXAAVTDes8@@AAVTRequestStatus@@@Z @ 1167 NONAME ; void RHostResolver::QueryGetNext(class TDes8 &, class TRequestStatus &)
	?QueryVersionSupported@CProtocolFamilyBase@@UBEHABVTVersion@@@Z @ 1168 NONAME ; int CProtocolFamilyBase::QueryVersionSupported(class TVersion const &) const
	?Queue@SocketTimer@@SAXVTTimeIntervalMicroSeconds32@@AAVTDeltaTimerEntry@@@Z @ 1169 NONAME ; void SocketTimer::Queue(class TTimeIntervalMicroSeconds32, class TDeltaTimerEntry &)
	?Read@RSocket@@QAEXAAVTDes8@@AAVTRequestStatus@@@Z @ 1170 NONAME ; void RSocket::Read(class TDes8 &, class TRequestStatus &)
	?ReadDefaultAccessPointL@TierManagerUtils@ESock@@SAIVTUid@@AAVCMDBSession@CommsDat@@@Z @ 1171 NONAME ; unsigned int ESock::TierManagerUtils::ReadDefaultAccessPointL(class TUid, class CommsDat::CMDBSession &)
	?ReadMCprUidL@TierManagerUtils@ESock@@SA?AVTUid@@IAAVCMDBSession@CommsDat@@@Z @ 1172 NONAME ; class TUid ESock::TierManagerUtils::ReadMCprUidL(unsigned int, class CommsDat::CMDBSession &)
	?ReadSelectionPolicyIdL@TierManagerUtils@ESock@@SAIIAAVCMDBSession@CommsDat@@@Z @ 1173 NONAME ; unsigned int ESock::TierManagerUtils::ReadSelectionPolicyIdL(unsigned int, class CommsDat::CMDBSession &)
	?ReadTierIdL@TierManagerUtils@ESock@@SA?AVTUid@@IAAVCMDBSession@CommsDat@@@Z @ 1174 NONAME ; class TUid ESock::TierManagerUtils::ReadTierIdL(unsigned int, class CommsDat::CMDBSession &)
	?ReceivedL@ACFNodeBase@ESock@@QAEXQBVTMessageId@TCFNodeSignalBase@2@AAUTCFNodeContextBase@2@@Z @ 1175 NONAME ; void ESock::ACFNodeBase::ReceivedL(class ESock::TCFNodeSignalBase::TMessageId const * const, struct ESock::TCFNodeContextBase &)
	?ReceivedL@CCommsFactoryBase@ESock@@UAEHAAVTCFSignatureBase@2@@Z @ 1176 NONAME ; int ESock::CCommsFactoryBase::ReceivedL(class ESock::TCFSignatureBase &)
	?ReceivedL@CRefCountOwnerBase@ESock@@MAEHAAVTCFSignatureBase@2@@Z @ 1177 NONAME ; int ESock::CRefCountOwnerBase::ReceivedL(class ESock::TCFSignatureBase &)
	?ReceivedL@CSubConnectionFlowBase@ESock@@MAEHAAVTCFSignatureBase@2@@Z @ 1178 NONAME ; int ESock::CSubConnectionFlowBase::ReceivedL(class ESock::TCFSignatureBase &)
	?RecipientChannelId@RNodeChannelInterface@ESock@@QBE?AUTCFNodeChannelId@2@XZ @ 1179 NONAME ; struct ESock::TCFNodeChannelId ESock::RNodeChannelInterface::RecipientChannelId(void) const
	?RecipientId@RNodeInterface@ESock@@QBE?AUTCommsId@2@XZ @ 1180 NONAME ; struct ESock::TCommsId ESock::RNodeInterface::RecipientId(void) const
	?Recv@RSocket@@QAEXAAVTDes8@@IAAVTRequestStatus@@@Z @ 1181 NONAME ; void RSocket::Recv(class TDes8 &, unsigned int, class TRequestStatus &)
	?Recv@RSocket@@QAEXAAVTDes8@@IAAVTRequestStatus@@AAV?$TPckgBuf@H@@@Z @ 1182 NONAME ; void RSocket::Recv(class TDes8 &, unsigned int, class TRequestStatus &, class TPckgBuf<int> &)
	?RecvFrom@RSocket@@QAEXAAVTDes8@@AAVTSockAddr@@IAAVTRequestStatus@@@Z @ 1183 NONAME ; void RSocket::RecvFrom(class TDes8 &, class TSockAddr &, unsigned int, class TRequestStatus &)
	?RecvFrom@RSocket@@QAEXAAVTDes8@@AAVTSockAddr@@IAAVTRequestStatus@@AAV?$TPckgBuf@H@@@Z @ 1184 NONAME ; void RSocket::RecvFrom(class TDes8 &, class TSockAddr &, unsigned int, class TRequestStatus &, class TPckgBuf<int> &)
	?RecvOneOrMore@RSocket@@QAEXAAVTDes8@@IAAVTRequestStatus@@AAV?$TPckgBuf@H@@@Z @ 1185 NONAME ; void RSocket::RecvOneOrMore(class TDes8 &, unsigned int, class TRequestStatus &, class TPckgBuf<int> &)
	?RegisterClientL@CConnDataTransfer@@QAEXAAVMConnDataTransferNotify@@@Z @ 1186 NONAME ; void CConnDataTransfer::RegisterClientL(class MConnDataTransferNotify &)
	?RegisterForMobilityNotification@RCommsMobilityApiExt@@QAEXAAVTDes8@@AAVTRequestStatus@@@Z @ 1187 NONAME ; void RCommsMobilityApiExt::RegisterForMobilityNotification(class TDes8 &, class TRequestStatus &)
	?RegisterNotifierL@CCommsFactoryBase@ESock@@QAEXABVIFactoryNotify@2@@Z @ 1188 NONAME ; void ESock::CCommsFactoryBase::RegisterNotifierL(class ESock::IFactoryNotify const &)
	?RegisterNotifierL@CCommsFactoryContainer@ESock@@QAEXVTUid@@ABVIFactoryNotify@2@@Z @ 1189 NONAME ; void ESock::CCommsFactoryContainer::RegisterNotifierL(class TUid, class ESock::IFactoryNotify const &)
	?RegisterService@RServiceResolver@@QAEHABVTDesC16@@ABI@Z @ 1190 NONAME ; int RServiceResolver::RegisterService(class TDesC16 const &, unsigned int const &)
	?RegisterService@RServiceResolver@@QAEXABVTDesC16@@ABIAAVTRequestStatus@@@Z @ 1191 NONAME ; void RServiceResolver::RegisterService(class TDesC16 const &, unsigned int const &, class TRequestStatus &)
	?RemoteName@RSocket@@QAEXAAVTSockAddr@@@Z @ 1192 NONAME ; void RSocket::RemoteName(class TSockAddr &)
	?Remove@CProtocolFamilyBase@@UAEHXZ @ 1193 NONAME ; int CProtocolFamilyBase::Remove(void)
	?Remove@RNetDatabase@@QAEHABVTDesC8@@@Z @ 1194 NONAME ; int RNetDatabase::Remove(class TDesC8 const &)
	?Remove@RNetDatabase@@QAEXABVTDesC8@@AAVTRequestStatus@@@Z @ 1195 NONAME ; void RNetDatabase::Remove(class TDesC8 const &, class TRequestStatus &)
	?Remove@RSubConnection@@QAEXAAVRSocket@@AAVTRequestStatus@@@Z @ 1196 NONAME ; void RSubConnection::Remove(class RSocket &, class TRequestStatus &)
	?Remove@SocketTimer@@SAXAAVTDeltaTimerEntry@@@Z @ 1197 NONAME ; void SocketTimer::Remove(class TDeltaTimerEntry &)
	?RemoveAndDestroyExtension@CAccessPointConfig@ESock@@QBEXABUSTypeId@Meta@@@Z @ 1198 NONAME ; void ESock::CAccessPointConfig::RemoveAndDestroyExtension(struct Meta::STypeId const &) const
	?RemoveClient@ACFNodeBase@ESock@@QAEXABUTCommsId@2@@Z @ 1199 NONAME ; void ESock::ACFNodeBase::RemoveClient(struct ESock::TCommsId const &)
	?RemoveClient@ACFNodeBase@ESock@@QAEXABUTCommsId@2@AAUTCFNodeContextBase@2@@Z @ 1200 NONAME ; void ESock::ACFNodeBase::RemoveClient(struct ESock::TCommsId const &, struct ESock::TCFNodeContextBase &)
	?RemoveExtension@CAccessPointConfig@ESock@@QBEXABUSTypeId@Meta@@@Z @ 1201 NONAME ; void ESock::CAccessPointConfig::RemoveExtension(struct Meta::STypeId const &) const
	?RemoveOriginator@CCFNodeActivityBase@ESock@@QAEXH@Z @ 1202 NONAME ; void ESock::CCFNodeActivityBase::RemoveOriginator(int)
	?RemoveService@RServiceResolver@@QAEHABVTDesC16@@ABI@Z @ 1203 NONAME ; int RServiceResolver::RemoveService(class TDesC16 const &, unsigned int const &)
	?RemoveService@RServiceResolver@@QAEXABVTDesC16@@ABIAAVTRequestStatus@@@Z @ 1204 NONAME ; void RServiceResolver::RemoveService(class TDesC16 const &, unsigned int const &, class TRequestStatus &)
	?ReplaceParamSetContainerL@CParameterBundleBase@@QAEXPBVCParameterSetContainer@@PAV2@@Z @ 1205 NONAME ; void CParameterBundleBase::ReplaceParamSetContainerL(class CParameterSetContainer const *, class CParameterSetContainer *)
	?ReplaceParameterSetL@CParameterSetContainer@@QAEXHPAVXParameterSet@@@Z @ 1206 NONAME ; void CParameterSetContainer::ReplaceParameterSetL(int, class XParameterSet *)
	?ReplyToOriginator@ABindingActivity@CoreActivities@@QAEXH@Z @ 1207 NONAME ; void CoreActivities::ABindingActivity::ReplyToOriginator(int)
	?RequestComplete@TRequestWrapper@@QAEXH@Z @ 1208 NONAME ; void TRequestWrapper::RequestComplete(int)
	?RequestDataReceivedNotification@ADataMonitoringProvider@ESock@@UAEXAAPAVCDataMonitoringResponder@2@KKI@Z @ 1209 NONAME ; void ESock::ADataMonitoringProvider::RequestDataReceivedNotification(class ESock::CDataMonitoringResponder * &, unsigned long, unsigned long, unsigned int)
	?RequestDataReceivedNotification@RCommsDataMonitoringApiExt@@QAEXKKAAVTDes8@@AAVTRequestStatus@@@Z @ 1210 NONAME ; void RCommsDataMonitoringApiExt::RequestDataReceivedNotification(unsigned long, unsigned long, class TDes8 &, class TRequestStatus &)
	?RequestDataSentNotification@ADataMonitoringProvider@ESock@@UAEXAAPAVCDataMonitoringResponder@2@KKI@Z @ 1211 NONAME ; void ESock::ADataMonitoringProvider::RequestDataSentNotification(class ESock::CDataMonitoringResponder * &, unsigned long, unsigned long, unsigned int)
	?RequestDataSentNotification@RCommsDataMonitoringApiExt@@QAEXKKAAVTDes8@@AAVTRequestStatus@@@Z @ 1212 NONAME ; void RCommsDataMonitoringApiExt::RequestDataSentNotification(unsigned long, unsigned long, class TDes8 &, class TRequestStatus &)
	?RequestDataTransferred@ADataMonitoringProvider@ESock@@UAEXAAPAVCDataMonitoringResponder@2@I@Z @ 1213 NONAME ; void ESock::ADataMonitoringProvider::RequestDataTransferred(class ESock::CDataMonitoringResponder * &, unsigned int)
	?RequestDataTransferred@RCommsDataMonitoringApiExt@@QAEXAAVTDes8@@AAVTRequestStatus@@@Z @ 1214 NONAME ; void RCommsDataMonitoringApiExt::RequestDataTransferred(class TDes8 &, class TRequestStatus &)
	?ResolveWorkerNameToId@CWorkerThread@@SAHABVTDesC8@@AAH@Z @ 1215 NONAME ; int CWorkerThread::ResolveWorkerNameToId(class TDesC8 const &, int &)
	?Retry@AContextStore@ESock@@QAEXAAVCCFNodeActivityBase@2@AAUTCFNodeContextBase@2@@Z @ 1216 NONAME ; void ESock::AContextStore::Retry(class ESock::CCFNodeActivityBase &, struct ESock::TCFNodeContextBase &)
	?RetryingForMessageId@AContextStore@ESock@@QBEABVTMessageId@TCFNodeSignalBase@2@XZ @ 1217 NONAME ; class ESock::TCFNodeSignalBase::TMessageId const & ESock::AContextStore::RetryingForMessageId(void) const
	?ReturnInterfacePtrL@ACFNodeBase@ESock@@QAEXAAPAV12@@Z @ 1218 NONAME ; void ESock::ACFNodeBase::ReturnInterfacePtrL(class ESock::ACFNodeBase * &)
	?ReturnInterfacePtrL@CCFNodeRetryActivity@ESock@@QAEXAAPAVAContextStore@2@@Z @ 1219 NONAME ; void ESock::CCFNodeRetryActivity::ReturnInterfacePtrL(class ESock::AContextStore * &)
	?ReturnInterfacePtrL@CCFNodeRetryParallelActivity@ESock@@QAEXAAPAVAContextStore@2@@Z @ 1220 NONAME ; void ESock::CCFNodeRetryParallelActivity::ReturnInterfacePtrL(class ESock::AContextStore * &)
	?ReturnInterfacePtrL@CCFNodeRetrySynchronisedParallelActivity@ESock@@QAEXAAPAVAContextStore@2@@Z @ 1221 NONAME ; void ESock::CCFNodeRetrySynchronisedParallelActivity::ReturnInterfacePtrL(class ESock::AContextStore * &)
	?ReturnInterfacePtrL@CCFNodeSynchronisedActivity@ESock@@QAEXAAPAVAActivitySemaphore@2@@Z @ 1222 NONAME ; void ESock::CCFNodeSynchronisedActivity::ReturnInterfacePtrL(class ESock::AActivitySemaphore * &)
	?ReturnInterfacePtrL@CCFNodeSynchronisedParallelActivity@ESock@@QAEXAAPAVAActivitySemaphore@2@@Z @ 1223 NONAME ; void ESock::CCFNodeSynchronisedParallelActivity::ReturnInterfacePtrL(class ESock::AActivitySemaphore * &)
	?ReturnInterfacePtrL@CMMCommsProviderBase@ESock@@QAEXAAPAVMAccessPointConfigApi@2@@Z @ 1224 NONAME ; void ESock::CMMCommsProviderBase::ReturnInterfacePtrL(class ESock::MAccessPointConfigApi * &)
	?ReturnInterfacePtrL@CNoBearer@PRActivities@@QAEXAAPAVABindingActivity@CoreActivities@@@Z @ 1225 NONAME ; void PRActivities::CNoBearer::ReturnInterfacePtrL(class CoreActivities::ABindingActivity * &)
	?SCprs@CConfigAccessPointConfig@ESock@@QBEABV?$RArray@VTUid@@@@XZ @ 1226 NONAME ; class RArray<class TUid> const & ESock::CConfigAccessPointConfig::SCprs(void) const
	?SecureId@AIPCClientPlatsecInfo@ESock@@QBEHIAAVTSecureId@@@Z @ 1227 NONAME ; int ESock::AIPCClientPlatsecInfo::SecureId(unsigned int, class TSecureId &) const
	?SecureId@ASubSessionPlatsecApiExt@ESock@@UBEHAAVTSecureId@@@Z @ 1228 NONAME ; int ESock::ASubSessionPlatsecApiExt::SecureId(class TSecureId &) const
	?SecureId@TCFSigRMessage2PlatsecExt@ESock@@MBEHAAVTSecureId@@@Z @ 1229 NONAME ; int ESock::TCFSigRMessage2PlatsecExt::SecureId(class TSecureId &) const
	?SecurityCheck@CResolverProvdBase@@UAEHPAVMProvdSecurityChecker@@@Z @ 1230 NONAME ; int CResolverProvdBase::SecurityCheck(class MProvdSecurityChecker *)
	?SecurityCheck@CServProviderBase@@UAEHPAVMProvdSecurityChecker@@@Z @ 1231 NONAME ; int CServProviderBase::SecurityCheck(class MProvdSecurityChecker *)
	?Self@CoreError@CoreErrorActivity@@SAABUTCFNodeActivity@ESock@@XZ @ 1232 NONAME ; struct ESock::TCFNodeActivity const & CoreErrorActivity::CoreError::Self(void)
	?Self@PRClientLeave@PRClientLeaveActivity@@SAABUTCFNodeActivity@ESock@@XZ @ 1233 NONAME ; struct ESock::TCFNodeActivity const & PRClientLeaveActivity::PRClientLeave::Self(void)
	?Self@PRControlClientJoin@PRControlClientJoinActivity@@SAABUTCFNodeActivity@ESock@@XZ @ 1234 NONAME ; struct ESock::TCFNodeActivity const & PRControlClientJoinActivity::PRControlClientJoin::Self(void)
	?Self@PRDataClientActive@PRDataClientActiveActivity@@SAABUTCFNodeActivity@ESock@@XZ @ 1235 NONAME ; struct ESock::TCFNodeActivity const & PRDataClientActiveActivity::PRDataClientActive::Self(void)
	?Self@PRDataClientIdle@PRDataClientIdleActivity@@SAABUTCFNodeActivity@ESock@@XZ @ 1236 NONAME ; struct ESock::TCFNodeActivity const & PRDataClientIdleActivity::PRDataClientIdle::Self(void)
	?Self@PRDataClientJoin@PRDataClientJoinActivity@@SAABUTCFNodeActivity@ESock@@XZ @ 1237 NONAME ; struct ESock::TCFNodeActivity const & PRDataClientJoinActivity::PRDataClientJoin::Self(void)
	?Self@coreActivitiesCpr@PRActivities@@SAABUTCFNodeActivityMap@ESock@@XZ @ 1238 NONAME ; struct ESock::TCFNodeActivityMap const & PRActivities::coreActivitiesCpr::Self(void)
	?Self@coreActivitiesMCpr@PRActivities@@SAABUTCFNodeActivityMap@ESock@@XZ @ 1239 NONAME ; struct ESock::TCFNodeActivityMap const & PRActivities::coreActivitiesMCpr::Self(void)
	?Self@coreActivitiesSCpr@PRActivities@@SAABUTCFNodeActivityMap@ESock@@XZ @ 1240 NONAME ; struct ESock::TCFNodeActivityMap const & PRActivities::coreActivitiesSCpr::Self(void)
	?Self@coreActivitiesTM@PRActivities@@SAABUTCFNodeActivityMap@ESock@@XZ @ 1241 NONAME ; struct ESock::TCFNodeActivityMap const & PRActivities::coreActivitiesTM::Self(void)
	?SelfPlayer@CSockManData@@QAEPAVCPlayer@@XZ @ 1242 NONAME ; class CPlayer * CSockManData::SelfPlayer(void)
	?SelfWorker@CSockManData@@QBEPAVCWorkerThread@@XZ @ 1243 NONAME ; class CWorkerThread * CSockManData::SelfWorker(void) const
	?Send@CProtocolBase@@UAEHAAVRMBufChain@@PAV1@@Z @ 1244 NONAME ; int CProtocolBase::Send(class RMBufChain &, class CProtocolBase *)
	?Send@CProtocolBase@@UAEHAAVTDes8@@PAVTSockAddr@@1PAV1@@Z @ 1245 NONAME ; int CProtocolBase::Send(class TDes8 &, class TSockAddr *, class TSockAddr *, class CProtocolBase *)
	?Send@RSocket@@QAEXABVTDesC8@@IAAVTRequestStatus@@@Z @ 1246 NONAME ; void RSocket::Send(class TDesC8 const &, unsigned int, class TRequestStatus &)
	?Send@RSocket@@QAEXABVTDesC8@@IAAVTRequestStatus@@AAV?$TPckgBuf@H@@@Z @ 1247 NONAME ; void RSocket::Send(class TDesC8 const &, unsigned int, class TRequestStatus &, class TPckgBuf<int> &)
	?SendMessage@CCommsFactoryBase@ESock@@QAEHAAVCMessage@NetMessages@@@Z @ 1248 NONAME ; int ESock::CCommsFactoryBase::SendMessage(class NetMessages::CMessage &)
	?SendMessage@RCommsApiExtensionBase@@IAEXAAVTCommsApiExtReqMsg@@@Z @ 1249 NONAME ; void RCommsApiExtensionBase::SendMessage(class TCommsApiExtReqMsg &)
	?SendRequest@RCommsApiExtensionBase@@IAEXAAVTCommsApiExtReqMsg@@AAVTDes8@@AAVTRequestStatus@@@Z @ 1250 NONAME ; void RCommsApiExtensionBase::SendRequest(class TCommsApiExtReqMsg &, class TDes8 &, class TRequestStatus &)
	?SendTo@RSocket@@QAEXABVTDesC8@@AAVTSockAddr@@IAAVTRequestStatus@@@Z @ 1251 NONAME ; void RSocket::SendTo(class TDesC8 const &, class TSockAddr &, unsigned int, class TRequestStatus &)
	?SendTo@RSocket@@QAEXABVTDesC8@@AAVTSockAddr@@IAAVTRequestStatus@@AAV?$TPckgBuf@H@@@Z @ 1252 NONAME ; void RSocket::SendTo(class TDesC8 const &, class TSockAddr &, unsigned int, class TRequestStatus &, class TPckgBuf<int> &)
	?ServiceChangeNotification@RConnection@@QAEXAAKAAVTDes16@@AAVTRequestStatus@@@Z @ 1253 NONAME ; void RConnection::ServiceChangeNotification(unsigned long &, class TDes16 &, class TRequestStatus &)
	?SetConnectionProviderClient@CConnectionProvdBase@@QAEXPAVMConnectionNotify@@@Z @ 1254 NONAME ; void CConnectionProvdBase::SetConnectionProviderClient(class MConnectionNotify *)
	?SetExclusiveMode@RSocketServ@@QAEXAAVTRequestStatus@@@Z @ 1255 NONAME ; void RSocketServ::SetExclusiveMode(class TRequestStatus &)
	?SetExtensionId@TConnPref@@IAEXH@Z @ 1256 NONAME ; void TConnPref::SetExtensionId(int)
	?SetFamily@TSockAddr@@QAEXI@Z @ 1257 NONAME ; void TSockAddr::SetFamily(unsigned int)
	?SetGenericSetL@CSubConParameterFamily@@QAEXAAVCSubConGenericParameterSet@@W4TParameterSetType@1@@Z @ 1258 NONAME ; void CSubConParameterFamily::SetGenericSetL(class CSubConGenericParameterSet &, enum CSubConParameterFamily::TParameterSetType)
	?SetHostName@RHostResolver@@QAEHABVTDesC16@@@Z @ 1259 NONAME ; int RHostResolver::SetHostName(class TDesC16 const &)
	?SetIdle@CCFNodeActivityBase@ESock@@UAEXXZ @ 1260 NONAME ; void ESock::CCFNodeActivityBase::SetIdle(void)
	?SetIdle@CCFNodeSynchronisedActivity@ESock@@UAEXXZ @ 1261 NONAME ; void ESock::CCFNodeSynchronisedActivity::SetIdle(void)
	?SetIdle@CCFNodeSynchronisedParallelActivity@ESock@@UAEXXZ @ 1262 NONAME ; void ESock::CCFNodeSynchronisedParallelActivity::SetIdle(void)
	?SetLocalPort@RSocket@@QAEHH@Z @ 1263 NONAME ; int RSocket::SetLocalPort(int)
	?SetNotify@CServProviderBase@@UAEXPAVMSocketNotify@@@Z @ 1264 NONAME ; void CServProviderBase::SetNotify(class MSocketNotify *)
	?SetOpt@RConnection@@QAEHIIH@Z @ 1265 NONAME ; int RConnection::SetOpt(unsigned int, unsigned int, int)
	?SetOpt@RSocket@@QAEHIIABVTDesC8@@@Z @ 1266 NONAME ; int RSocket::SetOpt(unsigned int, unsigned int, class TDesC8 const &)
	?SetOpt@RSocket@@QAEHIIH@Z @ 1267 NONAME ; int RSocket::SetOpt(unsigned int, unsigned int, int)
	?SetOption@CHostResolvProvdBase@@UAEHIIABVTDesC8@@@Z @ 1268 NONAME ; int CHostResolvProvdBase::SetOption(unsigned int, unsigned int, class TDesC8 const &)
	?SetOption@CProtocolBase@@UAEHIIABVTDesC8@@PAV1@@Z @ 1269 NONAME ; int CProtocolBase::SetOption(unsigned int, unsigned int, class TDesC8 const &, class CProtocolBase *)
	?SetParameters@RConnection@@QAEHAAVCCommsDataObjectBase@ESock@@@Z @ 1270 NONAME ; int RConnection::SetParameters(class ESock::CCommsDataObjectBase &)
	?SetParameters@RSubConnection@@QAEHABVRSubConParameterBundle@@@Z @ 1271 NONAME ; int RSubConnection::SetParameters(class RSubConParameterBundle const &)
	?SetParametersL@CSubConnectionProviderBase@ESock@@QAEXAAVCSubConParameterBundle@@@Z @ 1272 NONAME ; void ESock::CSubConnectionProviderBase::SetParametersL(class CSubConParameterBundle &)
	?SetPort@TSockAddr@@QAEXI@Z @ 1273 NONAME ; void TSockAddr::SetPort(unsigned int)
	?SetPostedTo@CCFNodeActivityBase@ESock@@QAEXABUTCommsId@2@@Z @ 1274 NONAME ; void ESock::CCFNodeActivityBase::SetPostedTo(struct ESock::TCommsId const &)
	?SetProviderInfo@CMetaConnectionProviderBase@ESock@@QAEXABVTProviderInfo@2@@Z @ 1275 NONAME ; void ESock::CMetaConnectionProviderBase::SetProviderInfo(class ESock::TProviderInfo const &)
	?SetSnap@TConnSnapPref@@QAEXK@Z @ 1276 NONAME ; void TConnSnapPref::SetSnap(unsigned long)
	?SetSockType@CServProviderBase@@UAEXI@Z @ 1277 NONAME ; void CServProviderBase::SetSockType(unsigned int)
	?SetState@CSocket@ESock@@AAEXW4TSocketState@12@@Z @ 1278 NONAME ; void ESock::CSocket::SetState(enum ESock::CSocket::TSocketState)
	?SetUserLen@TConnPref@@IAEXH@Z @ 1279 NONAME ; void TConnPref::SetUserLen(int)
	?SetUserLen@TSockAddr@@IAEXH@Z @ 1280 NONAME ; void TSockAddr::SetUserLen(int)
	?Shutdown@RSocket@@QAEXW4TShutdown@1@AAVTRequestStatus@@@Z @ 1281 NONAME ; void RSocket::Shutdown(enum RSocket::TShutdown, class TRequestStatus &)
	?Shutdown@RSocket@@QAEXW4TShutdown@1@ABVTDesC8@@AAVTDes8@@AAVTRequestStatus@@@Z @ 1282 NONAME ; void RSocket::Shutdown(enum RSocket::TShutdown, class TDesC8 const &, class TDes8 &, class TRequestStatus &)
	?Signal@AActivitySemaphore@ESock@@QAEHAAUTCFNodeContextBase@2@@Z @ 1283 NONAME ; int ESock::AActivitySemaphore::Signal(struct ESock::TCFNodeContextBase &)
	?Signal@CCFNodeSynchronisedActivity@ESock@@MAEHAAUTCFNodeContextBase@2@@Z @ 1284 NONAME ; int ESock::CCFNodeSynchronisedActivity::Signal(struct ESock::TCFNodeContextBase &)
	?Signal@CCFNodeSynchronisedParallelActivity@ESock@@MAEHAAUTCFNodeContextBase@2@@Z @ 1285 NONAME ; int ESock::CCFNodeSynchronisedParallelActivity::Signal(struct ESock::TCFNodeContextBase &)
	?SignalCreation@CCommsFactoryBase@ESock@@IAEHAAVAFactoryObject@2@@Z @ 1286 NONAME ; int ESock::CCommsFactoryBase::SignalCreation(class ESock::AFactoryObject &)
	?SignalDeletion@CCommsFactoryBase@ESock@@IAEXAAVAFactoryObject@2@@Z @ 1287 NONAME ; void ESock::CCommsFactoryBase::SignalDeletion(class ESock::AFactoryObject &)
	?Snap@TConnSnapPref@@QBEKXZ @ 1288 NONAME ; unsigned long TConnSnapPref::Snap(void) const
	?SockType@CServProviderBase@@QBEIXZ @ 1289 NONAME ; unsigned int CServProviderBase::SockType(void) const
	?Start@RConnection@@QAEHAAVTConnPref@@@Z @ 1290 NONAME ; int RConnection::Start(class TConnPref &)
	?Start@RConnection@@QAEHXZ @ 1291 NONAME ; int RConnection::Start(void)
	?Start@RConnection@@QAEXAAVTConnPref@@AAVTRequestStatus@@@Z @ 1292 NONAME ; void RConnection::Start(class TConnPref &, class TRequestStatus &)
	?Start@RConnection@@QAEXAAVTRequestStatus@@@Z @ 1293 NONAME ; void RConnection::Start(class TRequestStatus &)
	?Start@RSubConnection@@QAEHXZ @ 1294 NONAME ; int RSubConnection::Start(void)
	?Start@RSubConnection@@QAEXAAVTRequestStatus@@@Z @ 1295 NONAME ; void RSubConnection::Start(class TRequestStatus &)
	?StartESOCK@@YAHPAX@Z @ 1296 NONAME ; int StartESOCK(void *)
	?StartL@CCFNodeActivityBase@ESock@@MAEXAAUTCFNodeContextBase@2@ABUXCFNodePeerId@2@ABUTStateTriple@NetStateMachine@@@Z @ 1297 NONAME ; void ESock::CCFNodeActivityBase::StartL(struct ESock::TCFNodeContextBase &, struct ESock::XCFNodePeerId const &, struct NetStateMachine::TStateTriple const &)
	?StartL@CProtocolBase@@UAEXXZ @ 1298 NONAME ; void CProtocolBase::StartL(void)
	?StartProtocol@RSocketServ@@QAEXIIIAAVTRequestStatus@@@Z @ 1299 NONAME ; void RSocketServ::StartProtocol(unsigned int, unsigned int, unsigned int, class TRequestStatus &)
	?StartSending@CProtocolBase@@UAEXPAV1@@Z @ 1300 NONAME ; void CProtocolBase::StartSending(class CProtocolBase *)
	?Stop@RConnection@@QAEHI@Z @ 1301 NONAME ; int RConnection::Stop(unsigned int)
	?Stop@RConnection@@QAEHIW4TConnStopType@1@@Z @ 1302 NONAME ; int RConnection::Stop(unsigned int, enum RConnection::TConnStopType)
	?Stop@RConnection@@QAEHW4TConnStopType@1@@Z @ 1303 NONAME ; int RConnection::Stop(enum RConnection::TConnStopType)
	?Stop@RConnection@@QAEHXZ @ 1304 NONAME ; int RConnection::Stop(void)
	?Stop@RSubConnection@@QAEHXZ @ 1305 NONAME ; int RSubConnection::Stop(void)
	?StopProtocol@RSocketServ@@QAEXIIIAAVTRequestStatus@@@Z @ 1306 NONAME ; void RSocketServ::StopProtocol(unsigned int, unsigned int, unsigned int, class TRequestStatus &)
	?Store@CCommsDataObjectBase@ESock@@UBEHAAVTDes8@@@Z @ 1307 NONAME ; int ESock::CCommsDataObjectBase::Store(class TDes8 &) const
	?Store@CParameterBundleBase@@QBEHAAVTDes8@@@Z @ 1308 NONAME ; int CParameterBundleBase::Store(class TDes8 &) const
	?Store@CParameterSetContainer@@UBEHAAVTDes8@@@Z @ 1309 NONAME ; int CParameterSetContainer::Store(class TDes8 &) const
	?Store@CSubConParameterBundle@@QBEHAAVTDes8@@@Z @ 1310 NONAME ; int CSubConParameterBundle::Store(class TDes8 &) const
	?Store@CSubConParameterFamily@@QBEHAAVTDes8@@@Z @ 1311 NONAME ; int CSubConParameterFamily::Store(class TDes8 &) const
	?Store@RSubConParameterBundle@@QBEHAAVTDes8@@@Z @ 1312 NONAME ; int RSubConParameterBundle::Store(class TDes8 &) const
	?StoreBinder@CCommsBinderActivity@PRActivities@@QAEXPAVRNodeInterface@ESock@@@Z @ 1313 NONAME ; void PRActivities::CCommsBinderActivity::StoreBinder(class ESock::RNodeInterface *)
	?StoreContext@AContextStore@ESock@@QAEHABUTCFNodeContextBase@2@@Z @ 1314 NONAME ; int ESock::AContextStore::StoreContext(struct ESock::TCFNodeContextBase const &)
	?StoreOriginator@ABindingActivity@CoreActivities@@QAEXABUTCFNodeChannelId@ESock@@@Z @ 1315 NONAME ; void CoreActivities::ABindingActivity::StoreOriginator(struct ESock::TCFNodeChannelId const &)
	?SubConnectionGoingDown@CSubConnectionFlowBase@ESock@@IAEXXZ @ 1316 NONAME ; void ESock::CSubConnectionFlowBase::SubConnectionGoingDown(void)
	?SubSession@CPlayer@@QBEPAVCSockSubSession@@ABI@Z @ 1317 NONAME ; class CSockSubSession * CPlayer::SubSession(unsigned int const &) const
	?SupportsExtInterface@AApiExtBase@ESock@@QBEHW4TSupportedCommsApiExt@@@Z @ 1318 NONAME ; int ESock::AApiExtBase::SupportsExtInterface(enum TSupportedCommsApiExt) const
	?Swap16@ByteOrder@@SAGG@Z @ 1319 NONAME ; unsigned short ByteOrder::Swap16(unsigned short)
	?Swap32@ByteOrder@@SAKK@Z @ 1320 NONAME ; unsigned long ByteOrder::Swap32(unsigned long)
	?Tag@CProtocolBase@@QAE?AVTPtrC16@@XZ @ 1321 NONAME ; class TPtrC16 CProtocolBase::Tag(void)
	?ThreadEntrypoint@CWorkerThread@@SAHPAX@Z @ 1322 NONAME ; int CWorkerThread::ThreadEntrypoint(void *)
	?Transfer@RSocket@@QAEHAAVRSocketServ@@ABVTDesC16@@@Z @ 1323 NONAME ; int RSocket::Transfer(class RSocketServ &, class TDesC16 const &)
	?TransitionTag@ACancelOrErrorOrTag@CoreStates@@KAHAAUTCFNodeContextBase@ESock@@H@Z @ 1324 NONAME ; int CoreStates::ACancelOrErrorOrTag::TransitionTag(struct ESock::TCFNodeContextBase &, int)
	?TransitionTag@AErrorTagOr@CoreStates@@KAHAAUTCFNodeContextBase@ESock@@@Z @ 1325 NONAME ; int CoreStates::AErrorTagOr::TransitionTag(struct ESock::TCFNodeContextBase &)
	?TransitionTag@TBearerPresent@CoreNetStates@@UAEHXZ @ 1326 NONAME ; int CoreNetStates::TBearerPresent::TransitionTag(void)
	?TransitionTag@TBearerReady@CoreNetStates@@UAEHXZ @ 1327 NONAME ; int CoreNetStates::TBearerReady::TransitionTag(void)
	?TransitionTag@TDataClientPresent@CoreNetStates@@UAEHXZ @ 1328 NONAME ; int CoreNetStates::TDataClientPresent::TransitionTag(void)
	?TransitionTag@TLayerCompleted@CoreNetStates@@UAEHXZ @ 1329 NONAME ; int CoreNetStates::TLayerCompleted::TransitionTag(void)
	?TransitionTag@TNoTagBackwardsOrProviderStopped@CoreNetStates@@UAEHXZ @ 1330 NONAME ; int CoreNetStates::TNoTagBackwardsOrProviderStopped::TransitionTag(void)
	?TransitionTag@TNoTagOrBearerPresent@CoreNetStates@@UAEHXZ @ 1331 NONAME ; int CoreNetStates::TNoTagOrBearerPresent::TransitionTag(void)
	?TransitionTag@TNoTagOrDataClientPresent@CoreNetStates@@UAEHXZ @ 1332 NONAME ; int CoreNetStates::TNoTagOrDataClientPresent::TransitionTag(void)
	?TransitionTag@TNoTagOrDataClientReadyOrBindToComplete@CBindToRequestActivity@PRActivities@@UAEHXZ @ 1333 NONAME ; int PRActivities::CBindToRequestActivity::TNoTagOrDataClientReadyOrBindToComplete::TransitionTag(void)
	?TransitionTag@TNoTagOrDataClientsToStop@CoreNetStates@@UAEHXZ @ 1334 NONAME ; int CoreNetStates::TNoTagOrDataClientsToStop::TransitionTag(void)
	?TransitionTag@TNoTagOrNoDataClients@CoreNetStates@@UAEHXZ @ 1335 NONAME ; int CoreNetStates::TNoTagOrNoDataClients::TransitionTag(void)
	?TransitionTag@TNoTagOrNoTagBackwards@ACountLoopActivity@CoreActivities@@UAEHXZ @ 1336 NONAME ; int CoreActivities::ACountLoopActivity::TNoTagOrNoTagBackwards::TransitionTag(void)
	?TransitionTag@TNoTagOrNoTagBackwards@CDestroyActivity@CoreActivities@@UAEHXZ @ 1337 NONAME ; int CoreActivities::CDestroyActivity::TNoTagOrNoTagBackwards::TransitionTag(void)
	?TransitionTag@TNoTagOrProviderStopped@PRDataClientStopActivity@@UAEHXZ @ 1338 NONAME ; int PRDataClientStopActivity::TNoTagOrProviderStopped::TransitionTag(void)
	?TransitionTag@TNoTagOrUnbindOnStop@CoreNetStates@@UAEHXZ @ 1339 NONAME ; int CoreNetStates::TNoTagOrUnbindOnStop::TransitionTag(void)
	?TransitionTag@TNoTagOrUseExisting@CCommsBinderActivity@PRActivities@@UAEHXZ @ 1340 NONAME ; int PRActivities::CCommsBinderActivity::TNoTagOrUseExisting::TransitionTag(void)
	?TransitionTag@TNoTagOrWaitForIncomingOrUseExisting@CCommsBinderActivity@PRActivities@@UAEHXZ @ 1341 NONAME ; int PRActivities::CCommsBinderActivity::TNoTagOrWaitForIncomingOrUseExisting::TransitionTag(void)
	?TransitionTag@TNoTagOrWaitForIncomingOrUseExistingDefault@CCommsBinderActivity@PRActivities@@UAEHXZ @ 1342 NONAME ; int PRActivities::CCommsBinderActivity::TNoTagOrWaitForIncomingOrUseExistingDefault::TransitionTag(void)
	?TransitionTag@TRejoinLoopTag@CRejoinDataClientActivity@PRActivities@@UAEHXZ @ 1343 NONAME ; int PRActivities::CRejoinDataClientActivity::TRejoinLoopTag::TransitionTag(void)
	?Uid@CCommsFactoryBase@ESock@@QBE?AVTUid@@XZ @ 1344 NONAME ; class TUid ESock::CCommsFactoryBase::Uid(void) const
	?Unbind@MFlowBinderControl@ESock@@UAEXPAVMUpperDataReceiver@2@PAVMUpperControl@2@@Z @ 1345 NONAME ; void ESock::MFlowBinderControl::Unbind(class ESock::MUpperDataReceiver *, class ESock::MUpperControl *)
	?Unbind@MFlowBinderControl@ESock@@UAEXXZ @ 1346 NONAME ; void ESock::MFlowBinderControl::Unbind(void)
	?UnregisterSelf@TCommsOid@ESock@@IAEXXZ @ 1347 NONAME ; void ESock::TCommsOid::UnregisterSelf(void)
	?UpdateWith@XParameterSet@@UAEXABV1@@Z @ 1348 NONAME ; void XParameterSet::UpdateWith(class XParameterSet const &)
	?VendorId@AIPCClientPlatsecInfo@ESock@@QBEHIAAVTVendorId@@@Z @ 1349 NONAME ; int ESock::AIPCClientPlatsecInfo::VendorId(unsigned int, class TVendorId &) const
	?VendorId@ASubSessionPlatsecApiExt@ESock@@UBEHAAVTVendorId@@@Z @ 1350 NONAME ; int ESock::ASubSessionPlatsecApiExt::VendorId(class TVendorId &) const
	?VendorId@TCFSigRMessage2PlatsecExt@ESock@@MBEHAAVTVendorId@@@Z @ 1351 NONAME ; int ESock::TCFSigRMessage2PlatsecExt::VendorId(class TVendorId &) const
	?Version@RSocketServ@@QBE?AVTVersion@@XZ @ 1352 NONAME ; class TVersion RSocketServ::Version(void) const
	?Wait@AActivitySemaphore@ESock@@QAEXXZ @ 1353 NONAME ; void ESock::AActivitySemaphore::Wait(void)
	?WaitForIncoming@RConnection@@QAEHAAVRSubConnection@@@Z @ 1354 NONAME ; int RConnection::WaitForIncoming(class RSubConnection &)
	?WaitForIncoming@RConnection@@QAEXAAVRSubConnection@@AAVTRequestStatus@@@Z @ 1355 NONAME ; void RConnection::WaitForIncoming(class RSubConnection &, class TRequestStatus &)
	?Write@CServProviderBase@@UAEHAAVRMBufChain@@IPAVTSockAddr@@@Z @ 1356 NONAME ; int CServProviderBase::Write(class RMBufChain &, unsigned int, class TSockAddr *)
	?Write@CServProviderBase@@UAEIABVTDesC8@@IPAVTSockAddr@@@Z @ 1357 NONAME ; unsigned int CServProviderBase::Write(class TDesC8 const &, unsigned int, class TSockAddr *)
	?Write@RSocket@@QAEXABVTDesC8@@AAVTRequestStatus@@@Z @ 1358 NONAME ; void RSocket::Write(class TDesC8 const &, class TRequestStatus &)
	?WriteVar@CESockIniData@@QAEHABVTDesC16@@00@Z @ 1359 NONAME ; int CESockIniData::WriteVar(class TDesC16 const &, class TDesC16 const &, class TDesC16 const &)
	?WriteVar@CESockIniData@@QAEHABVTDesC16@@0H@Z @ 1360 NONAME ; int CESockIniData::WriteVar(class TDesC16 const &, class TDesC16 const &, int)
	?__DbgCheckFailNext@RSocketServ@@QBEHXZ @ 1361 NONAME ; int RSocketServ::__DbgCheckFailNext(void) const
	?__DbgCheckHeap@RSocketServ@@QAEHH@Z @ 1362 NONAME ; int RSocketServ::__DbgCheckHeap(int)
	?__DbgCheckMbuf@RSocketServ@@QAEHH@Z @ 1363 NONAME ; int RSocketServ::__DbgCheckMbuf(int)
	?__DbgControl@RSocketServ@@QAEHABVTControlMsg@ESockDebug@@@Z @ 1364 NONAME ; int RSocketServ::__DbgControl(class ESockDebug::TControlMsg const &)
	?__DbgFailNext@RSocketServ@@QAEHH@Z @ 1365 NONAME ; int RSocketServ::__DbgFailNext(int)
	?__DbgFailNextMbuf@RSocketServ@@QAEHH@Z @ 1366 NONAME ; int RSocketServ::__DbgFailNextMbuf(int)
	?__DbgForceKillMBufManager@SocketServer@@SAXXZ @ 1367 NONAME ; void SocketServer::__DbgForceKillMBufManager(void)
	?__DbgForceLoadMBufManagerL@SocketServer@@SAXXZ @ 1368 NONAME ; void SocketServer::__DbgForceLoadMBufManagerL(void)
	?__DbgMarkEnd@RSocketServ@@QAEHH@Z @ 1369 NONAME ; int RSocketServ::__DbgMarkEnd(int)
	?__DbgMarkHeap@RSocketServ@@QAEHXZ @ 1370 NONAME ; int RSocketServ::__DbgMarkHeap(void)
	?__DbgMbufFreeSpace@RSocketServ@@QAEHXZ @ 1371 NONAME ; int RSocketServ::__DbgMbufFreeSpace(void)
	?__DbgMbufTotalSpace@RSocketServ@@QAEHXZ @ 1372 NONAME ; int RSocketServ::__DbgMbufTotalSpace(void)
	?__DbgSetMbufPoolLimit@RSocketServ@@QAEHH@Z @ 1373 NONAME ; int RSocketServ::__DbgSetMbufPoolLimit(int)
	?DoNewCarrierActive@CCommsMobilitySrvIpcResponder@ESock@@UAEXVTAccessPointInfo@@H@Z @ 1374 NONAME ; void ESock::CCommsMobilitySrvIpcResponder::DoNewCarrierActive(class TAccessPointInfo, int)
	?DoPreferredCarrierAvailable@CCommsMobilitySrvIpcResponder@ESock@@UAEXVTAccessPointInfo@@0HH@Z @ 1375 NONAME ; void ESock::CCommsMobilitySrvIpcResponder::DoPreferredCarrierAvailable(class TAccessPointInfo, class TAccessPointInfo, int, int)
	?LoadAccessPointRecordsL@TierManagerUtils@ESock@@SAPAV?$CMDBRecordSet@VCCDAccessPointRecord@CommsDat@@@CommsDat@@VTUid@@ABV?$RArray@VTAccessPointInfo@@@@AAVCMDBSession@4@@Z @ 1376 NONAME ; class CommsDat::CMDBRecordSet<class CommsDat::CCDAccessPointRecord> * ESock::TierManagerUtils::LoadAccessPointRecordsL(class TUid, class RArray<class TAccessPointInfo> const &, class CommsDat::CMDBSession &)
	?NewCarrierActive@CCommsMobilitySrvResp@@SAXAAPAV1@VTAccessPointInfo@@H@Z @ 1377 NONAME ; void CCommsMobilitySrvResp::NewCarrierActive(class CCommsMobilitySrvResp * &, class TAccessPointInfo, int)
	?PreferredCarrierAvailable@CCommsMobilitySrvResp@@SAXAAPAV1@VTAccessPointInfo@@1HH@Z @ 1378 NONAME ; void CCommsMobilitySrvResp::PreferredCarrierAvailable(class CCommsMobilitySrvResp * &, class TAccessPointInfo, class TAccessPointInfo, int, int)
	?AddMatchConditionL@CConnectionServParameterBundle@ConnectionServ@@QAEXABVTAccessPointInfo@@@Z @ 1379 NONAME ; void ConnectionServ::CConnectionServParameterBundle::AddMatchConditionL(class TAccessPointInfo const &)
	?GetAttribPtr@CUPSAccessPointConfigExt@@UBEPAEH@Z @ 1380 NONAME ; unsigned char * CUPSAccessPointConfigExt::GetAttribPtr(int) const
	?GetAttribPtr@TSigUpsParameters@ESock@@UBEPAEH@Z @ 1381 NONAME ; unsigned char * ESock::TSigUpsParameters::GetAttribPtr(int) const
	?GetProcessAndThreadId@AIPCClientPlatsecInfo@ESock@@QBEHIAAVTProcessId@@AAVTThreadId@@@Z @ 1382 NONAME ; int ESock::AIPCClientPlatsecInfo::GetProcessAndThreadId(unsigned int, class TProcessId &, class TThreadId &) const
	?GetProcessAndThreadId@ASubSessionPlatsecApiExt@ESock@@UBEHAAVTProcessId@@AAVTThreadId@@@Z @ 1383 NONAME ; int ESock::ASubSessionPlatsecApiExt::GetProcessAndThreadId(class TProcessId &, class TThreadId &) const
	?GetVDataTable@CUPSAccessPointConfigExt@@UBEPBUSVDataTableEntry@Meta@@XZ @ 1384 NONAME ; struct Meta::SVDataTableEntry const * CUPSAccessPointConfigExt::GetVDataTable(void) const
	?GetVDataTable@TSigUpsParameters@ESock@@UBEPBUSVDataTableEntry@Meta@@XZ @ 1385 NONAME ; struct Meta::SVDataTableEntry const * ESock::TSigUpsParameters::GetVDataTable(void) const
	?GetVDataTableStatic@CUPSAccessPointConfigExt@@SAPBUSVDataTableEntry@Meta@@XZ @ 1386 NONAME ; struct Meta::SVDataTableEntry const * CUPSAccessPointConfigExt::GetVDataTableStatic(void)
	?GetVDataTableStatic@TSigUpsParameters@ESock@@SAPBUSVDataTableEntry@Meta@@XZ @ 1387 NONAME ; struct Meta::SVDataTableEntry const * ESock::TSigUpsParameters::GetVDataTableStatic(void)
	?ShowAccessPointRecordL@CMetaConnectionProviderBase@ESock@@MAEXPAVCMDBSession@CommsDat@@PAVCCDAccessPointRecord@4@@Z @ 1388 NONAME ; void ESock::CMetaConnectionProviderBase::ShowAccessPointRecordL(class CommsDat::CMDBSession *, class CommsDat::CCDAccessPointRecord *)
	?AddExtension@CSubConnectionProtocolParameterSet@@IAEHABUTProtocolExtensionSpecifier@@@Z @ 1389 NONAME ; int CSubConnectionProtocolParameterSet::AddExtension(struct TProtocolExtensionSpecifier const &)
	?FindAndRemoveExtension@CSubConnectionProtocolParameterSet@@QAEHAAUTProtocolExtensionSpecifier@@ABVTUid@@@Z @ 1390 NONAME ; int CSubConnectionProtocolParameterSet::FindAndRemoveExtension(struct TProtocolExtensionSpecifier &, class TUid const &)
	?FindFamily@CSubConParameterBundle@@QBEPAVCSubConParameterFamily@@K@Z @ 1391 NONAME ; class CSubConParameterFamily * CSubConParameterBundle::FindFamily(unsigned long) const
	?GetAttribPtr@TSigFlowParams@ESock@@UBEPAEH@Z @ 1392 NONAME ; unsigned char * ESock::TSigFlowParams::GetAttribPtr(int) const
	?GetAttribPtr@TSigNumberSubConnParams@ESock@@UBEPAEH@Z @ 1393 NONAME ; unsigned char * ESock::TSigNumberSubConnParams::GetAttribPtr(int) const
	?GetVDataTable@TSigFlowParams@ESock@@UBEPBUSVDataTableEntry@Meta@@XZ @ 1394 NONAME ; struct Meta::SVDataTableEntry const * ESock::TSigFlowParams::GetVDataTable(void) const
	?GetVDataTable@TSigNumberSubConnParams@ESock@@UBEPBUSVDataTableEntry@Meta@@XZ @ 1395 NONAME ; struct Meta::SVDataTableEntry const * ESock::TSigNumberSubConnParams::GetVDataTable(void) const
	?GetVDataTableStatic@TSigFlowParams@ESock@@SAPBUSVDataTableEntry@Meta@@XZ @ 1396 NONAME ; struct Meta::SVDataTableEntry const * ESock::TSigFlowParams::GetVDataTableStatic(void)
	?GetVDataTableStatic@TSigNumberSubConnParams@ESock@@SAPBUSVDataTableEntry@Meta@@XZ @ 1397 NONAME ; struct Meta::SVDataTableEntry const * ESock::TSigNumberSubConnParams::GetVDataTableStatic(void)
	?GetVTablePtr@TNoTagOrBearerPresent@CNoBearer@PRActivities@@SAPAVMStateFork@NetStateMachine@@AAVTDesC8@@PAX@Z @ 1398 NONAME ; class NetStateMachine::MStateFork * PRActivities::CNoBearer::TNoTagOrBearerPresent::GetVTablePtr(class TDesC8 &, void *)
	?NewL@CSubConnectionProtocolParameterSet@@SAPAV1@AAVCSubConParameterFamily@@W4TParameterSetType@2@@Z @ 1399 NONAME ; class CSubConnectionProtocolParameterSet * CSubConnectionProtocolParameterSet::NewL(class CSubConParameterFamily &, enum CSubConParameterFamily::TParameterSetType)
	?NewL@CSubConnectionProtocolParameterSet@@SAPAV1@XZ @ 1400 NONAME ; class CSubConnectionProtocolParameterSet * CSubConnectionProtocolParameterSet::NewL(void)
	?TransitionTag@TNoTagOrBearerPresent@CNoBearer@PRActivities@@UAEHXZ @ 1401 NONAME ; int PRActivities::CNoBearer::TNoTagOrBearerPresent::TransitionTag(void)

