EXPORTS
	Install @ 1 NONAME
	??0CAgentBase@@IAE@XZ @ 2 NONAME ; CAgentBase::CAgentBase(void)
	??0CAgentSMBase@@QAE@AAVMAgentNotify@@PAVCDialogProcessor@@AAVCCommsDbAccess@@@Z @ 3 NONAME ; CAgentSMBase::CAgentSMBase(class MAgentNotify &, class CDialogProcessor *, class CCommsDbAccess &)
	??0CAgentStateBase@@QAE@AAVMAgentStateMachineEnv@@@Z @ 4 NONAME ; CAgentStateBase::CAgentStateBase(class MAgentStateMachineEnv &)
	??0CBearerBase@@IAE@PAVMBearerObserver@@@Z @ 5 NONAME ; CBearerBase::CBearerBase(class MBearerObserver *)
	??0CNetwork@@IAE@KPAVCNetworkControllerBase@@@Z @ 6 NONAME ; CNetwork::CNetwork(unsigned long, class CNetworkControllerBase *)
	??0CNetworkControllerBase@@IAE@XZ @ 7 NONAME ; CNetworkControllerBase::CNetworkControllerBase(void)
	??0CNifAgentBase@@QAE@XZ @ 8 NONAME ; CNifAgentBase::CNifAgentBase(void)
	??0CNifFactory@@QAE@XZ @ 9 NONAME ; CNifFactory::CNifFactory(void)
	??0CNifIfBase@@IAE@AAVCNifIfLink@@@Z @ 10 NONAME ; CNifIfBase::CNifIfBase(class CNifIfLink &)
	??0CNifIfBase@@QAE@AAVCNifIfFactory@@@Z @ 11 NONAME ; CNifIfBase::CNifIfBase(class CNifIfFactory &)
	??0CNifIfBase@@QAE@XZ @ 12 NONAME ; CNifIfBase::CNifIfBase(void)
	??0CNifIfLink@@QAE@AAVCNifIfFactory@@@Z @ 13 NONAME ; CNifIfLink::CNifIfLink(class CNifIfFactory &)
	??0CStateMachineAgentBase@@IAE@XZ @ 14 NONAME ; CStateMachineAgentBase::CStateMachineAgentBase(void)
	??0MComm@@QAE@XZ @ 15 NONAME ; MComm::MComm(void)
	??0MTimer@@QAE@XZ @ 16 NONAME ; MTimer::MTimer(void)
	??0TConnectionSettings@@QAE@XZ @ 17 NONAME ; TConnectionSettings::TConnectionSettings(void)
	??1CAgentBase@@UAE@XZ @ 18 NONAME ; CAgentBase::~CAgentBase(void)
	??1CAgentSMBase@@UAE@XZ @ 19 NONAME ; CAgentSMBase::~CAgentSMBase(void)
	??1CAgentStateBase@@UAE@XZ @ 20 NONAME ; CAgentStateBase::~CAgentStateBase(void)
	??1CBearerBase@@UAE@XZ @ 21 NONAME ; CBearerBase::~CBearerBase(void)
	??1CCommsDbAccess@@UAE@XZ @ 22 NONAME ; CCommsDbAccess::~CCommsDbAccess(void)
	??1CDialogProcessor@@UAE@XZ @ 23 NONAME ; CDialogProcessor::~CDialogProcessor(void)
	??1CEventLogger@@UAE@XZ @ 24 NONAME ; CEventLogger::~CEventLogger(void)
	??1CNetwork@@UAE@XZ @ 25 NONAME ; CNetwork::~CNetwork(void)
	??1CNetworkControllerBase@@UAE@XZ @ 26 NONAME ; CNetworkControllerBase::~CNetworkControllerBase(void)
	??1CNifFactory@@MAE@XZ @ 27 NONAME ; CNifFactory::~CNifFactory(void)
	??1CNifIfBase@@UAE@XZ @ 28 NONAME ; CNifIfBase::~CNifIfBase(void)
	??1CStateMachineAgentBase@@UAE@XZ @ 29 NONAME ; CStateMachineAgentBase::~CStateMachineAgentBase(void)
	??1MCommsDbAccess@@UAE@XZ @ 30 NONAME ; MCommsDbAccess::~MCommsDbAccess(void)
	?AddAgentL@CBearerBase@@QAEXPAVCNifAgentBase@@@Z @ 31 NONAME ; void CBearerBase::AddAgentL(class CNifAgentBase *)
	?AddAgentL@CNetwork@@QAEXPAVCNifAgentBase@@@Z @ 32 NONAME ; void CNetwork::AddAgentL(class CNifAgentBase *)
	?AddBearerL@CNetworkControllerBase@@QAEXPAVCBearerBase@@@Z @ 33 NONAME ; void CNetworkControllerBase::AddBearerL(class CBearerBase *)
	?AddNetworkL@CNetworkControllerBase@@QAEXPAVCNetwork@@@Z @ 34 NONAME ; void CNetworkControllerBase::AddNetworkL(class CNetwork *)
	?AnyBearerAvailable@CBearerBase@@UAEHAAH@Z @ 35 NONAME ; int CBearerBase::AnyBearerAvailable(int &)
	?Authenticate@CAgentBase@@UAEXAAVTDes16@@0@Z @ 36 NONAME ; void CAgentBase::Authenticate(class TDes16 &, class TDes16 &)
	?Authenticate@CDialogProcessor@@QAEXAAVMDialogProcessorObserver@@AAVTDes16@@1H@Z @ 37 NONAME ; void CDialogProcessor::Authenticate(class MDialogProcessorObserver &, class TDes16 &, class TDes16 &, int)
	?AuthenticateComplete@CNifIfLink@@UAEXH@Z @ 38 NONAME ; void CNifIfLink::AuthenticateComplete(int)
	?AvailableBearerSet@CBearerBase@@QBEKXZ @ 39 NONAME ; unsigned long CBearerBase::AvailableBearerSet(void) const
	?BindL@CNifIfBase@@UAEXPAX@Z @ 40 NONAME ; void CNifIfBase::BindL(void *)
	?BindL@Nif@@SAXAAVMNifIfUser@@PAXAAVTDes16@@ABVTDesC16@@@Z @ 41 NONAME ; void Nif::BindL(class MNifIfUser &, void *, class TDes16 &, class TDesC16 const &)
	?Cancel@CEventLogger@@QAEXXZ @ 42 NONAME ; void CEventLogger::Cancel(void)
	?CancelAuthenticate@CAgentBase@@UAEXXZ @ 43 NONAME ; void CAgentBase::CancelAuthenticate(void)
	?CancelConnect@CStateMachineAgentBase@@UAEXXZ @ 44 NONAME ; void CStateMachineAgentBase::CancelConnect(void)
	?CancelEverything@CDialogProcessor@@QAEXXZ @ 45 NONAME ; void CDialogProcessor::CancelEverything(void)
	?CancelReconnect@CAgentBase@@UAEXXZ @ 46 NONAME ; void CAgentBase::CancelReconnect(void)
	?CancelRequestNotificationOfServiceChange@CAgentBase@@UAEXPAVMAgentSessionNotify@@@Z @ 47 NONAME ; void CAgentBase::CancelRequestNotificationOfServiceChange(class MAgentSessionNotify *)
	?CancelRequestNotificationOfServiceChange@CCommsDbAccess@@QAEXPAVMServiceChangeObserver@@@Z @ 48 NONAME ; void CCommsDbAccess::CancelRequestNotificationOfServiceChange(class MServiceChangeObserver *)
	?CheckInstalledL@Nif@@SAXXZ @ 49 NONAME ; void Nif::CheckInstalledL(void)
	?CheckInstalledMBufManagerL@Nif@@SAXXZ @ 50 NONAME ; void Nif::CheckInstalledMBufManagerL(void)
	?CheckReadCapability@CCommsDbAccess@@QAEHABVTDesC16@@PBVRMessagePtr2@@@Z @ 51 NONAME ; int CCommsDbAccess::CheckReadCapability(class TDesC16 const &, class RMessagePtr2 const *)
	?CheckReadCapability@CNifAgentBase@@QAEHABVTDesC16@@PBVRMessagePtr2@@@Z @ 52 NONAME ; int CNifAgentBase::CheckReadCapability(class TDesC16 const &, class RMessagePtr2 const *)
	?CheckReadCapability@MCommsDbAccess@@QAEHABVTDesC16@@PBVRMessagePtr2@@@Z @ 53 NONAME ; int MCommsDbAccess::CheckReadCapability(class TDesC16 const &, class RMessagePtr2 const *)
	?CheckWriteCapability@CCommsDbAccess@@QAEHABVTDesC16@@PBVRMessagePtr2@@@Z @ 54 NONAME ; int CCommsDbAccess::CheckWriteCapability(class TDesC16 const &, class RMessagePtr2 const *)
	?CheckWriteCapability@CNifAgentBase@@QAEHABVTDesC16@@PBVRMessagePtr2@@@Z @ 55 NONAME ; int CNifAgentBase::CheckWriteCapability(class TDesC16 const &, class RMessagePtr2 const *)
	?CheckWriteCapability@MCommsDbAccess@@QAEHABVTDesC16@@PBVRMessagePtr2@@@Z @ 56 NONAME ; int MCommsDbAccess::CheckWriteCapability(class TDesC16 const &, class RMessagePtr2 const *)
	?Cleanup@CNifFactory@@SAXPAX@Z @ 57 NONAME ; void CNifFactory::Cleanup(void *)
	?Cleanup@CNifIfBase@@SAXPAX@Z @ 58 NONAME ; void CNifIfBase::Cleanup(void *)
	?ClientStubOrdinal10@@YAXXZ @ 59 NONAME ; void ClientStubOrdinal10(void)
	?ClientStubOrdinal11@@YAXXZ @ 60 NONAME ; void ClientStubOrdinal11(void)
	?ClientStubOrdinal12@@YAXXZ @ 61 NONAME ; void ClientStubOrdinal12(void)
	?ClientStubOrdinal13@@YAXXZ @ 62 NONAME ; void ClientStubOrdinal13(void)
	?ClientStubOrdinal14@@YAXXZ @ 63 NONAME ; void ClientStubOrdinal14(void)
	?ClientStubOrdinal15@@YAXXZ @ 64 NONAME ; void ClientStubOrdinal15(void)
	?ClientStubOrdinal16@@YAXXZ @ 65 NONAME ; void ClientStubOrdinal16(void)
	?ClientStubOrdinal17@@YAXXZ @ 66 NONAME ; void ClientStubOrdinal17(void)
	?ClientStubOrdinal18@@YAXXZ @ 67 NONAME ; void ClientStubOrdinal18(void)
	?ClientStubOrdinal19@@YAXXZ @ 68 NONAME ; void ClientStubOrdinal19(void)
	?ClientStubOrdinal1@@YAXXZ @ 69 NONAME ; void ClientStubOrdinal1(void)
	?ClientStubOrdinal20@@YAXXZ @ 70 NONAME ; void ClientStubOrdinal20(void)
	?ClientStubOrdinal21@@YAXXZ @ 71 NONAME ; void ClientStubOrdinal21(void)
	?ClientStubOrdinal22@@YAXXZ @ 72 NONAME ; void ClientStubOrdinal22(void)
	?ClientStubOrdinal23@@YAXXZ @ 73 NONAME ; void ClientStubOrdinal23(void)
	?ClientStubOrdinal24@@YAXXZ @ 74 NONAME ; void ClientStubOrdinal24(void)
	?ClientStubOrdinal25@@YAXXZ @ 75 NONAME ; void ClientStubOrdinal25(void)
	?ClientStubOrdinal26@@YAXXZ @ 76 NONAME ; void ClientStubOrdinal26(void)
	?ClientStubOrdinal27@@YAXXZ @ 77 NONAME ; void ClientStubOrdinal27(void)
	?ClientStubOrdinal28@@YAXXZ @ 78 NONAME ; void ClientStubOrdinal28(void)
	?ClientStubOrdinal29@@YAXXZ @ 79 NONAME ; void ClientStubOrdinal29(void)
	?ClientStubOrdinal2@@YAXXZ @ 80 NONAME ; void ClientStubOrdinal2(void)
	?ClientStubOrdinal30@@YAXXZ @ 81 NONAME ; void ClientStubOrdinal30(void)
	?ClientStubOrdinal31@@YAXXZ @ 82 NONAME ; void ClientStubOrdinal31(void)
	?ClientStubOrdinal32@@YAXXZ @ 83 NONAME ; void ClientStubOrdinal32(void)
	?ClientStubOrdinal33@@YAXXZ @ 84 NONAME ; void ClientStubOrdinal33(void)
	?ClientStubOrdinal34@@YAXXZ @ 85 NONAME ; void ClientStubOrdinal34(void)
	?ClientStubOrdinal35@@YAXXZ @ 86 NONAME ; void ClientStubOrdinal35(void)
	?ClientStubOrdinal36@@YAXXZ @ 87 NONAME ; void ClientStubOrdinal36(void)
	?ClientStubOrdinal3@@YAXXZ @ 88 NONAME ; void ClientStubOrdinal3(void)
	?ClientStubOrdinal4@@YAXXZ @ 89 NONAME ; void ClientStubOrdinal4(void)
	?ClientStubOrdinal5@@YAXXZ @ 90 NONAME ; void ClientStubOrdinal5(void)
	?ClientStubOrdinal6@@YAXXZ @ 91 NONAME ; void ClientStubOrdinal6(void)
	?ClientStubOrdinal7@@YAXXZ @ 92 NONAME ; void ClientStubOrdinal7(void)
	?ClientStubOrdinal8@@YAXXZ @ 93 NONAME ; void ClientStubOrdinal8(void)
	?ClientStubOrdinal9@@YAXXZ @ 94 NONAME ; void ClientStubOrdinal9(void)
	?Close@CCommsDbAccess@@QAEXXZ @ 95 NONAME ; void CCommsDbAccess::Close(void)
	?Close@CNifFactory@@UAEXXZ @ 96 NONAME ; void CNifFactory::Close(void)
	?Close@CNifIfBase@@UAEXXZ @ 97 NONAME ; void CNifIfBase::Close(void)
	?ClosePct@CDialogProcessor@@QAEXXZ @ 98 NONAME ; void CDialogProcessor::ClosePct(void)
	?CommCancel@MComm@@QAEXXZ @ 99 NONAME ; void MComm::CommCancel(void)
	?CommClose@MComm@@QAEXXZ @ 100 NONAME ; void MComm::CommClose(void)
	?CommConstructL@MComm@@QAEXHH@Z @ 101 NONAME ; void MComm::CommConstructL(int, int)
	?CommDelete@MComm@@QAEXXZ @ 102 NONAME ; void MComm::CommDelete(void)
	?CommIsReading@MComm@@QBEHXZ @ 103 NONAME ; int MComm::CommIsReading(void) const
	?CommIsWriting@MComm@@QBEHXZ @ 104 NONAME ; int MComm::CommIsWriting(void) const
	?CommOpen@MComm@@QAEHABVTDesC16@@0W4TCommAccess@@@Z @ 105 NONAME ; int MComm::CommOpen(class TDesC16 const &, class TDesC16 const &, enum TCommAccess)
	?CommOpen@MComm@@QAEHABVTDesC16@@0W4TCommAccess@@W4TCommRole@@@Z @ 106 NONAME ; int MComm::CommOpen(class TDesC16 const &, class TDesC16 const &, enum TCommAccess, enum TCommRole)
	?CommOpen@MComm@@QAEHABVTDesC16@@W4TCommAccess@@@Z @ 107 NONAME ; int MComm::CommOpen(class TDesC16 const &, enum TCommAccess)
	?CommRead@MComm@@QAEXAAVTDes8@@@Z @ 108 NONAME ; void MComm::CommRead(class TDes8 &)
	?CommReadCancel@MComm@@QAEXXZ @ 109 NONAME ; void MComm::CommReadCancel(void)
	?CommReadOneOrMore@MComm@@QAEXAAVTDes8@@@Z @ 110 NONAME ; void MComm::CommReadOneOrMore(class TDes8 &)
	?CommReadReady@MComm@@QAEXXZ @ 111 NONAME ; void MComm::CommReadReady(void)
	?CommWrite@MComm@@QAEXABVTDesC8@@@Z @ 112 NONAME ; void MComm::CommWrite(class TDesC8 const &)
	?CommWriteCancel@MComm@@QAEXXZ @ 113 NONAME ; void MComm::CommWriteCancel(void)
	?CommWriteReady@MComm@@QAEXXZ @ 114 NONAME ; void MComm::CommWriteReady(void)
	?CompleteState@CAgentSMBase@@UAEXH@Z @ 115 NONAME ; void CAgentSMBase::CompleteState(int)
	?Connect@CStateMachineAgentBase@@UAEXW4TAgentConnectType@@@Z @ 116 NONAME ; void CStateMachineAgentBase::Connect(enum TAgentConnectType)
	?Connect@CStateMachineAgentBase@@UAEXW4TAgentConnectType@@PAVCStoreableOverrideSettings@@@Z @ 117 NONAME ; void CStateMachineAgentBase::Connect(enum TAgentConnectType, class CStoreableOverrideSettings *)
	?ConnectionComplete@CAgentSMBase@@UAEXH@Z @ 118 NONAME ; void CAgentSMBase::ConnectionComplete(int)
	?ConnectionComplete@CAgentSMBase@@UAEXHH@Z @ 119 NONAME ; void CAgentSMBase::ConnectionComplete(int, int)
	?ConnectionComplete@CStateMachineAgentBase@@UAEXH@Z @ 120 NONAME ; void CStateMachineAgentBase::ConnectionComplete(int)
	?ConnectionComplete@CStateMachineAgentBase@@UAEXHH@Z @ 121 NONAME ; void CStateMachineAgentBase::ConnectionComplete(int, int)
	?ConnectionContinuation@CAgentSMBase@@UAEXW4TSMContinueConnectType@1@@Z @ 122 NONAME ; void CAgentSMBase::ConnectionContinuation(enum CAgentSMBase::TSMContinueConnectType)
	?ConnectionSettingsL@CAgentBase@@UAEAAVTConnectionSettings@@XZ @ 123 NONAME ; class TConnectionSettings & CAgentBase::ConnectionSettingsL(void)
	?ConstructL@CAgentBase@@IAEXXZ @ 124 NONAME ; void CAgentBase::ConstructL(void)
	?ConstructL@CBearerBase@@IAEXXZ @ 125 NONAME ; void CBearerBase::ConstructL(void)
	?ConstructL@CNetwork@@IAEXXZ @ 126 NONAME ; void CNetwork::ConstructL(void)
	?ConstructL@CStateMachineAgentBase@@IAEXXZ @ 127 NONAME ; void CStateMachineAgentBase::ConstructL(void)
	?Control@CNifAgentBase@@UAEHIIAAVTDes8@@@Z @ 128 NONAME ; int CNifAgentBase::Control(unsigned int, unsigned int, class TDes8 &)
	?Control@CNifIfBase@@UAEHIIAAVTDes8@@PAX@Z @ 129 NONAME ; int CNifIfBase::Control(unsigned int, unsigned int, class TDes8 &, void *)
	?ControlledDelete@CNifFactory@@SAHPAX@Z @ 130 NONAME ; int CNifFactory::ControlledDelete(void *)
	?CreateAgentL@Nif@@SAPAVCNifAgentBase@@ABVTDesC16@@H@Z @ 131 NONAME ; class CNifAgentBase * Nif::CreateAgentL(class TDesC16 const &, int)
	?CreateInterfaceL@Nif@@SAPAVCNifIfBase@@ABVTDesC16@@@Z @ 132 NONAME ; class CNifIfBase * Nif::CreateInterfaceL(class TDesC16 const &)
	?CreateInterfaceL@Nif@@SAPAVCNifIfBase@@ABVTDesC16@@PAVMNifIfNotify@@@Z @ 133 NONAME ; class CNifIfBase * Nif::CreateInterfaceL(class TDesC16 const &, class MNifIfNotify *)
	?Db@CAgentSMBase@@UAEPAVCCommsDbAccess@@XZ @ 134 NONAME ; class CCommsDbAccess * CAgentSMBase::Db(void)
	?DestroyPctNotification@CDialogProcessor@@QAEXAAVMDialogProcessorObserver@@@Z @ 135 NONAME ; void CDialogProcessor::DestroyPctNotification(class MDialogProcessorObserver &)
	?Disconnect@CStateMachineAgentBase@@UAEXH@Z @ 136 NONAME ; void CStateMachineAgentBase::Disconnect(int)
	?DisconnectComplete@CAgentSMBase@@UAEXXZ @ 137 NONAME ; void CAgentSMBase::DisconnectComplete(void)
	?DisconnectComplete@CStateMachineAgentBase@@UAEXXZ @ 138 NONAME ; void CStateMachineAgentBase::DisconnectComplete(void)
	?DlgPrc@CAgentSMBase@@UAEPAVCDialogProcessor@@XZ @ 139 NONAME ; class CDialogProcessor * CAgentSMBase::DlgPrc(void)
	?DoCancel@CAgentSMBase@@EAEXXZ @ 140 NONAME ; void CAgentSMBase::DoCancel(void)
	?DoCheckReadCapability@CAgentBase@@MAEHABVTDesC16@@PBVRMessagePtr2@@@Z @ 141 NONAME ; int CAgentBase::DoCheckReadCapability(class TDesC16 const &, class RMessagePtr2 const *)
	?DoCheckReadCapability@CNifAgentBase@@MAEHABVTDesC16@@PBVRMessagePtr2@@@Z @ 142 NONAME ; int CNifAgentBase::DoCheckReadCapability(class TDesC16 const &, class RMessagePtr2 const *)
	?DoCheckWriteCapability@CAgentBase@@MAEHABVTDesC16@@PBVRMessagePtr2@@@Z @ 143 NONAME ; int CAgentBase::DoCheckWriteCapability(class TDesC16 const &, class RMessagePtr2 const *)
	?DoCheckWriteCapability@CNifAgentBase@@MAEHABVTDesC16@@PBVRMessagePtr2@@@Z @ 144 NONAME ; int CNifAgentBase::DoCheckWriteCapability(class TDesC16 const &, class RMessagePtr2 const *)
	?DoReadBool@CAgentBase@@MAEHABVTDesC16@@AAHPBVRMessagePtr2@@@Z @ 145 NONAME ; int CAgentBase::DoReadBool(class TDesC16 const &, int &, class RMessagePtr2 const *)
	?DoReadDes@CAgentBase@@MAEHABVTDesC16@@AAVTDes16@@PBVRMessagePtr2@@@Z @ 146 NONAME ; int CAgentBase::DoReadDes(class TDesC16 const &, class TDes16 &, class RMessagePtr2 const *)
	?DoReadDes@CAgentBase@@MAEHABVTDesC16@@AAVTDes8@@PBVRMessagePtr2@@@Z @ 147 NONAME ; int CAgentBase::DoReadDes(class TDesC16 const &, class TDes8 &, class RMessagePtr2 const *)
	?DoReadInt@CAgentBase@@MAEHABVTDesC16@@AAKPBVRMessagePtr2@@@Z @ 148 NONAME ; int CAgentBase::DoReadInt(class TDesC16 const &, unsigned long &, class RMessagePtr2 const *)
	?DoReadLongDesLC@CAgentBase@@MAEPAVHBufC16@@ABVTDesC16@@PBVRMessagePtr2@@@Z @ 149 NONAME ; class HBufC16 * CAgentBase::DoReadLongDesLC(class TDesC16 const &, class RMessagePtr2 const *)
	?DoWriteBool@CAgentBase@@MAEHABVTDesC16@@HPBVRMessagePtr2@@@Z @ 150 NONAME ; int CAgentBase::DoWriteBool(class TDesC16 const &, int, class RMessagePtr2 const *)
	?DoWriteDes@CAgentBase@@MAEHABVTDesC16@@0PBVRMessagePtr2@@@Z @ 151 NONAME ; int CAgentBase::DoWriteDes(class TDesC16 const &, class TDesC16 const &, class RMessagePtr2 const *)
	?DoWriteDes@CAgentBase@@MAEHABVTDesC16@@ABVTDesC8@@PBVRMessagePtr2@@@Z @ 152 NONAME ; int CAgentBase::DoWriteDes(class TDesC16 const &, class TDesC8 const &, class RMessagePtr2 const *)
	?DoWriteInt@CAgentBase@@MAEHABVTDesC16@@KPBVRMessagePtr2@@@Z @ 153 NONAME ; int CAgentBase::DoWriteInt(class TDesC16 const &, unsigned long, class RMessagePtr2 const *)
	?DoesIapExistL@CCommsDbAccess@@QAEHK@Z @ 154 NONAME ; int CCommsDbAccess::DoesIapExistL(unsigned long)
	?FindAgentByIap@CNetwork@@QBEHKAAPAVCNifAgentBase@@@Z @ 155 NONAME ; int CNetwork::FindAgentByIap(unsigned long, class CNifAgentBase * &) const
	?FindNetworkById@CNetworkControllerBase@@QBEHKAAPAVCNetwork@@@Z @ 156 NONAME ; int CNetworkControllerBase::FindNetworkById(unsigned long, class CNetwork * &) const
	?GetBearerAvailabilityTsyNameL@CCommsDbAccess@@QAEXAAVTDes16@@@Z @ 157 NONAME ; void CCommsDbAccess::GetBearerAvailabilityTsyNameL(class TDes16 &)
	?GetBoolL@CCommsDbAccess@@QAEXABVTDesC16@@0AAH@Z @ 158 NONAME ; void CCommsDbAccess::GetBoolL(class TDesC16 const &, class TDesC16 const &, int &)
	?GetConnectionAttempts@CCommsDbAccess@@QAEHXZ @ 159 NONAME ; int CCommsDbAccess::GetConnectionAttempts(void)
	?GetConnectionDirection@CCommsDbAccess@@QBE?AW4TCommDbConnectionDirection@@XZ @ 160 NONAME ; enum TCommDbConnectionDirection CCommsDbAccess::GetConnectionDirection(void) const
	?GetCurrentSettingsL@CCommsDbAccess@@QAEXAAVTConnectionSettings@@W4TCommDbConnectionDirection@@K@Z @ 161 NONAME ; void CCommsDbAccess::GetCurrentSettingsL(class TConnectionSettings &, enum TCommDbConnectionDirection, unsigned long)
	?GetDesL@CCommsDbAccess@@QAEXABVTDesC16@@0AAVTDes16@@@Z @ 162 NONAME ; void CCommsDbAccess::GetDesL(class TDesC16 const &, class TDesC16 const &, class TDes16 &)
	?GetDesL@CCommsDbAccess@@QAEXABVTDesC16@@0AAVTDes8@@@Z @ 163 NONAME ; void CCommsDbAccess::GetDesL(class TDesC16 const &, class TDesC16 const &, class TDes8 &)
	?GetExcessData@CStateMachineAgentBase@@UAEHAAVTDes8@@@Z @ 164 NONAME ; int CStateMachineAgentBase::GetExcessData(class TDes8 &)
	?GetFirstValidIapL@CCommsDbAccess@@QAEXAAK@Z @ 165 NONAME ; void CCommsDbAccess::GetFirstValidIapL(unsigned long &)
	?GetGlobalL@CCommsDbAccess@@QAEXABVTDesC16@@AAK@Z @ 166 NONAME ; void CCommsDbAccess::GetGlobalL(class TDesC16 const &, unsigned long &)
	?GetIntL@CCommsDbAccess@@QAEXABVTDesC16@@0AAK@Z @ 167 NONAME ; void CCommsDbAccess::GetIntL(class TDesC16 const &, class TDesC16 const &, unsigned long &)
	?GetLastError@CAgentSMBase@@UAEXAAH@Z @ 168 NONAME ; void CAgentSMBase::GetLastError(int &)
	?GetLastError@CStateMachineAgentBase@@UAEXAAH@Z @ 169 NONAME ; void CStateMachineAgentBase::GetLastError(int &)
	?GetLengthOfLongDesL@CCommsDbAccess@@QAEHABVTDesC16@@0@Z @ 170 NONAME ; int CCommsDbAccess::GetLengthOfLongDesL(class TDesC16 const &, class TDesC16 const &)
	?GetLongDesLC@CCommsDbAccess@@QAEPAVHBufC16@@ABVTDesC16@@0@Z @ 171 NONAME ; class HBufC16 * CCommsDbAccess::GetLongDesLC(class TDesC16 const &, class TDesC16 const &)
	?GetPreferedIapL@CCommsDbAccess@@QAEXAAKW4TCommDbConnectionDirection@@K@Z @ 172 NONAME ; void CCommsDbAccess::GetPreferedIapL(unsigned long &, enum TCommDbConnectionDirection, unsigned long)
	?GetServiceSettingsL@CCommsDbAccess@@QAEXAAVTConnectionSettings@@@Z @ 173 NONAME ; void CCommsDbAccess::GetServiceSettingsL(class TConnectionSettings &)
	?GetServiceTypeL@CCommsDbAccess@@QAEXAAVTDes16@@@Z @ 174 NONAME ; void CCommsDbAccess::GetServiceTypeL(class TDes16 &)
	?GetTsyNameL@CCommsDbAccess@@QAEXAAVTDes16@@@Z @ 175 NONAME ; void CCommsDbAccess::GetTsyNameL(class TDes16 &)
	?IncomingConnectionReceived@CAgentSMBase@@UAEHXZ @ 176 NONAME ; int CAgentSMBase::IncomingConnectionReceived(void)
	?IncomingConnectionReceived@CStateMachineAgentBase@@UAEHXZ @ 177 NONAME ; int CStateMachineAgentBase::IncomingConnectionReceived(void)
	?InitL@CNifFactory@@QAEXAAVRLibrary@@AAVCObjectCon@@@Z @ 178 NONAME ; void CNifFactory::InitL(class RLibrary &, class CObjectCon &)
	?IsActive@CAgentBase@@UBEHXZ @ 179 NONAME ; int CAgentBase::IsActive(void) const
	?IsProtocolLoaded@Nif@@SAPAVCProtocolBase@@ABVTDesC16@@@Z @ 180 NONAME ; class CProtocolBase * Nif::IsProtocolLoaded(class TDesC16 const &)
	?IsReconnect@CStateMachineAgentBase@@UBEHXZ @ 181 NONAME ; int CStateMachineAgentBase::IsReconnect(void) const
	?IsShowingHiddenRecords@CCommsDbAccess@@QAEHXZ @ 182 NONAME ; int CCommsDbAccess::IsShowingHiddenRecords(void)
	?IsTelNumLengthZeroForRasConnectionL@CCommsDbAccess@@QAEHAAVTConnectionSettings@@@Z @ 183 NONAME ; int CCommsDbAccess::IsTelNumLengthZeroForRasConnectionL(class TConnectionSettings &)
	?JumpToRunl@CAgentStateBase@@IAEXH@Z @ 184 NONAME ; void CAgentStateBase::JumpToRunl(int)
	?LocationId@CCommsDbAccess@@QBEKXZ @ 185 NONAME ; unsigned long CCommsDbAccess::LocationId(void) const
	?LogCallEnd@CEventLogger@@QAEXAAVTRequestStatus@@@Z @ 186 NONAME ; void CEventLogger::LogCallEnd(class TRequestStatus &)
	?LogCallStart@CEventLogger@@QAEXABVTDesC16@@H0VTUid@@AAVTRequestStatus@@@Z @ 187 NONAME ; void CEventLogger::LogCallStart(class TDesC16 const &, int, class TDesC16 const &, class TUid, class TRequestStatus &)
	?LogDataAddEvent@CEventLogger@@QAEXHABVTDesC16@@H0VTUid@@@Z @ 188 NONAME ; void CEventLogger::LogDataAddEvent(int, class TDesC16 const &, int, class TDesC16 const &, class TUid)
	?LogDataNotifyLastEventUpdate@CEventLogger@@QAEXPAVTRequestStatus@@@Z @ 189 NONAME ; void CEventLogger::LogDataNotifyLastEventUpdate(class TRequestStatus *)
	?LogDataTransferred@CEventLogger@@QAEX_J0VTUid@@AAVTRequestStatus@@@Z @ 190 NONAME ; void CEventLogger::LogDataTransferred(long long, long long, class TUid, class TRequestStatus &)
	?LogDataUpdateEvent@CEventLogger@@QAEHHABVTUid@@@Z @ 191 NONAME ; int CEventLogger::LogDataUpdateEvent(int, class TUid const &)
	?LogDataUpdateEvent@CEventLogger@@QAEHHABVTUid@@AB_J1@Z @ 192 NONAME ; int CEventLogger::LogDataUpdateEvent(int, class TUid const &, long long const &, long long const &)
	?Login@CDialogProcessor@@QAEXAAVMDialogProcessorObserver@@AAVTDes16@@1H@Z @ 193 NONAME ; void CDialogProcessor::Login(class MDialogProcessorObserver &, class TDes16 &, class TDes16 &, int)
	?MDPOAuthenticateComplete@CAgentBase@@UAEXH@Z @ 194 NONAME ; void CAgentBase::MDPOAuthenticateComplete(int)
	?MDPOAuthenticateComplete@MDialogProcessorObserver@@UAEXH@Z @ 195 NONAME ; void MDialogProcessorObserver::MDPOAuthenticateComplete(int)
	?MDPODestroyPctComplete@MDialogProcessorObserver@@UAEXH@Z @ 196 NONAME ; void MDialogProcessorObserver::MDPODestroyPctComplete(int)
	?MDPOLoginComplete@MDialogProcessorObserver@@UAEXH@Z @ 197 NONAME ; void MDialogProcessorObserver::MDPOLoginComplete(int)
	?MDPOQoSWarningComplete@MDialogProcessorObserver@@UAEXHH@Z @ 198 NONAME ; void MDialogProcessorObserver::MDPOQoSWarningComplete(int, int)
	?MDPOReadPctComplete@MDialogProcessorObserver@@UAEXH@Z @ 199 NONAME ; void MDialogProcessorObserver::MDPOReadPctComplete(int)
	?MDPOReconnectComplete@MDialogProcessorObserver@@UAEXH@Z @ 200 NONAME ; void MDialogProcessorObserver::MDPOReconnectComplete(int)
	?MDPOSelectComplete@MDialogProcessorObserver@@UAEXHABVTConnectionSettings@@@Z @ 201 NONAME ; void MDialogProcessorObserver::MDPOSelectComplete(int, class TConnectionSettings const &)
	?MDPOSelectModemAndLocationComplete@MDialogProcessorObserver@@UAEXHABVTConnectionSettings@@@Z @ 202 NONAME ; void MDialogProcessorObserver::MDPOSelectModemAndLocationComplete(int, class TConnectionSettings const &)
	?MDPOWarnComplete@MDialogProcessorObserver@@UAEXHH@Z @ 203 NONAME ; void MDialogProcessorObserver::MDPOWarnComplete(int, int)
	?ModemTable@CCommsDbAccess@@QAEPAVCCommsDbAccessModemTable@1@XZ @ 204 NONAME ; class CCommsDbAccess::CCommsDbAccessModemTable * CCommsDbAccess::ModemTable(void)
	?NetworkId@CNetwork@@QBEKXZ @ 205 NONAME ; unsigned long CNetwork::NetworkId(void) const
	?NetworkLayerClosed@Nif@@SAXAAVMNifIfUser@@@Z @ 206 NONAME ; void Nif::NetworkLayerClosed(class MNifIfUser &)
	?NetworkMode@CCommsDbAccess@@QBE?AW4TMobilePhoneNetworkMode@RMobilePhone@@XZ @ 207 NONAME ; enum RMobilePhone::TMobilePhoneNetworkMode CCommsDbAccess::NetworkMode(void) const
	?NewConnectionL@Nif@@SAPAVCConnectionProvdBase@@PAVMConnectionNotify@@I@Z @ 208 NONAME ; class CConnectionProvdBase * Nif::NewConnectionL(class MConnectionNotify *, unsigned int)
	?NewInterfaceL@CNifIfFactory@@MAEPAVCNifIfBase@@ABVTDesC16@@PAVMNifIfNotify@@@Z @ 209 NONAME ; class CNifIfBase * CNifIfFactory::NewInterfaceL(class TDesC16 const &, class MNifIfNotify *)
	?NewL@CCommsDbAccess@@SAPAV1@H@Z @ 210 NONAME ; class CCommsDbAccess * CCommsDbAccess::NewL(int)
	?NewL@CCommsDbAccess@@SAPAV1@PAVMCommsDbAccess@@@Z @ 211 NONAME ; class CCommsDbAccess * CCommsDbAccess::NewL(class MCommsDbAccess *)
	?NewL@CCommsDbAccess@@SAPAV1@XZ @ 212 NONAME ; class CCommsDbAccess * CCommsDbAccess::NewL(void)
	?NewL@CDialogProcessor@@SAPAV1@H@Z @ 213 NONAME ; class CDialogProcessor * CDialogProcessor::NewL(int)
	?NewL@CEventLogger@@SAPAV1@XZ @ 214 NONAME ; class CEventLogger * CEventLogger::NewL(void)
	?NewL@CNetwork@@SAPAV1@KPAVCNetworkControllerBase@@@Z @ 215 NONAME ; class CNetwork * CNetwork::NewL(unsigned long, class CNetworkControllerBase *)
	?NewLC@CNetwork@@SAPAV1@KPAVCNetworkControllerBase@@@Z @ 216 NONAME ; class CNetwork * CNetwork::NewLC(unsigned long, class CNetworkControllerBase *)
	?Notification@CAgentSMBase@@UAEHW4TAgentToNifEventType@@PAX@Z @ 217 NONAME ; int CAgentSMBase::Notification(enum TAgentToNifEventType, void *)
	?Notification@CStateMachineAgentBase@@UAEHW4TAgentToNifEventType@@PAX@Z @ 218 NONAME ; int CStateMachineAgentBase::Notification(enum TAgentToNifEventType, void *)
	?Notification@CStateMachineAgentBase@@UAEHW4TNifToAgentEventType@@PAX@Z @ 219 NONAME ; int CStateMachineAgentBase::Notification(enum TNifToAgentEventType, void *)
	?Open@CNifFactory@@UAEHXZ @ 220 NONAME ; int CNifFactory::Open(void)
	?Open@CNifIfBase@@UAEXXZ @ 221 NONAME ; void CNifIfBase::Open(void)
	?OpenPct@CDialogProcessor@@QAEHXZ @ 222 NONAME ; int CDialogProcessor::OpenPct(void)
	?OverridesL@CAgentBase@@UAEPAVCStoreableOverrideSettings@@XZ @ 223 NONAME ; class CStoreableOverrideSettings * CAgentBase::OverridesL(void)
	?PreventConnectionRetries@CAgentSMBase@@UAEXXZ @ 224 NONAME ; void CAgentSMBase::PreventConnectionRetries(void)
	?PreventConnectionRetries@CStateMachineAgentBase@@UAEXXZ @ 225 NONAME ; void CStateMachineAgentBase::PreventConnectionRetries(void)
	?ProgressL@Nif@@SAXAAVTNifProgress@@ABVTDesC16@@@Z @ 226 NONAME ; void Nif::ProgressL(class TNifProgress &, class TDesC16 const &)
	?ProgressL@Nif@@SAXAAVTNifProgress@@PAXPAVCNifIfBase@@@Z @ 227 NONAME ; void Nif::ProgressL(class TNifProgress &, void *, class CNifIfBase *)
	?QoSWarning@CDialogProcessor@@QAEXAAVMDialogProcessorObserver@@@Z @ 228 NONAME ; void CDialogProcessor::QoSWarning(class MDialogProcessorObserver &)
	?ReadBool@CCommsDbAccess@@QAEHABVTDesC16@@AAH@Z @ 229 NONAME ; int CCommsDbAccess::ReadBool(class TDesC16 const &, int &)
	?ReadBool@CNifAgentBase@@QAEHABVTDesC16@@AAH@Z @ 230 NONAME ; int CNifAgentBase::ReadBool(class TDesC16 const &, int &)
	?ReadBool@CNifAgentBase@@QAEHABVTDesC16@@AAHPBVRMessagePtr2@@@Z @ 231 NONAME ; int CNifAgentBase::ReadBool(class TDesC16 const &, int &, class RMessagePtr2 const *)
	?ReadBool@MNifIfNotify@@QAEHABVTDesC16@@AAH@Z @ 232 NONAME ; int MNifIfNotify::ReadBool(class TDesC16 const &, int &)
	?ReadBool@MNifIfNotify@@QAEHABVTDesC16@@AAHPBVRMessagePtr2@@@Z @ 233 NONAME ; int MNifIfNotify::ReadBool(class TDesC16 const &, int &, class RMessagePtr2 const *)
	?ReadDes@CCommsDbAccess@@QAEHABVTDesC16@@AAVTDes16@@@Z @ 234 NONAME ; int CCommsDbAccess::ReadDes(class TDesC16 const &, class TDes16 &)
	?ReadDes@CCommsDbAccess@@QAEHABVTDesC16@@AAVTDes8@@@Z @ 235 NONAME ; int CCommsDbAccess::ReadDes(class TDesC16 const &, class TDes8 &)
	?ReadDes@CNifAgentBase@@QAEHABVTDesC16@@AAVTDes16@@@Z @ 236 NONAME ; int CNifAgentBase::ReadDes(class TDesC16 const &, class TDes16 &)
	?ReadDes@CNifAgentBase@@QAEHABVTDesC16@@AAVTDes16@@PBVRMessagePtr2@@@Z @ 237 NONAME ; int CNifAgentBase::ReadDes(class TDesC16 const &, class TDes16 &, class RMessagePtr2 const *)
	?ReadDes@CNifAgentBase@@QAEHABVTDesC16@@AAVTDes8@@@Z @ 238 NONAME ; int CNifAgentBase::ReadDes(class TDesC16 const &, class TDes8 &)
	?ReadDes@CNifAgentBase@@QAEHABVTDesC16@@AAVTDes8@@PBVRMessagePtr2@@@Z @ 239 NONAME ; int CNifAgentBase::ReadDes(class TDesC16 const &, class TDes8 &, class RMessagePtr2 const *)
	?ReadDes@MNifIfNotify@@QAEHABVTDesC16@@AAVTDes16@@@Z @ 240 NONAME ; int MNifIfNotify::ReadDes(class TDesC16 const &, class TDes16 &)
	?ReadDes@MNifIfNotify@@QAEHABVTDesC16@@AAVTDes16@@PBVRMessagePtr2@@@Z @ 241 NONAME ; int MNifIfNotify::ReadDes(class TDesC16 const &, class TDes16 &, class RMessagePtr2 const *)
	?ReadDes@MNifIfNotify@@QAEHABVTDesC16@@AAVTDes8@@@Z @ 242 NONAME ; int MNifIfNotify::ReadDes(class TDesC16 const &, class TDes8 &)
	?ReadDes@MNifIfNotify@@QAEHABVTDesC16@@AAVTDes8@@PBVRMessagePtr2@@@Z @ 243 NONAME ; int MNifIfNotify::ReadDes(class TDesC16 const &, class TDes8 &, class RMessagePtr2 const *)
	?ReadInt@CCommsDbAccess@@QAEHABVTDesC16@@AAK@Z @ 244 NONAME ; int CCommsDbAccess::ReadInt(class TDesC16 const &, unsigned long &)
	?ReadInt@CNifAgentBase@@QAEHABVTDesC16@@AAK@Z @ 245 NONAME ; int CNifAgentBase::ReadInt(class TDesC16 const &, unsigned long &)
	?ReadInt@CNifAgentBase@@QAEHABVTDesC16@@AAKPBVRMessagePtr2@@@Z @ 246 NONAME ; int CNifAgentBase::ReadInt(class TDesC16 const &, unsigned long &, class RMessagePtr2 const *)
	?ReadInt@MNifIfNotify@@QAEHABVTDesC16@@AAK@Z @ 247 NONAME ; int MNifIfNotify::ReadInt(class TDesC16 const &, unsigned long &)
	?ReadInt@MNifIfNotify@@QAEHABVTDesC16@@AAKPBVRMessagePtr2@@@Z @ 248 NONAME ; int MNifIfNotify::ReadInt(class TDesC16 const &, unsigned long &, class RMessagePtr2 const *)
	?ReadLongDesLC@CCommsDbAccess@@QAEPAVHBufC16@@ABVTDesC16@@@Z @ 249 NONAME ; class HBufC16 * CCommsDbAccess::ReadLongDesLC(class TDesC16 const &)
	?ReadLongDesLC@CNifAgentBase@@QAEPAVHBufC16@@ABVTDesC16@@@Z @ 250 NONAME ; class HBufC16 * CNifAgentBase::ReadLongDesLC(class TDesC16 const &)
	?ReadLongDesLC@CNifAgentBase@@QAEPAVHBufC16@@ABVTDesC16@@PBVRMessagePtr2@@@Z @ 251 NONAME ; class HBufC16 * CNifAgentBase::ReadLongDesLC(class TDesC16 const &, class RMessagePtr2 const *)
	?ReadPct@CDialogProcessor@@QAEXAAVMDialogProcessorObserver@@AAVTDes16@@@Z @ 252 NONAME ; void CDialogProcessor::ReadPct(class MDialogProcessorObserver &, class TDes16 &)
	?Reconnect@CAgentBase@@UAEXXZ @ 253 NONAME ; void CAgentBase::Reconnect(void)
	?Reconnect@CDialogProcessor@@QAEXAAVMDialogProcessorObserver@@@Z @ 254 NONAME ; void CDialogProcessor::Reconnect(class MDialogProcessorObserver &)
	?ReconnectComplete@CAgentBase@@UAEXH@Z @ 255 NONAME ; void CAgentBase::ReconnectComplete(int)
	?RemoveAgentL@CBearerBase@@QAEXPAVCNifAgentBase@@@Z @ 256 NONAME ; void CBearerBase::RemoveAgentL(class CNifAgentBase *)
	?RemoveAgentL@CNetwork@@QAEXPAVCNifAgentBase@@@Z @ 257 NONAME ; void CNetwork::RemoveAgentL(class CNifAgentBase *)
	?RequestNotificationOfServiceChangeL@CAgentBase@@UAEXPAVMAgentSessionNotify@@@Z @ 258 NONAME ; void CAgentBase::RequestNotificationOfServiceChangeL(class MAgentSessionNotify *)
	?RequestNotificationOfServiceChangeL@CCommsDbAccess@@QAEXPAVMServiceChangeObserver@@@Z @ 259 NONAME ; void CCommsDbAccess::RequestNotificationOfServiceChangeL(class MServiceChangeObserver *)
	?Restart@CNifIfLink@@UAEXPAVCNifIfBase@@@Z @ 260 NONAME ; void CNifIfLink::Restart(class CNifIfBase *)
	?RunL@CAgentSMBase@@EAEXXZ @ 261 NONAME ; void CAgentSMBase::RunL(void)
	?SecondPhaseAvailability@CBearerBase@@UAEHXZ @ 262 NONAME ; int CBearerBase::SecondPhaseAvailability(void)
	?SelectComplete@CAgentBase@@UAEXABVTDesC16@@@Z @ 263 NONAME ; void CAgentBase::SelectComplete(class TDesC16 const &)
	?SelectComplete@CAgentBase@@UAEXH@Z @ 264 NONAME ; void CAgentBase::SelectComplete(int)
	?SelectConnection@CDialogProcessor@@QAEXAAVMDialogProcessorObserver@@ABVTConnectionPrefs@@@Z @ 265 NONAME ; void CDialogProcessor::SelectConnection(class MDialogProcessorObserver &, class TConnectionPrefs const &)
	?SelectConnection@CDialogProcessor@@QAEXAAVMDialogProcessorObserver@@ABVTConnectionPrefs@@H@Z @ 266 NONAME ; void CDialogProcessor::SelectConnection(class MDialogProcessorObserver &, class TConnectionPrefs const &, int)
	?SelectModemAndLocation@CDialogProcessor@@QAEXAAVMDialogProcessorObserver@@@Z @ 267 NONAME ; void CDialogProcessor::SelectModemAndLocation(class MDialogProcessorObserver &)
	?ServiceChangeNotification@CAgentBase@@UAEXKABVTDesC16@@@Z @ 268 NONAME ; void CAgentBase::ServiceChangeNotification(unsigned long, class TDesC16 const &)
	?ServiceStarted@CAgentSMBase@@UAEXXZ @ 269 NONAME ; void CAgentSMBase::ServiceStarted(void)
	?ServiceStarted@CStateMachineAgentBase@@UAEXXZ @ 270 NONAME ; void CStateMachineAgentBase::ServiceStarted(void)
	?SetCommPortL@CCommsDbAccess@@QAEXABUTCommPort@RCall@@@Z @ 271 NONAME ; void CCommsDbAccess::SetCommPortL(struct RCall::TCommPort const &)
	?SetConnectionSettingsL@CAgentBase@@UAEXABVTConnectionSettings@@@Z @ 272 NONAME ; void CAgentBase::SetConnectionSettingsL(class TConnectionSettings const &)
	?SetCurrentSettingsL@CCommsDbAccess@@QAEXABVTConnectionSettings@@@Z @ 273 NONAME ; void CCommsDbAccess::SetCurrentSettingsL(class TConnectionSettings const &)
	?SetModemAndLocationL@CCommsDbAccess@@QAEXABVTConnectionSettings@@@Z @ 274 NONAME ; void CCommsDbAccess::SetModemAndLocationL(class TConnectionSettings const &)
	?SetNetworkMode@CCommsDbAccess@@QAEXW4TMobilePhoneNetworkMode@RMobilePhone@@@Z @ 275 NONAME ; void CCommsDbAccess::SetNetworkMode(enum RMobilePhone::TMobilePhoneNetworkMode)
	?SetOverridesL@CAgentBase@@UAEXPAVCStoreableOverrideSettings@@@Z @ 276 NONAME ; void CAgentBase::SetOverridesL(class CStoreableOverrideSettings *)
	?SetOverridesL@CCommsDbAccess@@QAEXPAVCCommDbOverrideSettings@@@Z @ 277 NONAME ; void CCommsDbAccess::SetOverridesL(class CCommDbOverrideSettings *)
	?SetPreferedIapL@CCommsDbAccess@@QAEXAAKW4TCommDbConnectionDirection@@K@Z @ 278 NONAME ; void CCommsDbAccess::SetPreferedIapL(unsigned long &, enum TCommDbConnectionDirection, unsigned long)
	?SetSocketState@Nif@@SAHW4TNifSocketState@@PAVCServProviderBase@@@Z @ 279 NONAME ; int Nif::SetSocketState(enum TNifSocketState, class CServProviderBase *)
	?StartL@Nif@@SAXAAVTDes16@@ABVTDesC16@@@Z @ 280 NONAME ; void Nif::StartL(class TDes16 &, class TDesC16 const &)
	?State@CNifIfBase@@UAEHXZ @ 281 NONAME ; int CNifIfBase::State(void)
	?Stop@Nif@@SAXABVTDesC16@@@Z @ 282 NONAME ; void Nif::Stop(class TDesC16 const &)
	?Stop@Nif@@SAXPAXPAVCNifIfBase@@@Z @ 283 NONAME ; void Nif::Stop(void *, class CNifIfBase *)
	?SupportedBearerSet@CBearerBase@@QBEKXZ @ 284 NONAME ; unsigned long CBearerBase::SupportedBearerSet(void) const
	?TimerAfter@MTimer@@QAEXVTTimeIntervalMicroSeconds32@@@Z @ 285 NONAME ; void MTimer::TimerAfter(class TTimeIntervalMicroSeconds32)
	?TimerAt@MTimer@@QAEXABVTTime@@@Z @ 286 NONAME ; void MTimer::TimerAt(class TTime const &)
	?TimerCancel@MTimer@@QAEXXZ @ 287 NONAME ; void MTimer::TimerCancel(void)
	?TimerConstructL@MTimer@@QAEXH@Z @ 288 NONAME ; void MTimer::TimerConstructL(int)
	?TimerDelete@MTimer@@QAEXXZ @ 289 NONAME ; void MTimer::TimerDelete(void)
	?TimerLock@MTimer@@QAEXW4TTimerLockSpec@@@Z @ 290 NONAME ; void MTimer::TimerLock(enum TTimerLockSpec)
	?UpdateObserver@CBearerBase@@IAEXXZ @ 291 NONAME ; void CBearerBase::UpdateObserver(void)
	?UpdateProgress@CAgentSMBase@@UAEXHH@Z @ 292 NONAME ; void CAgentSMBase::UpdateProgress(int, int)
	?UpdateProgress@CStateMachineAgentBase@@UAEXHH@Z @ 293 NONAME ; void CStateMachineAgentBase::UpdateProgress(int, int)
	?WarnNewConnection@CDialogProcessor@@QAEXAAVMDialogProcessorObserver@@ABVTConnectionPrefs@@PBVTDesC16@@PBVTIspConnectionNames@@H@Z @ 294 NONAME ; void CDialogProcessor::WarnNewConnection(class MDialogProcessorObserver &, class TConnectionPrefs const &, class TDesC16 const *, class TIspConnectionNames const *, int)
	?WriteBool@CCommsDbAccess@@QAEHABVTDesC16@@H@Z @ 295 NONAME ; int CCommsDbAccess::WriteBool(class TDesC16 const &, int)
	?WriteBool@CNifAgentBase@@QAEHABVTDesC16@@H@Z @ 296 NONAME ; int CNifAgentBase::WriteBool(class TDesC16 const &, int)
	?WriteBool@CNifAgentBase@@QAEHABVTDesC16@@HPBVRMessagePtr2@@@Z @ 297 NONAME ; int CNifAgentBase::WriteBool(class TDesC16 const &, int, class RMessagePtr2 const *)
	?WriteBool@MNifIfNotify@@QAEHABVTDesC16@@H@Z @ 298 NONAME ; int MNifIfNotify::WriteBool(class TDesC16 const &, int)
	?WriteBool@MNifIfNotify@@QAEHABVTDesC16@@HPBVRMessagePtr2@@@Z @ 299 NONAME ; int MNifIfNotify::WriteBool(class TDesC16 const &, int, class RMessagePtr2 const *)
	?WriteDes@CCommsDbAccess@@QAEHABVTDesC16@@0@Z @ 300 NONAME ; int CCommsDbAccess::WriteDes(class TDesC16 const &, class TDesC16 const &)
	?WriteDes@CCommsDbAccess@@QAEHABVTDesC16@@ABVTDesC8@@@Z @ 301 NONAME ; int CCommsDbAccess::WriteDes(class TDesC16 const &, class TDesC8 const &)
	?WriteDes@CNifAgentBase@@QAEHABVTDesC16@@0@Z @ 302 NONAME ; int CNifAgentBase::WriteDes(class TDesC16 const &, class TDesC16 const &)
	?WriteDes@CNifAgentBase@@QAEHABVTDesC16@@0PBVRMessagePtr2@@@Z @ 303 NONAME ; int CNifAgentBase::WriteDes(class TDesC16 const &, class TDesC16 const &, class RMessagePtr2 const *)
	?WriteDes@CNifAgentBase@@QAEHABVTDesC16@@ABVTDesC8@@@Z @ 304 NONAME ; int CNifAgentBase::WriteDes(class TDesC16 const &, class TDesC8 const &)
	?WriteDes@CNifAgentBase@@QAEHABVTDesC16@@ABVTDesC8@@PBVRMessagePtr2@@@Z @ 305 NONAME ; int CNifAgentBase::WriteDes(class TDesC16 const &, class TDesC8 const &, class RMessagePtr2 const *)
	?WriteDes@MNifIfNotify@@QAEHABVTDesC16@@0@Z @ 306 NONAME ; int MNifIfNotify::WriteDes(class TDesC16 const &, class TDesC16 const &)
	?WriteDes@MNifIfNotify@@QAEHABVTDesC16@@0PBVRMessagePtr2@@@Z @ 307 NONAME ; int MNifIfNotify::WriteDes(class TDesC16 const &, class TDesC16 const &, class RMessagePtr2 const *)
	?WriteDes@MNifIfNotify@@QAEHABVTDesC16@@ABVTDesC8@@@Z @ 308 NONAME ; int MNifIfNotify::WriteDes(class TDesC16 const &, class TDesC8 const &)
	?WriteDes@MNifIfNotify@@QAEHABVTDesC16@@ABVTDesC8@@PBVRMessagePtr2@@@Z @ 309 NONAME ; int MNifIfNotify::WriteDes(class TDesC16 const &, class TDesC8 const &, class RMessagePtr2 const *)
	?WriteInt@CCommsDbAccess@@QAEHABVTDesC16@@K@Z @ 310 NONAME ; int CCommsDbAccess::WriteInt(class TDesC16 const &, unsigned long)
	?WriteInt@CNifAgentBase@@QAEHABVTDesC16@@K@Z @ 311 NONAME ; int CNifAgentBase::WriteInt(class TDesC16 const &, unsigned long)
	?WriteInt@CNifAgentBase@@QAEHABVTDesC16@@KPBVRMessagePtr2@@@Z @ 312 NONAME ; int CNifAgentBase::WriteInt(class TDesC16 const &, unsigned long, class RMessagePtr2 const *)
	?WriteInt@MNifIfNotify@@QAEHABVTDesC16@@K@Z @ 313 NONAME ; int MNifIfNotify::WriteInt(class TDesC16 const &, unsigned long)
	?WriteInt@MNifIfNotify@@QAEHABVTDesC16@@KPBVRMessagePtr2@@@Z @ 314 NONAME ; int MNifIfNotify::WriteInt(class TDesC16 const &, unsigned long, class RMessagePtr2 const *)
	?WritePct@CDialogProcessor@@QAEHABVTDesC16@@@Z @ 315 NONAME ; int CDialogProcessor::WritePct(class TDesC16 const &)
	NonExistentImport1 @ 316 NONAME
	?Control@CNifAgentBase@@UAEHIIAAVTDes8@@ABVRProcess@@@Z @ 317 NONAME ; int CNifAgentBase::Control(unsigned int, unsigned int, class TDes8 &, class RProcess const &)
	?Global@CNifMan@@SAPAV1@XZ @ 318 NONAME ; class CNifMan * CNifMan::Global(void)

