EXPORTS
	Install @ 1 NONAME
	??0CNifAgentBase@@QAE@XZ @ 2 NONAME ; public: __thiscall CNifAgentBase::CNifAgentBase(void)
	NonExistentImport1 @ 3 NONAME
	??0CNifFactory@@QAE@XZ @ 4 NONAME ; public: __thiscall CNifFactory::CNifFactory(void)
	??0CNifIfBase@@IAE@AAVCNifIfLink@@@Z @ 5 NONAME ; protected: __thiscall CNifIfBase::CNifIfBase(class CNifIfLink &)
	??0CNifIfBase@@QAE@AAVCNifIfFactory@@@Z @ 6 NONAME ; public: __thiscall CNifIfBase::CNifIfBase(class CNifIfFactory &)
	??0CNifIfBase@@QAE@XZ @ 7 NONAME ; public: __thiscall CNifIfBase::CNifIfBase(void)
	??0CNifIfLink@@QAE@AAVCNifIfFactory@@@Z @ 8 NONAME ; public: __thiscall CNifIfLink::CNifIfLink(class CNifIfFactory &)
	??0MComm@@QAE@XZ @ 9 NONAME ; public: __thiscall MComm::MComm(void)
	??0MTimer@@QAE@XZ @ 10 NONAME ; public: __thiscall MTimer::MTimer(void)
	?ClientStubOrdinal1@@YAXXZ @ 11 NONAME ; Stub for binary compability
	?ClientStubOrdinal2@@YAXXZ @ 12 NONAME ; Stub for binary compability
	?ClientStubOrdinal3@@YAXXZ @ 13 NONAME ; Stub for binary compability
	?ClientStubOrdinal4@@YAXXZ @ 14 NONAME ; Stub for binary compability
	?ClientStubOrdinal5@@YAXXZ @ 15 NONAME ; Stub for binary compability
	??1CNifFactory@@MAE@XZ @ 16 NONAME ; protected: virtual __thiscall CNifFactory::~CNifFactory(void)
	??1CNifIfBase@@UAE@XZ @ 17 NONAME ; public: virtual __thiscall CNifIfBase::~CNifIfBase(void)
	?ClientStubOrdinal6@@YAXXZ @ 18 NONAME ; Stub for binary compability
	?ClientStubOrdinal7@@YAXXZ @ 19 NONAME ; Stub for binary compability
	?AgentInfo@RNif@@QAEHAAVTNifAgentInfo@@@Z @ 20 NONAME ; public: int __thiscall RNif::AgentInfo(class TNifAgentInfo &)
	?ClientStubOrdinal8@@YAXXZ @ 21 NONAME ; Stub for binary compability
	?AuthenticateComplete@CNifIfLink@@UAEXH@Z @ 22 NONAME ; public: virtual void __thiscall CNifIfLink::AuthenticateComplete(int)
	?BindL@CNifIfBase@@UAEXPAX@Z @ 23 NONAME ; public: virtual void __thiscall CNifIfBase::BindL(void *)
	?BindL@Nif@@SAXAAVMNifIfUser@@PAXAAVTDes16@@ABVTDesC16@@@Z @ 24 NONAME ; public: static void __cdecl Nif::BindL(class MNifIfUser &,void *,class TDes16 &,class TDesC16 const &)
	?CancelProgressNotification@RNif@@QAEXXZ @ 25 NONAME ; public: void __thiscall RNif::CancelProgressNotification(void)
	?Cleanup@CNifFactory@@SAXPAX@Z @ 26 NONAME ; public: static void __cdecl CNifFactory::Cleanup(void *)
	?Cleanup@CNifIfBase@@SAXPAX@Z @ 27 NONAME ; public: static void __cdecl CNifIfBase::Cleanup(void *)
	?Close@CNifFactory@@UAEXXZ @ 28 NONAME ; public: virtual void __thiscall CNifFactory::Close(void)
	?Close@CNifIfBase@@UAEXXZ @ 29 NONAME ; public: virtual void __thiscall CNifIfBase::Close(void)
	?CommCancel@MComm@@QAEXXZ @ 30 NONAME ; public: void __thiscall MComm::CommCancel(void)
	?CommClose@MComm@@QAEXXZ @ 31 NONAME ; public: void __thiscall MComm::CommClose(void)
	?CommConstructL@MComm@@QAEXHH@Z @ 32 NONAME ; public: void __thiscall MComm::CommConstructL(int,int)
	?CommDelete@MComm@@QAEXXZ @ 33 NONAME ; public: void __thiscall MComm::CommDelete(void)
	?CommIsReading@MComm@@QBEHXZ @ 34 NONAME ; public: int __thiscall MComm::CommIsReading(void)const 
	?CommIsWriting@MComm@@QBEHXZ @ 35 NONAME ; public: int __thiscall MComm::CommIsWriting(void)const 
	?CommOpen@MComm@@QAEHABVTDesC16@@0W4TCommAccess@@@Z @ 36 NONAME ; public: int __thiscall MComm::CommOpen(class TDesC16 const &,class TDesC16 const &,enum TCommAccess)
	?CommOpen@MComm@@QAEHABVTDesC16@@W4TCommAccess@@@Z @ 37 NONAME ; public: int __thiscall MComm::CommOpen(class TDesC16 const &,enum TCommAccess)
	?CommRead@MComm@@QAEXAAVTDes8@@@Z @ 38 NONAME ; public: void __thiscall MComm::CommRead(class TDes8 &)
	?CommReadCancel@MComm@@QAEXXZ @ 39 NONAME ; public: void __thiscall MComm::CommReadCancel(void)
	?CommReadOneOrMore@MComm@@QAEXAAVTDes8@@@Z @ 40 NONAME ; public: void __thiscall MComm::CommReadOneOrMore(class TDes8 &)
	?CommReadReady@MComm@@QAEXXZ @ 41 NONAME ; public: void __thiscall MComm::CommReadReady(void)
	?CommWrite@MComm@@QAEXABVTDesC8@@@Z @ 42 NONAME ; public: void __thiscall MComm::CommWrite(class TDesC8 const &)
	?CommWriteCancel@MComm@@QAEXXZ @ 43 NONAME ; public: void __thiscall MComm::CommWriteCancel(void)
	?CommWriteReady@MComm@@QAEXXZ @ 44 NONAME ; public: void __thiscall MComm::CommWriteReady(void)
	?Control@CNifIfBase@@UAEHIIAAVTDes8@@PAX@Z @ 45 NONAME ; public: virtual int __thiscall CNifIfBase::Control(unsigned int,unsigned int,class TDes8 &,void *)
	?ControlledDelete@CNifFactory@@SAHPAX@Z @ 46 NONAME ; public: static int __cdecl CNifFactory::ControlledDelete(void *)
	?ClientStubOrdinal9@@YAXXZ @ 47 NONAME ; Stub for binary compability
	?ClientStubOrdinal10@@YAXXZ @ 48 NONAME ; Stub for binary compability
	?ClientStubOrdinal11@@YAXXZ @ 49 NONAME ; Stub for binary compability
	?ClientStubOrdinal12@@YAXXZ @ 50 NONAME ; Stub for binary compability
	?ClientStubOrdinal13@@YAXXZ @ 51 NONAME ; Stub for binary compability
	?ClientStubOrdinal14@@YAXXZ @ 52 NONAME ; Stub for binary compability
	?ClientStubOrdinal15@@YAXXZ @ 53 NONAME ; Stub for binary compability
	?ClientStubOrdinal16@@YAXXZ @ 54 NONAME ; Stub for binary compability
	?CreateInterfaceL@Nif@@SAPAVCNifIfBase@@ABVTDesC16@@@Z @ 55 NONAME ; public: static class CNifIfBase * __cdecl Nif::CreateInterfaceL(class TDesC16 const &)
	?ClientStubOrdinal17@@YAXXZ @ 56 NONAME ; Stub for binary compability
	?ClientStubOrdinal18@@YAXXZ @ 57 NONAME ; Stub for binary compability
	?ClientStubOrdinal19@@YAXXZ @ 58 NONAME ; Stub for binary compability
	?DisableTimers@RNif@@QAEHH@Z @ 59 NONAME ; public: int __thiscall RNif::DisableTimers(int)
	?ClientStubOrdinal20@@YAXXZ @ 60 NONAME ; Stub for binary compability
	?ClientStubOrdinal21@@YAXXZ @ 61 NONAME ; Stub for binary compability
	?ClientStubOrdinal22@@YAXXZ @ 62 NONAME ; Stub for binary compability
	?ClientStubOrdinal23@@YAXXZ @ 63 NONAME ; Stub for binary compability
	?ClientStubOrdinal24@@YAXXZ @ 64 NONAME ; Stub for binary compability
	?LastProgressError@RNif@@QAEHAAVTNifProgress@@@Z @ 65 NONAME ; public: int __thiscall RNif::LastProgressError(class TNifProgress &)
	?NetworkActive@RNif@@QAEHAAH@Z @ 66 NONAME ; public: int __thiscall RNif::NetworkActive(int &)
	?NetworkLayerClosed@Nif@@SAXAAVMNifIfUser@@@Z @ 67 NONAME ; public: static void __cdecl Nif::NetworkLayerClosed(class MNifIfUser &)
	?ClientStubOrdinal25@@YAXXZ @ 68 NONAME ; Stub for binary compability
	?Open@CNifFactory@@UAEHXZ @ 69 NONAME ; public: virtual int __thiscall CNifFactory::Open(void)
	?Open@CNifIfBase@@UAEXXZ @ 70 NONAME ; public: virtual void __thiscall CNifIfBase::Open(void)
	?Open@RNif@@QAEHABVTDesC16@@H@Z @ 71 NONAME ; public: int __thiscall RNif::Open(class TDesC16 const &,int)
	?ClientStubOrdinal26@@YAXXZ @ 72 NONAME ; Stub for binary compability
	?ClientStubOrdinal27@@YAXXZ @ 73 NONAME ; Stub for binary compability
	?ClientStubOrdinal28@@YAXXZ @ 74 NONAME ; Stub for binary compability
	?Progress@RNif@@QAEHAAVTNifProgress@@@Z @ 75 NONAME ; public: int __thiscall RNif::Progress(class TNifProgress &)
	?ProgressNotification@RNif@@QAEXAAV?$TPckgBuf@VTNifProgress@@@@AAVTRequestStatus@@@Z @ 76 NONAME ; public: void __thiscall RNif::ProgressNotification(class TPckgBuf<class TNifProgress> &,class TRequestStatus &)
	?ClientStubOrdinal29@@YAXXZ @ 77 NONAME ; Stub for binary compability
	?ClientStubOrdinal30@@YAXXZ @ 78 NONAME ; Stub for binary compability
	?ClientStubOrdinal31@@YAXXZ @ 79 NONAME ; Stub for binary compability
	?Start@RNif@@IAEHPAX@Z @ 80 NONAME ; protected: int __thiscall RNif::Start(void *)
	?StartL@Nif@@SAXAAVTDes16@@ABVTDesC16@@@Z @ 81 NONAME ; public: static void __cdecl Nif::StartL(class TDes16 &,class TDesC16 const &)
	?State@CNifIfBase@@UAEHXZ @ 82 NONAME ; public: virtual int __thiscall CNifIfBase::State(void)
	?Stop@Nif@@SAXABVTDesC16@@@Z @ 83 NONAME ; public: static void __cdecl Nif::Stop(class TDesC16 const &)
	?Stop@RNif@@QAEHXZ @ 84 NONAME ; public: int __thiscall RNif::Stop(void)
	?TimerAfter@MTimer@@QAEXVTTimeIntervalMicroSeconds32@@@Z @ 85 NONAME ; public: void __thiscall MTimer::TimerAfter(class TTimeIntervalMicroSeconds32)
	?TimerAt@MTimer@@QAEXABVTTime@@@Z @ 86 NONAME ; public: void __thiscall MTimer::TimerAt(class TTime const &)
	?TimerCancel@MTimer@@QAEXXZ @ 87 NONAME ; public: void __thiscall MTimer::TimerCancel(void)
	?TimerConstructL@MTimer@@QAEXH@Z @ 88 NONAME ; public: void __thiscall MTimer::TimerConstructL(int)
	?TimerDelete@MTimer@@QAEXXZ @ 89 NONAME ; public: void __thiscall MTimer::TimerDelete(void)
	?TimerLock@MTimer@@QAEXW4TTimerLockSpec@@@Z @ 90 NONAME ; public: void __thiscall MTimer::TimerLock(enum TTimerLockSpec)
	?ClientStubOrdinal32@@YAXXZ @ 91 NONAME ; Stub for binary compability
	?ClientStubOrdinal33@@YAXXZ @ 92 NONAME ; Stub for binary compability
	?ClientStubOrdinal34@@YAXXZ @ 93 NONAME ; Stub for binary compability
	?ClientStubOrdinal35@@YAXXZ @ 94 NONAME ; Stub for binary compability
	?Version@RNif@@SA?AVTVersion@@XZ @ 95 NONAME ; public: static class TVersion  __cdecl RNif::Version(void)
	?ClientStubOrdinal36@@YAXXZ @ 96 NONAME ; Stub for binary compability
	?CheckIniConfig@Nifman@@SAHXZ @ 97 NONAME ; public: static int __cdecl Nifman::CheckIniConfig(void)
	?CheckInstalledL@Nif@@SAXXZ @ 98 NONAME ; public: static void __cdecl Nif::CheckInstalledL(void)
	?CheckInstalledMBufManagerL@Nif@@SAXXZ @ 99 NONAME ; public: static void __cdecl Nif::CheckInstalledMBufManagerL(void)
	?IsProtocolLoaded@Nif@@SAPAVCProtocolBase@@ABVTDesC16@@@Z @ 100 NONAME ; public: static class CProtocolBase * __cdecl Nif::IsProtocolLoaded(class TDesC16 const &)
	?InitL@CNifFactory@@QAEXAAVRLibrary@@AAVCObjectCon@@@Z @ 101 NONAME ; public: void __thiscall CNifFactory::InitL(class RLibrary &,class CObjectCon &)
	?SetSocketState@Nif@@SAHW4TNifSocketState@@PAVCServProviderBase@@@Z @ 102 NONAME ; public: static int __cdecl Nif::SetSocketState(enum TNifSocketState,class CServProviderBase *)
	?ProgressL@Nif@@SAXAAVTNifProgress@@ABVTDesC16@@@Z @ 103 NONAME ; public: static void __cdecl Nif::ProgressL(class TNifProgress &,class TDesC16 const &)
	?ProgressL@Nif@@SAXAAVTNifProgress@@PAXPAVCNifIfBase@@@Z @ 104 NONAME ; public: static void __cdecl Nif::ProgressL(class TNifProgress &,void *,class CNifIfBase *)
	?Stop@Nif@@SAXPAXPAVCNifIfBase@@@Z @ 105 NONAME ; public: static void __cdecl Nif::Stop(void *,class CNifIfBase *)
	?Open@RNifMonitor@@QAEHABVTDesC16@@H@Z @ 106 NONAME ; public: int __thiscall RNifMonitor::Open(class TDesC16 const &,int)
	??0CAgentBase@@IAE@XZ @ 107 NONAME ; protected: __thiscall CAgentBase::CAgentBase(void)
	??0CAgentSMBase@@QAE@AAVMAgentNotify@@PAVCDialogProcessor@@AAVCCommsDbAccess@@@Z @ 108 NONAME ; public: __thiscall CAgentSMBase::CAgentSMBase(class MAgentNotify &,class CDialogProcessor *,class CCommsDbAccess &)
	??0CAgentStateBase@@QAE@AAVMAgentStateMachineEnv@@@Z @ 109 NONAME ; public: __thiscall CAgentStateBase::CAgentStateBase(class MAgentStateMachineEnv &)
	??0CBearerBase@@IAE@PAVMBearerObserver@@@Z @ 110 NONAME ; protected: __thiscall CBearerBase::CBearerBase(class MBearerObserver *)
	??0CNetwork@@IAE@KPAVCNetworkControllerBase@@@Z @ 111 NONAME ; protected: __thiscall CNetwork::CNetwork(unsigned long,class CNetworkControllerBase *)
	??0CNetworkControllerBase@@IAE@XZ @ 112 NONAME ; protected: __thiscall CNetworkControllerBase::CNetworkControllerBase(void)
	??0CStateMachineAgentBase@@IAE@XZ @ 113 NONAME ; protected: __thiscall CStateMachineAgentBase::CStateMachineAgentBase(void)
	??0TConnectionSettings@@QAE@XZ @ 114 NONAME ; public: __thiscall TConnectionSettings::TConnectionSettings(void)
	??1CAgentBase@@UAE@XZ @ 115 NONAME ; public: virtual __thiscall CAgentBase::~CAgentBase(void)
	??1CAgentSMBase@@UAE@XZ @ 116 NONAME ; public: virtual __thiscall CAgentSMBase::~CAgentSMBase(void)
	??1CAgentStateBase@@UAE@XZ @ 117 NONAME ; public: virtual __thiscall CAgentStateBase::~CAgentStateBase(void)
	??1CBearerBase@@UAE@XZ @ 118 NONAME ; public: virtual __thiscall CBearerBase::~CBearerBase(void)
	??1CCommsDbAccess@@UAE@XZ @ 119 NONAME ; public: virtual __thiscall CCommsDbAccess::~CCommsDbAccess(void)
	??1CDialogProcessor@@UAE@XZ @ 120 NONAME ; public: virtual __thiscall CDialogProcessor::~CDialogProcessor(void)
	??1CEventLogger@@UAE@XZ @ 121 NONAME ; public: virtual __thiscall CEventLogger::~CEventLogger(void)
	??1CNetwork@@UAE@XZ @ 122 NONAME ; public: virtual __thiscall CNetwork::~CNetwork(void)
	??1CNetworkControllerBase@@UAE@XZ @ 123 NONAME ; public: virtual __thiscall CNetworkControllerBase::~CNetworkControllerBase(void)
	??1CStateMachineAgentBase@@UAE@XZ @ 124 NONAME ; public: virtual __thiscall CStateMachineAgentBase::~CStateMachineAgentBase(void)
	?AddAgentL@CBearerBase@@QAEXPAVCNifAgentBase@@@Z @ 125 NONAME ; public: void __thiscall CBearerBase::AddAgentL(class CNifAgentBase *)
	?AddAgentL@CNetwork@@QAEXPAVCNifAgentBase@@@Z @ 126 NONAME ; public: void __thiscall CNetwork::AddAgentL(class CNifAgentBase *)
	?AddBearerL@CNetworkControllerBase@@QAEXPAVCBearerBase@@@Z @ 127 NONAME ; public: void __thiscall CNetworkControllerBase::AddBearerL(class CBearerBase *)
	?AddNetworkL@CNetworkControllerBase@@QAEXPAVCNetwork@@@Z @ 128 NONAME ; public: void __thiscall CNetworkControllerBase::AddNetworkL(class CNetwork *)
	?AnyBearerAvailable@CBearerBase@@UAEHAAH@Z @ 129 NONAME ; public: virtual int __thiscall CBearerBase::AnyBearerAvailable(int &)
	?Authenticate@CAgentBase@@UAEXAAVTDes16@@0@Z @ 130 NONAME ; public: virtual void __thiscall CAgentBase::Authenticate(class TDes16 &,class TDes16 &)
	?Authenticate@CDialogProcessor@@QAEXAAVMDialogProcessorObserver@@AAVTDes16@@1H@Z @ 131 NONAME ; public: void __thiscall CDialogProcessor::Authenticate(class MDialogProcessorObserver &,class TDes16 &,class TDes16 &,int)
	?AvailableBearerSet@CBearerBase@@QBEKXZ @ 132 NONAME ; public: unsigned long __thiscall CBearerBase::AvailableBearerSet(void)const 
	?Cancel@CEventLogger@@QAEXXZ @ 133 NONAME ; public: void __thiscall CEventLogger::Cancel(void)
	?CancelAuthenticate@CAgentBase@@UAEXXZ @ 134 NONAME ; public: virtual void __thiscall CAgentBase::CancelAuthenticate(void)
	?CancelConnect@CStateMachineAgentBase@@UAEXXZ @ 135 NONAME ; public: virtual void __thiscall CStateMachineAgentBase::CancelConnect(void)
	?CancelEverything@CDialogProcessor@@QAEXXZ @ 136 NONAME ; public: void __thiscall CDialogProcessor::CancelEverything(void)
	?CancelReconnect@CAgentBase@@UAEXXZ @ 137 NONAME ; public: virtual void __thiscall CAgentBase::CancelReconnect(void)
	?CancelRequestNotificationOfServiceChange@CAgentBase@@UAEXPAVMAgentSessionNotify@@@Z @ 138 NONAME ; public: virtual void __thiscall CAgentBase::CancelRequestNotificationOfServiceChange(class MAgentSessionNotify *)
	?Close@CCommsDbAccess@@QAEXXZ @ 139 NONAME ; public: void __thiscall CCommsDbAccess::Close(void)
	?ClosePct@CDialogProcessor@@QAEXXZ @ 140 NONAME ; public: void __thiscall CDialogProcessor::ClosePct(void)
	?CompleteState@CAgentSMBase@@UAEXH@Z @ 141 NONAME ; public: virtual void __thiscall CAgentSMBase::CompleteState(int)
	?Connect@CStateMachineAgentBase@@UAEXW4TAgentConnectType@@@Z @ 142 NONAME ; public: virtual void __thiscall CStateMachineAgentBase::Connect(enum TAgentConnectType)
	?Connect@CStateMachineAgentBase@@UAEXW4TAgentConnectType@@PAVCStoreableOverrideSettings@@@Z @ 143 NONAME ; public: virtual void __thiscall CStateMachineAgentBase::Connect(enum TAgentConnectType,class CStoreableOverrideSettings *)
	?ConnectionComplete@CAgentSMBase@@UAEXH@Z @ 144 NONAME ; public: virtual void __thiscall CAgentSMBase::ConnectionComplete(int)
	?ConnectionComplete@CAgentSMBase@@UAEXHH@Z @ 145 NONAME ; public: virtual void __thiscall CAgentSMBase::ConnectionComplete(int,int)
	?ConnectionComplete@CStateMachineAgentBase@@UAEXH@Z @ 146 NONAME ; public: virtual void __thiscall CStateMachineAgentBase::ConnectionComplete(int)
	?ConnectionComplete@CStateMachineAgentBase@@UAEXHH@Z @ 147 NONAME ; public: virtual void __thiscall CStateMachineAgentBase::ConnectionComplete(int,int)
	?ConnectionContinuation@CAgentSMBase@@UAEXW4TSMContinueConnectType@1@@Z @ 148 NONAME ; public: virtual void __thiscall CAgentSMBase::ConnectionContinuation(enum CAgentSMBase::TSMContinueConnectType)
	?ConnectionSettingsL@CAgentBase@@UAEAAVTConnectionSettings@@XZ @ 149 NONAME ; public: virtual class TConnectionSettings & __thiscall CAgentBase::ConnectionSettingsL(void)
	?ConstructL@CAgentBase@@IAEXXZ @ 150 NONAME ; protected: void __thiscall CAgentBase::ConstructL(void)
	?ConstructL@CBearerBase@@IAEXXZ @ 151 NONAME ; protected: void __thiscall CBearerBase::ConstructL(void)
	?ConstructL@CNetwork@@IAEXXZ @ 152 NONAME ; protected: void __thiscall CNetwork::ConstructL(void)
	?ConstructL@CStateMachineAgentBase@@IAEXXZ @ 153 NONAME ; protected: void __thiscall CStateMachineAgentBase::ConstructL(void)
	?Control@CNifAgentBase@@UAEHIIAAVTDes8@@@Z @ 154 NONAME ; public: virtual int __thiscall CNifAgentBase::Control(unsigned int,unsigned int,class TDes8 &)
	?CreateAgentL@Nif@@SAPAVCNifAgentBase@@ABVTDesC16@@H@Z @ 155 NONAME ; public: static class CNifAgentBase * __cdecl Nif::CreateAgentL(class TDesC16 const &,int)
	?CreateInterfaceL@Nif@@SAPAVCNifIfBase@@ABVTDesC16@@PAVMNifIfNotify@@@Z @ 156 NONAME ; public: static class CNifIfBase * __cdecl Nif::CreateInterfaceL(class TDesC16 const &,class MNifIfNotify *)
	?Db@CAgentSMBase@@UAEPAVCCommsDbAccess@@XZ @ 157 NONAME ; public: virtual class CCommsDbAccess * __thiscall CAgentSMBase::Db(void)
	?DestroyPctNotification@CDialogProcessor@@QAEXAAVMDialogProcessorObserver@@@Z @ 158 NONAME ; public: void __thiscall CDialogProcessor::DestroyPctNotification(class MDialogProcessorObserver &)
	?Disconnect@CStateMachineAgentBase@@UAEXH@Z @ 159 NONAME ; public: virtual void __thiscall CStateMachineAgentBase::Disconnect(int)
	?DisconnectComplete@CAgentSMBase@@UAEXXZ @ 160 NONAME ; public: virtual void __thiscall CAgentSMBase::DisconnectComplete(void)
	?DisconnectComplete@CStateMachineAgentBase@@UAEXXZ @ 161 NONAME ; public: virtual void __thiscall CStateMachineAgentBase::DisconnectComplete(void)
	?DlgPrc@CAgentSMBase@@UAEPAVCDialogProcessor@@XZ @ 162 NONAME ; public: virtual class CDialogProcessor * __thiscall CAgentSMBase::DlgPrc(void)
	?DoCancel@CAgentSMBase@@EAEXXZ @ 163 NONAME ; private: virtual void __thiscall CAgentSMBase::DoCancel(void)
	?FindAgentByIap@CNetwork@@QBEHKAAPAVCNifAgentBase@@@Z @ 164 NONAME ; public: int __thiscall CNetwork::FindAgentByIap(unsigned long,class CNifAgentBase * &)const 
	?FindNetworkById@CNetworkControllerBase@@QBEHKAAPAVCNetwork@@@Z @ 165 NONAME ; public: int __thiscall CNetworkControllerBase::FindNetworkById(unsigned long,class CNetwork * &)const 
	?GetBearerAvailabilityTsyNameL@CCommsDbAccess@@QAEXAAVTDes16@@@Z @ 166 NONAME ; public: void __thiscall CCommsDbAccess::GetBearerAvailabilityTsyNameL(class TDes16 &)
	?GetBoolL@CCommsDbAccess@@QAEXABVTDesC16@@0AAH@Z @ 167 NONAME ; public: void __thiscall CCommsDbAccess::GetBoolL(class TDesC16 const &,class TDesC16 const &,int &)
	?GetConnectionAttempts@CCommsDbAccess@@QAEHXZ @ 168 NONAME ; public: int __thiscall CCommsDbAccess::GetConnectionAttempts(void)
	?GetConnectionDirection@CCommsDbAccess@@QBE?AW4TCommDbConnectionDirection@@XZ @ 169 NONAME ; public: enum TCommDbConnectionDirection  __thiscall CCommsDbAccess::GetConnectionDirection(void)const 
	?GetCurrentSettingsL@CCommsDbAccess@@QAEXAAVTConnectionSettings@@W4TCommDbConnectionDirection@@K@Z @ 170 NONAME ; public: void __thiscall CCommsDbAccess::GetCurrentSettingsL(class TConnectionSettings &,enum TCommDbConnectionDirection,unsigned long)
	?GetDesL@CCommsDbAccess@@QAEXABVTDesC16@@0AAVTDes16@@@Z @ 171 NONAME ; public: void __thiscall CCommsDbAccess::GetDesL(class TDesC16 const &,class TDesC16 const &,class TDes16 &)
	?GetDesL@CCommsDbAccess@@QAEXABVTDesC16@@0AAVTDes8@@@Z @ 172 NONAME ; public: void __thiscall CCommsDbAccess::GetDesL(class TDesC16 const &,class TDesC16 const &,class TDes8 &)
	?GetExcessData@CStateMachineAgentBase@@UAEHAAVTDes8@@@Z @ 173 NONAME ; public: virtual int __thiscall CStateMachineAgentBase::GetExcessData(class TDes8 &)
	?GetGlobalL@CCommsDbAccess@@QAEXABVTDesC16@@AAK@Z @ 174 NONAME ; public: void __thiscall CCommsDbAccess::GetGlobalL(class TDesC16 const &,unsigned long &)
	?GetIntL@CCommsDbAccess@@QAEXABVTDesC16@@0AAK@Z @ 175 NONAME ; public: void __thiscall CCommsDbAccess::GetIntL(class TDesC16 const &,class TDesC16 const &,unsigned long &)
	?GetLastError@CAgentSMBase@@UAEXAAH@Z @ 176 NONAME ; public: virtual void __thiscall CAgentSMBase::GetLastError(int &)
	?GetLastError@CStateMachineAgentBase@@UAEXAAH@Z @ 177 NONAME ; public: virtual void __thiscall CStateMachineAgentBase::GetLastError(int &)
	?GetLengthOfLongDesL@CCommsDbAccess@@QAEHABVTDesC16@@0@Z @ 178 NONAME ; public: int __thiscall CCommsDbAccess::GetLengthOfLongDesL(class TDesC16 const &,class TDesC16 const &)
	?GetLongDesLC@CCommsDbAccess@@QAEPAVHBufC16@@ABVTDesC16@@0@Z @ 179 NONAME ; public: class HBufC16 * __thiscall CCommsDbAccess::GetLongDesLC(class TDesC16 const &,class TDesC16 const &)
	?GetServiceSettingsL@CCommsDbAccess@@QAEXAAVTConnectionSettings@@@Z @ 180 NONAME ; public: void __thiscall CCommsDbAccess::GetServiceSettingsL(class TConnectionSettings &)
	?GetServiceTypeL@CCommsDbAccess@@QAEXAAVTDes16@@@Z @ 181 NONAME ; public: void __thiscall CCommsDbAccess::GetServiceTypeL(class TDes16 &)
	?GetTsyNameL@CCommsDbAccess@@QAEXAAVTDes16@@@Z @ 182 NONAME ; public: void __thiscall CCommsDbAccess::GetTsyNameL(class TDes16 &)
	?IncomingConnectionReceived@CAgentSMBase@@UAEHXZ @ 183 NONAME ; public: virtual int __thiscall CAgentSMBase::IncomingConnectionReceived(void)
	?IncomingConnectionReceived@CStateMachineAgentBase@@UAEHXZ @ 184 NONAME ; public: virtual int __thiscall CStateMachineAgentBase::IncomingConnectionReceived(void)
	?IsActive@CAgentBase@@UBEHXZ @ 185 NONAME ; public: virtual int __thiscall CAgentBase::IsActive(void)const 
	?IsReconnect@CStateMachineAgentBase@@UBEHXZ @ 186 NONAME ; public: virtual int __thiscall CStateMachineAgentBase::IsReconnect(void)const 
	?IsTelNumLengthZeroForRasConnectionL@CCommsDbAccess@@QAEHAAVTConnectionSettings@@@Z @ 187 NONAME ; public: int __thiscall CCommsDbAccess::IsTelNumLengthZeroForRasConnectionL(class TConnectionSettings &)
	?JumpToRunl@CAgentStateBase@@IAEXH@Z @ 188 NONAME ; protected: void __thiscall CAgentStateBase::JumpToRunl(int)
	?LocationId@CCommsDbAccess@@QBEKXZ @ 189 NONAME ; public: unsigned long __thiscall CCommsDbAccess::LocationId(void)const 
	?LogCallEnd@CEventLogger@@QAEXAAVTRequestStatus@@@Z @ 190 NONAME ; public: void __thiscall CEventLogger::LogCallEnd(class TRequestStatus &)
	?LogCallStart@CEventLogger@@QAEXABVTDesC16@@H0VTUid@@AAVTRequestStatus@@@Z @ 191 NONAME ; public: void __thiscall CEventLogger::LogCallStart(class TDesC16 const &,int,class TDesC16 const &,class TUid,class TRequestStatus &)
	?LogDataTransferred@CEventLogger@@QAEXVTInt64@@0VTUid@@AAVTRequestStatus@@@Z @ 192 NONAME ; public: void __thiscall CEventLogger::LogDataTransferred(class TInt64,class TInt64,class TUid,class TRequestStatus &)
	?Login@CDialogProcessor@@QAEXAAVMDialogProcessorObserver@@AAVTDes16@@1H@Z @ 193 NONAME ; public: void __thiscall CDialogProcessor::Login(class MDialogProcessorObserver &,class TDes16 &,class TDes16 &,int)
	?MDPOAuthenticateComplete@CAgentBase@@UAEXH@Z @ 194 NONAME ; public: virtual void __thiscall CAgentBase::MDPOAuthenticateComplete(int)
	?MDPOAuthenticateComplete@MDialogProcessorObserver@@UAEXH@Z @ 195 NONAME ; public: virtual void __thiscall MDialogProcessorObserver::MDPOAuthenticateComplete(int)
	?MDPODestroyPctComplete@MDialogProcessorObserver@@UAEXH@Z @ 196 NONAME ; public: virtual void __thiscall MDialogProcessorObserver::MDPODestroyPctComplete(int)
	?MDPOLoginComplete@MDialogProcessorObserver@@UAEXH@Z @ 197 NONAME ; public: virtual void __thiscall MDialogProcessorObserver::MDPOLoginComplete(int)
	?MDPOQoSWarningComplete@MDialogProcessorObserver@@UAEXHH@Z @ 198 NONAME ; public: virtual void __thiscall MDialogProcessorObserver::MDPOQoSWarningComplete(int,int)
	?MDPOReadPctComplete@MDialogProcessorObserver@@UAEXH@Z @ 199 NONAME ; public: virtual void __thiscall MDialogProcessorObserver::MDPOReadPctComplete(int)
	?MDPOReconnectComplete@MDialogProcessorObserver@@UAEXH@Z @ 200 NONAME ; public: virtual void __thiscall MDialogProcessorObserver::MDPOReconnectComplete(int)
	?MDPOSelectComplete@MDialogProcessorObserver@@UAEXHABVTConnectionSettings@@@Z @ 201 NONAME ; public: virtual void __thiscall MDialogProcessorObserver::MDPOSelectComplete(int,class TConnectionSettings const &)
	?MDPOSelectModemAndLocationComplete@MDialogProcessorObserver@@UAEXHABVTConnectionSettings@@@Z @ 202 NONAME ; public: virtual void __thiscall MDialogProcessorObserver::MDPOSelectModemAndLocationComplete(int,class TConnectionSettings const &)
	?MDPOWarnComplete@MDialogProcessorObserver@@UAEXHH@Z @ 203 NONAME ; public: virtual void __thiscall MDialogProcessorObserver::MDPOWarnComplete(int,int)
	?ModemTable@CCommsDbAccess@@QAEPAVCCommsDbTableView@@XZ @ 204 NONAME ; public: class CCommsDbTableView * __thiscall CCommsDbAccess::ModemTable(void)
	?NetworkId@CNetwork@@QBEKXZ @ 205 NONAME ; public: unsigned long __thiscall CNetwork::NetworkId(void)const 
	?NetworkMode@CCommsDbAccess@@QBE?AW4TMobilePhoneNetworkMode@RMobilePhone@@XZ @ 206 NONAME ; public: enum RMobilePhone::TMobilePhoneNetworkMode  __thiscall CCommsDbAccess::NetworkMode(void)const 
	?NewConnectionL@Nif@@SAPAVCConnectionProvdBase@@PAVMConnectionNotify@@@Z @ 207 NONAME ; class CConnectionProvdBase * Nif::NewConnectionL(class MConnectionNotify *)
	?NewInterfaceL@CNifIfFactory@@MAEPAVCNifIfBase@@ABVTDesC16@@PAVMNifIfNotify@@@Z @ 208 NONAME ; protected: virtual class CNifIfBase * __thiscall CNifIfFactory::NewInterfaceL(class TDesC16 const &,class MNifIfNotify *)
	?NewL@CCommsDbAccess@@SAPAV1@XZ @ 209 NONAME ; public: static class CCommsDbAccess * __cdecl CCommsDbAccess::NewL(void)
	?NewL@CDialogProcessor@@SAPAV1@H@Z @ 210 NONAME ; public: static class CDialogProcessor * __cdecl CDialogProcessor::NewL(int)
	?NewL@CEventLogger@@SAPAV1@XZ @ 211 NONAME ; public: static class CEventLogger * __cdecl CEventLogger::NewL(void)
	?NewL@CNetwork@@SAPAV1@KPAVCNetworkControllerBase@@@Z @ 212 NONAME ; public: static class CNetwork * __cdecl CNetwork::NewL(unsigned long,class CNetworkControllerBase *)
	?NewLC@CNetwork@@SAPAV1@KPAVCNetworkControllerBase@@@Z @ 213 NONAME ; public: static class CNetwork * __cdecl CNetwork::NewLC(unsigned long,class CNetworkControllerBase *)
	?Notification@CAgentSMBase@@UAEHW4TAgentToNifEventType@@PAX@Z @ 214 NONAME ; public: virtual int __thiscall CAgentSMBase::Notification(enum TAgentToNifEventType,void *)
	?Notification@CStateMachineAgentBase@@UAEHW4TAgentToNifEventType@@PAX@Z @ 215 NONAME ; public: virtual int __thiscall CStateMachineAgentBase::Notification(enum TAgentToNifEventType,void *)
	?Notification@CStateMachineAgentBase@@UAEHW4TNifToAgentEventType@@PAX@Z @ 216 NONAME ; public: virtual int __thiscall CStateMachineAgentBase::Notification(enum TNifToAgentEventType,void *)
	?OpenPct@CDialogProcessor@@QAEHXZ @ 217 NONAME ; public: int __thiscall CDialogProcessor::OpenPct(void)
	?OverridesL@CAgentBase@@UAEPAVCStoreableOverrideSettings@@XZ @ 218 NONAME ; public: virtual class CStoreableOverrideSettings * __thiscall CAgentBase::OverridesL(void)
	?PreventConnectionRetries@CAgentSMBase@@UAEXXZ @ 219 NONAME ; public: virtual void __thiscall CAgentSMBase::PreventConnectionRetries(void)
	?PreventConnectionRetries@CStateMachineAgentBase@@UAEXXZ @ 220 NONAME ; public: virtual void __thiscall CStateMachineAgentBase::PreventConnectionRetries(void)
	?QoSWarning@CDialogProcessor@@QAEXAAVMDialogProcessorObserver@@@Z @ 221 NONAME ; public: void __thiscall CDialogProcessor::QoSWarning(class MDialogProcessorObserver &)
	?ReadBool@CAgentBase@@UAEHABVTDesC16@@AAH@Z @ 222 NONAME ; public: virtual int __thiscall CAgentBase::ReadBool(class TDesC16 const &,int &)
	?ReadBool@CCommsDbAccess@@QAEHABVTDesC16@@AAH@Z @ 223 NONAME ; public: int __thiscall CCommsDbAccess::ReadBool(class TDesC16 const &,int &)
	?ReadDes@CAgentBase@@UAEHABVTDesC16@@AAVTDes16@@@Z @ 224 NONAME ; public: virtual int __thiscall CAgentBase::ReadDes(class TDesC16 const &,class TDes16 &)
	?ReadDes@CAgentBase@@UAEHABVTDesC16@@AAVTDes8@@@Z @ 225 NONAME ; public: virtual int __thiscall CAgentBase::ReadDes(class TDesC16 const &,class TDes8 &)
	?ReadDes@CCommsDbAccess@@QAEHABVTDesC16@@AAVTDes16@@@Z @ 226 NONAME ; public: int __thiscall CCommsDbAccess::ReadDes(class TDesC16 const &,class TDes16 &)
	?ReadDes@CCommsDbAccess@@QAEHABVTDesC16@@AAVTDes8@@@Z @ 227 NONAME ; public: int __thiscall CCommsDbAccess::ReadDes(class TDesC16 const &,class TDes8 &)
	?ReadInt@CAgentBase@@UAEHABVTDesC16@@AAK@Z @ 228 NONAME ; public: virtual int __thiscall CAgentBase::ReadInt(class TDesC16 const &,unsigned long &)
	?ReadInt@CCommsDbAccess@@QAEHABVTDesC16@@AAK@Z @ 229 NONAME ; public: int __thiscall CCommsDbAccess::ReadInt(class TDesC16 const &,unsigned long &)
	?ReadLongDesLC@CAgentBase@@UAEPAVHBufC16@@ABVTDesC16@@@Z @ 230 NONAME ; public: virtual class HBufC16 * __thiscall CAgentBase::ReadLongDesLC(class TDesC16 const &)
	?ReadLongDesLC@CCommsDbAccess@@QAEPAVHBufC16@@ABVTDesC16@@@Z @ 231 NONAME ; public: class HBufC16 * __thiscall CCommsDbAccess::ReadLongDesLC(class TDesC16 const &)
	?ReadPct@CDialogProcessor@@QAEXAAVMDialogProcessorObserver@@AAVTDes16@@@Z @ 232 NONAME ; public: void __thiscall CDialogProcessor::ReadPct(class MDialogProcessorObserver &,class TDes16 &)
	?Reconnect@CAgentBase@@UAEXXZ @ 233 NONAME ; public: virtual void __thiscall CAgentBase::Reconnect(void)
	?Reconnect@CDialogProcessor@@QAEXAAVMDialogProcessorObserver@@@Z @ 234 NONAME ; public: void __thiscall CDialogProcessor::Reconnect(class MDialogProcessorObserver &)
	?ReconnectComplete@CAgentBase@@UAEXH@Z @ 235 NONAME ; public: virtual void __thiscall CAgentBase::ReconnectComplete(int)
	?RemoveAgentL@CBearerBase@@QAEXPAVCNifAgentBase@@@Z @ 236 NONAME ; public: void __thiscall CBearerBase::RemoveAgentL(class CNifAgentBase *)
	?RemoveAgentL@CNetwork@@QAEXPAVCNifAgentBase@@@Z @ 237 NONAME ; public: void __thiscall CNetwork::RemoveAgentL(class CNifAgentBase *)
	?RequestNotificationOfServiceChangeL@CAgentBase@@UAEXPAVMAgentSessionNotify@@@Z @ 238 NONAME ; public: virtual void __thiscall CAgentBase::RequestNotificationOfServiceChangeL(class MAgentSessionNotify *)
	?RunL@CAgentSMBase@@EAEXXZ @ 239 NONAME ; private: virtual void __thiscall CAgentSMBase::RunL(void)
	?SecondPhaseAvailability@CBearerBase@@UAEHXZ @ 240 NONAME ; public: virtual int __thiscall CBearerBase::SecondPhaseAvailability(void)
	?SelectComplete@CAgentBase@@UAEXABVTDesC16@@@Z @ 241 NONAME ; public: virtual void __thiscall CAgentBase::SelectComplete(class TDesC16 const &)
	?SelectComplete@CAgentBase@@UAEXH@Z @ 242 NONAME ; public: virtual void __thiscall CAgentBase::SelectComplete(int)
	?SelectConnection@CDialogProcessor@@QAEXAAVMDialogProcessorObserver@@ABVTConnectionPrefs@@@Z @ 243 NONAME ; public: void __thiscall CDialogProcessor::SelectConnection(class MDialogProcessorObserver &,class TConnectionPrefs const &)
	?SelectConnection@CDialogProcessor@@QAEXAAVMDialogProcessorObserver@@ABVTConnectionPrefs@@H@Z @ 244 NONAME ; public: void __thiscall CDialogProcessor::SelectConnection(class MDialogProcessorObserver &,class TConnectionPrefs const &,int)
	?SelectModemAndLocation@CDialogProcessor@@QAEXAAVMDialogProcessorObserver@@@Z @ 245 NONAME ; public: void __thiscall CDialogProcessor::SelectModemAndLocation(class MDialogProcessorObserver &)
	?ServiceChangeNotification@CAgentBase@@UAEXKABVTDesC16@@@Z @ 246 NONAME ; public: virtual void __thiscall CAgentBase::ServiceChangeNotification(unsigned long,class TDesC16 const &)
	?ServiceStarted@CAgentSMBase@@UAEXXZ @ 247 NONAME ; public: virtual void __thiscall CAgentSMBase::ServiceStarted(void)
	?ServiceStarted@CStateMachineAgentBase@@UAEXXZ @ 248 NONAME ; public: virtual void __thiscall CStateMachineAgentBase::ServiceStarted(void)
	?SetCommPortL@CCommsDbAccess@@QAEXABUTCommPort@RCall@@@Z @ 249 NONAME ; public: void __thiscall CCommsDbAccess::SetCommPortL(struct RCall::TCommPort const &)
	?SetConnectionSettingsL@CAgentBase@@UAEXABVTConnectionSettings@@@Z @ 250 NONAME ; public: virtual void __thiscall CAgentBase::SetConnectionSettingsL(class TConnectionSettings const &)
	?SetCurrentSettingsL@CCommsDbAccess@@QAEXABVTConnectionSettings@@@Z @ 251 NONAME ; public: void __thiscall CCommsDbAccess::SetCurrentSettingsL(class TConnectionSettings const &)
	?SetModemAndLocationL@CCommsDbAccess@@QAEXABVTConnectionSettings@@@Z @ 252 NONAME ; public: void __thiscall CCommsDbAccess::SetModemAndLocationL(class TConnectionSettings const &)
	?SetNetworkMode@CCommsDbAccess@@QAEXW4TMobilePhoneNetworkMode@RMobilePhone@@@Z @ 253 NONAME ; public: void __thiscall CCommsDbAccess::SetNetworkMode(enum RMobilePhone::TMobilePhoneNetworkMode)
	?SetOverridesL@CAgentBase@@UAEXPAVCStoreableOverrideSettings@@@Z @ 254 NONAME ; public: virtual void __thiscall CAgentBase::SetOverridesL(class CStoreableOverrideSettings *)
	?SetOverridesL@CCommsDbAccess@@QAEXPAVCCommDbOverrideSettings@@@Z @ 255 NONAME ; public: void __thiscall CCommsDbAccess::SetOverridesL(class CCommDbOverrideSettings *)
	?Start@RNif@@IAEXPAXAAVTRequestStatus@@@Z @ 256 NONAME ; protected: void __thiscall RNif::Start(void *,class TRequestStatus &)
	?SupportedBearerSet@CBearerBase@@QBEKXZ @ 257 NONAME ; public: unsigned long __thiscall CBearerBase::SupportedBearerSet(void)const 
	?UpdateObserver@CBearerBase@@IAEXXZ @ 258 NONAME ; protected: void __thiscall CBearerBase::UpdateObserver(void)
	?UpdateProgress@CAgentSMBase@@UAEXHH@Z @ 259 NONAME ; public: virtual void __thiscall CAgentSMBase::UpdateProgress(int,int)
	?UpdateProgress@CStateMachineAgentBase@@UAEXHH@Z @ 260 NONAME ; public: virtual void __thiscall CStateMachineAgentBase::UpdateProgress(int,int)
	?WarnNewConnection@CDialogProcessor@@QAEXAAVMDialogProcessorObserver@@ABVTConnectionPrefs@@PBVTDesC16@@PBVTIspConnectionNames@@H@Z @ 261 NONAME ; public: void __thiscall CDialogProcessor::WarnNewConnection(class MDialogProcessorObserver &,class TConnectionPrefs const &,class TDesC16 const *,class TIspConnectionNames const *,int)
	?WriteBool@CAgentBase@@UAEHABVTDesC16@@H@Z @ 262 NONAME ; public: virtual int __thiscall CAgentBase::WriteBool(class TDesC16 const &,int)
	?WriteBool@CCommsDbAccess@@QAEHABVTDesC16@@H@Z @ 263 NONAME ; public: int __thiscall CCommsDbAccess::WriteBool(class TDesC16 const &,int)
	?WriteDes@CAgentBase@@UAEHABVTDesC16@@0@Z @ 264 NONAME ; public: virtual int __thiscall CAgentBase::WriteDes(class TDesC16 const &,class TDesC16 const &)
	?WriteDes@CAgentBase@@UAEHABVTDesC16@@ABVTDesC8@@@Z @ 265 NONAME ; public: virtual int __thiscall CAgentBase::WriteDes(class TDesC16 const &,class TDesC8 const &)
	?WriteDes@CCommsDbAccess@@QAEHABVTDesC16@@0@Z @ 266 NONAME ; public: int __thiscall CCommsDbAccess::WriteDes(class TDesC16 const &,class TDesC16 const &)
	?WriteDes@CCommsDbAccess@@QAEHABVTDesC16@@ABVTDesC8@@@Z @ 267 NONAME ; public: int __thiscall CCommsDbAccess::WriteDes(class TDesC16 const &,class TDesC8 const &)
	?WriteInt@CAgentBase@@UAEHABVTDesC16@@K@Z @ 268 NONAME ; public: virtual int __thiscall CAgentBase::WriteInt(class TDesC16 const &,unsigned long)
	?WriteInt@CCommsDbAccess@@QAEHABVTDesC16@@K@Z @ 269 NONAME ; public: int __thiscall CCommsDbAccess::WriteInt(class TDesC16 const &,unsigned long)
	?WritePct@CDialogProcessor@@QAEHABVTDesC16@@@Z @ 270 NONAME ; public: int __thiscall CDialogProcessor::WritePct(class TDesC16 const &)
	?Restart@CNifIfLink@@UAEXPAVCNifIfBase@@@Z @ 271 NONAME ; public: virtual void __thiscall CNifIfLink::Restart(class CNifIfBase *)
	?CancelRequestNotificationOfServiceChange@CCommsDbAccess@@QAEXPAVMServiceChangeObserver@@@Z @ 272 NONAME ; public: void __thiscall CCommsDbAccess::CancelRequestNotificationOfServiceChange(class MServiceChangeObserver *)
	?RequestNotificationOfServiceChangeL@CCommsDbAccess@@QAEXPAVMServiceChangeObserver@@@Z @ 273 NONAME ; public: void __thiscall CCommsDbAccess::RequestNotificationOfServiceChangeL(class MServiceChangeObserver *)
	?LogDataAddEvent@CEventLogger@@QAEXHABVTDesC16@@H0VTUid@@@Z @ 274 NONAME ; void CEventLogger::LogDataAddEvent(int, class TDesC16 const &, int, class TDesC16 const &, class TUid)
	?LogDataNotifyLastEventUpdate@CEventLogger@@QAEXPAVTRequestStatus@@@Z @ 275 NONAME ; void CEventLogger::LogDataNotifyLastEventUpdate(class TRequestStatus *)
	?LogDataUpdateEvent@CEventLogger@@QAEHHABVTUid@@@Z @ 276 NONAME ; int CEventLogger::LogDataUpdateEvent(int, class TUid const &)
	?LogDataUpdateEvent@CEventLogger@@QAEHHABVTUid@@ABVTInt64@@1@Z @ 277 NONAME ; int CEventLogger::LogDataUpdateEvent(int, class TUid const &, class TInt64 const &, class TInt64 const &)
	?GetPreferedIapL@CCommsDbAccess@@QAEXAAKW4TCommDbConnectionDirection@@K@Z @ 278 NONAME ; public: void __thiscall CCommsDbAccess::GetPreferedIapL(unsigned long &,enum TCommDbConnectionDirection,unsigned long)
	?SetPreferedIapL@CCommsDbAccess@@QAEXAAKW4TCommDbConnectionDirection@@K@Z @ 279 NONAME ; public: void __thiscall CCommsDbAccess::SetPreferedIapL(unsigned long &,enum TCommDbConnectionDirection,unsigned long)
	?DoesIapExistL@CCommsDbAccess@@QAEHK@Z @ 280 NONAME ; public: int __thiscall CCommsDbAccess::DoesIapExistL(unsigned long)
	?GetFirstValidIapL@CCommsDbAccess@@QAEXAAK@Z @ 281 NONAME ; public: void __thiscall CCommsDbAccess::GetFirstValidIapL(unsigned long &)
	?IsShowingHiddenRecords@CCommsDbAccess@@QAEHXZ @ 282 NONAME ; public: int __thiscall CCommsDbAccess::IsShowingHiddenRecords(void)
	?NewL@CCommsDbAccess@@SAPAV1@H@Z @ 283 NONAME ; public: static class CCommsDbAccess * __cdecl CCommsDbAccess::NewL(int)
	?CommOpen@MComm@@QAEHABVTDesC16@@0W4TCommAccess@@W4TCommRole@@@Z @ 284 NONAME ; public: int __thiscall MComm::CommOpen(class TDesC16 const &, class TDesC16 const &, enum TCommAccess, enum TCommRole)
	??1CNifAgentRefN1@@UAE@XZ @ 285 NONAME ; public: virtual __thiscall CNifAgentRefN1::~CNifAgentRefN1(void)
	?Connect@CNifAgentRefN1@@QAEXXZ @ 286 NONAME ; public: void __thiscall CNifAgentRefN1::Connect(void)
	?Disconnect@CNifAgentRefN1@@QAEXXZ @ 287 NONAME ; public: void __thiscall CNifAgentRefN1::Disconnect(void)
	?GetCompletionCode@CNifAgentRefN1@@QAEXAAH@Z @ 288 NONAME ; public: void __thiscall CNifAgentRefN1::GetCompletionCode(int &)
	?GetProgressStage@CNifAgentRefN1@@QAEXAAH@Z @ 289 NONAME ; public: void __thiscall CNifAgentRefN1::GetProgressStage(int &)
	?NewL@CNifAgentRefN1@@SAPAV1@PAVMDummyNifToAgtHarnessNotify@@H@Z @ 290 NONAME ; public: static class CNifAgentRefN1 * __cdecl CNifAgentRefN1::NewL(class MDummyNifToAgtHarnessNotify *,int)
	?ReConnect@CNifAgentRefN1@@QAEXXZ @ 291 NONAME ; public: void __thiscall CNifAgentRefN1::ReConnect(void)
	?WaitForIncoming@CNifAgentRefN1@@QAEXXZ @ 292 NONAME ; public: void __thiscall CNifAgentRefN1::WaitForIncoming(void)
	??1MCommsDbAccess@@UAE@XZ @ 293 NONAME ; MCommsDbAccess::~MCommsDbAccess(void)
	?NewL@CCommsDbAccess@@SAPAV1@PAVMCommsDbAccess@@@Z @ 294 NONAME ; class CCommsDbAccess * CCommsDbAccess::NewL(class MCommsDbAccess *)

