EXPORTS
	_Z19NewTS_DummyPPPSuitev @ 1 NONAME
	_ZTI15TS_DummyPPPStep @ 2 NONAME ; #<TI>#
	_ZTI16TS_DummyPPPSuite @ 3 NONAME ; #<TI>#
	_ZTI16TS_DummyPPPTest1 @ 4 NONAME ; #<TI>#
	_ZTI16TS_DummyPPPTest2 @ 5 NONAME ; #<TI>#
	_ZTI16TS_DummyPPPTest3 @ 6 NONAME ; #<TI>#
	_ZTI16TS_DummyPPPTest4 @ 7 NONAME ; #<TI>#
	_ZTI16TS_DummyPPPTest5 @ 8 NONAME ; #<TI>#
	_ZTI16TS_DummyPPPTest6 @ 9 NONAME ; #<TI>#
	_ZTI16TS_DummyPPPTest7 @ 10 NONAME ; #<TI>#
	_ZTI16TS_DummyPPPTest8 @ 11 NONAME ; #<TI>#
	_ZTI16TS_DummyPPPTest9 @ 12 NONAME ; #<TI>#
	_ZTI17TS_DummyPPPTest10 @ 13 NONAME ; #<TI>#
	_ZTI17TS_DummyPPPTest11 @ 14 NONAME ; #<TI>#
	_ZTI17TS_DummyPPPTest12 @ 15 NONAME ; #<TI>#
	_ZTI17TS_DummyPPPTest13 @ 16 NONAME ; #<TI>#
	_ZTI17TS_DummyPPPTest14 @ 17 NONAME ; #<TI>#
	_ZTI17TS_DummyPPPTest15 @ 18 NONAME ; #<TI>#
	_ZTI17TS_DummyPPPTest16 @ 19 NONAME ; #<TI>#
	_ZTI17TS_DummyPPPTest17 @ 20 NONAME ; #<TI>#
	_ZTI17TS_DummyPPPTest18 @ 21 NONAME ; #<TI>#
	_ZTI17TS_DummyPPPTest19 @ 22 NONAME ; #<TI>#
	_ZTI17TS_DummyPPPTest20 @ 23 NONAME ; #<TI>#
	_ZTI17TS_DummyPPPTest21 @ 24 NONAME ; #<TI>#
	_ZTI17TS_DummyPPPTest22 @ 25 NONAME ; #<TI>#
	_ZTI17TS_DummyPPPTest23 @ 26 NONAME ; #<TI>#
	_ZTI17TS_DummyPPPTest24 @ 27 NONAME ; #<TI>#
	_ZTI17TS_DummyPPPTest25 @ 28 NONAME ; #<TI>#
	_ZTI17TS_DummyPPPTest26 @ 29 NONAME ; #<TI>#
	_ZTI17TS_DummyPPPTest27 @ 30 NONAME ; #<TI>#
	_ZTI17TS_DummyPPPTest28 @ 31 NONAME ; #<TI>#
	_ZTI17TS_DummyPPPTest29 @ 32 NONAME ; #<TI>#
	_ZTI17TS_DummyPPPTest30 @ 33 NONAME ; #<TI>#
	_ZTI17TS_DummyPPPTest31 @ 34 NONAME ; #<TI>#
	_ZTI17TS_DummyPPPTest32 @ 35 NONAME ; #<TI>#
	_ZTI17TS_DummyPPPTest33 @ 36 NONAME ; #<TI>#
	_ZTI17TS_DummyPPPTest34 @ 37 NONAME ; #<TI>#
	_ZTI17TS_DummyPPPTest35 @ 38 NONAME ; #<TI>#
	_ZTI17TS_DummyPPPTest36 @ 39 NONAME ; #<TI>#
	_ZTI17TS_DummyPPPTest37 @ 40 NONAME ; #<TI>#
	_ZTI19TS_DummyPPPCommInit @ 41 NONAME ; #<TI>#
	_ZTV27TS_DummyPPPForceCCoverWrite @ 42 NONAME ; #<VT>#
	_ZTI27TS_DummyPPPForceCCoverWrite @ 43 NONAME ; #<TI>#
	_ZTV15TS_DummyPPPStep @ 44 NONAME ; #<VT>#
	_ZTV16TS_DummyPPPSuite @ 45 NONAME ; #<VT>#
	_ZTV16TS_DummyPPPTest1 @ 46 NONAME ; #<VT>#
	_ZTV16TS_DummyPPPTest2 @ 47 NONAME ; #<VT>#
	_ZTV16TS_DummyPPPTest3 @ 48 NONAME ; #<VT>#
	_ZTV16TS_DummyPPPTest4 @ 49 NONAME ; #<VT>#
	_ZTV16TS_DummyPPPTest5 @ 50 NONAME ; #<VT>#
	_ZTV16TS_DummyPPPTest6 @ 51 NONAME ; #<VT>#
	_ZTV16TS_DummyPPPTest7 @ 52 NONAME ; #<VT>#
	_ZTV16TS_DummyPPPTest8 @ 53 NONAME ; #<VT>#
	_ZTV16TS_DummyPPPTest9 @ 54 NONAME ; #<VT>#
	_ZTV17TS_DummyPPPTest10 @ 55 NONAME ; #<VT>#
	_ZTV17TS_DummyPPPTest11 @ 56 NONAME ; #<VT>#
	_ZTV17TS_DummyPPPTest12 @ 57 NONAME ; #<VT>#
	_ZTV17TS_DummyPPPTest13 @ 58 NONAME ; #<VT>#
	_ZTV17TS_DummyPPPTest14 @ 59 NONAME ; #<VT>#
	_ZTV17TS_DummyPPPTest15 @ 60 NONAME ; #<VT>#
	_ZTV17TS_DummyPPPTest16 @ 61 NONAME ; #<VT>#
	_ZTV17TS_DummyPPPTest17 @ 62 NONAME ; #<VT>#
	_ZTV17TS_DummyPPPTest18 @ 63 NONAME ; #<VT>#
	_ZTV17TS_DummyPPPTest19 @ 64 NONAME ; #<VT>#
	_ZTV17TS_DummyPPPTest20 @ 65 NONAME ; #<VT>#
	_ZTV17TS_DummyPPPTest21 @ 66 NONAME ; #<VT>#
	_ZTV17TS_DummyPPPTest22 @ 67 NONAME ; #<VT>#
	_ZTV17TS_DummyPPPTest23 @ 68 NONAME ; #<VT>#
	_ZTV17TS_DummyPPPTest24 @ 69 NONAME ; #<VT>#
	_ZTV17TS_DummyPPPTest25 @ 70 NONAME ; #<VT>#
	_ZTV17TS_DummyPPPTest26 @ 71 NONAME ; #<VT>#
	_ZTV17TS_DummyPPPTest27 @ 72 NONAME ; #<VT>#
	_ZTV17TS_DummyPPPTest28 @ 73 NONAME ; #<VT>#
	_ZTV17TS_DummyPPPTest29 @ 74 NONAME ; #<VT>#
	_ZTV17TS_DummyPPPTest30 @ 75 NONAME ; #<VT>#
	_ZTV17TS_DummyPPPTest31 @ 76 NONAME ; #<VT>#
	_ZTV17TS_DummyPPPTest32 @ 77 NONAME ; #<VT>#
	_ZTV17TS_DummyPPPTest33 @ 78 NONAME ; #<VT>#
	_ZTV17TS_DummyPPPTest34 @ 79 NONAME ; #<VT>#
	_ZTV17TS_DummyPPPTest35 @ 80 NONAME ; #<VT>#
	_ZTV17TS_DummyPPPTest36 @ 81 NONAME ; #<VT>#
	_ZTV17TS_DummyPPPTest37 @ 82 NONAME ; #<VT>#
	_ZTV19TS_DummyPPPCommInit @ 83 NONAME ; #<VT>#

