EXPORTS
	_Z16NewTestSuiteQoSLv @ 1 NONAME
	_ZTI12CMyScheduler @ 2 NONAME
	_ZTI12CQoSListener @ 3 NONAME
	_ZTI12CQoSTest_001 @ 4 NONAME
	_ZTI12CQoSTest_002 @ 5 NONAME
	_ZTI12CQoSTest_003 @ 6 NONAME
	_ZTI12CQoSTest_010 @ 7 NONAME
	_ZTI12CQoSTest_011 @ 8 NONAME
	_ZTI12CQoSTest_012 @ 9 NONAME
	_ZTI12CQoSTest_013 @ 10 NONAME
	_ZTI12CQoSTest_014 @ 11 NONAME
	_ZTI12CQoSTest_015 @ 12 NONAME
	_ZTI12CQoSTest_016 @ 13 NONAME
	_ZTI12CQoSTest_050 @ 14 NONAME
	_ZTI12CQoSTest_051 @ 15 NONAME
	_ZTI12CQoSTest_052 @ 16 NONAME
	_ZTI12CQoSTest_053 @ 17 NONAME
	_ZTI12CQoSTest_054 @ 18 NONAME
	_ZTI12CQoSTest_055 @ 19 NONAME
	_ZTI12CQoSTest_056 @ 20 NONAME
	_ZTI12CQoSTest_057 @ 21 NONAME
	_ZTI12CQoSTest_058 @ 22 NONAME
	_ZTI12CQoSTest_059 @ 23 NONAME
	_ZTI12CQoSTest_060 @ 24 NONAME
	_ZTI12CQoSTest_061 @ 25 NONAME
	_ZTI12CQoSTest_062 @ 26 NONAME
	_ZTI12CQoSTest_064 @ 27 NONAME
	_ZTI12CQoSTest_070 @ 28 NONAME
	_ZTI12CQoSTest_071 @ 29 NONAME
	_ZTI12CQoSTest_072 @ 30 NONAME
	_ZTI12CQoSTest_073 @ 31 NONAME
	_ZTI12CQoSTest_075 @ 32 NONAME
	_ZTI12CQoSTest_076 @ 33 NONAME
	_ZTI12CQoSTest_077 @ 34 NONAME
	_ZTI12CQoSTest_090 @ 35 NONAME
	_ZTI12CQoSTest_091 @ 36 NONAME
	_ZTI12CQoSTest_092 @ 37 NONAME
	_ZTI12CQoSTest_093 @ 38 NONAME
	_ZTI12CQoSTest_094 @ 39 NONAME
	_ZTI12CQoSTest_101 @ 40 NONAME
	_ZTI12CQoSTest_102 @ 41 NONAME
	_ZTI12CQoSTest_103 @ 42 NONAME
	_ZTI12CQoSTest_104 @ 43 NONAME
	_ZTI12CQoSTest_120 @ 44 NONAME
	_ZTI12CQoSTest_121 @ 45 NONAME
	_ZTI12CQoSTest_122 @ 46 NONAME
	_ZTI12CQoSTest_123 @ 47 NONAME
	_ZTI12CQoSTest_124 @ 48 NONAME
	_ZTI12CQoSTest_125 @ 49 NONAME
	_ZTI12CQoSTest_126 @ 50 NONAME
	_ZTI12CQoSTest_127 @ 51 NONAME
	_ZTI12CQoSTest_128 @ 52 NONAME
	_ZTI12CQoSTest_129 @ 53 NONAME
	_ZTI12CQoSTest_130 @ 54 NONAME
	_ZTI12CQoSTest_131 @ 55 NONAME
	_ZTI12CQoSTest_132 @ 56 NONAME
	_ZTI12CQoSTest_134 @ 57 NONAME
	_ZTI12CQoSTest_135 @ 58 NONAME
	_ZTI12CQoSTest_136 @ 59 NONAME
	_ZTI12CQoSTest_142 @ 60 NONAME
	_ZTI12CQoSTest_143 @ 61 NONAME
	_ZTI12CQoSTest_144 @ 62 NONAME
	_ZTI12CQoSTest_145 @ 63 NONAME
	_ZTI12CQoSTest_146 @ 64 NONAME
	_ZTI12CQoSTest_202 @ 65 NONAME
	_ZTI12CQoSTest_203 @ 66 NONAME
	_ZTI12CQoSTest_301 @ 67 NONAME
	_ZTI12CQoSTest_302 @ 68 NONAME
	_ZTI12CQoSTest_303 @ 69 NONAME
	_ZTI12CQoSTest_304 @ 70 NONAME
	_ZTI12CQoSTest_305 @ 71 NONAME
	_ZTI12CQoSTest_306 @ 72 NONAME
	_ZTI12CQoSTest_307 @ 73 NONAME
	_ZTI12CQoSTest_401 @ 74 NONAME
	_ZTI12CQoSTest_402 @ 75 NONAME
	_ZTI12CQoSTest_403 @ 76 NONAME
	_ZTI12CQoSTest_404 @ 77 NONAME
	_ZTI12CQoSTest_405 @ 78 NONAME
	_ZTI12CQoSTest_406 @ 79 NONAME
	_ZTI12CQoSTest_407 @ 80 NONAME
	_ZTI12CQoSTest_408 @ 81 NONAME
	_ZTI12CQoSTest_409 @ 82 NONAME
	_ZTI12CQoSTest_410 @ 83 NONAME
	_ZTI12CQoSTest_411 @ 84 NONAME
	_ZTI12CQoSTest_412 @ 85 NONAME
	_ZTI12CQoSTest_413 @ 86 NONAME
	_ZTI12CQoSTest_414 @ 87 NONAME
	_ZTI12CQoSTest_500 @ 88 NONAME
	_ZTI12CQoSTest_501 @ 89 NONAME
	_ZTI12CQoSTest_601 @ 90 NONAME
	_ZTI12CQoSTest_700 @ 91 NONAME
	_ZTI12CQoSTest_701 @ 92 NONAME
	_ZTI12CQoSTest_702 @ 93 NONAME
	_ZTI12CQoSTest_703 @ 94 NONAME
	_ZTI12CQoSTest_704 @ 95 NONAME
	_ZTI12CQoSTest_705 @ 96 NONAME
	_ZTI12CQoSTest_706 @ 97 NONAME
	_ZTI12CQoSTest_707 @ 98 NONAME
	_ZTI12CQoSTest_708 @ 99 NONAME
	_ZTI12CQoSTest_902 @ 100 NONAME
	_ZTI12CTestStepQoS @ 101 NONAME
	_ZTI13CTestSuiteQoS @ 102 NONAME
	_ZTI14CEventListener @ 103 NONAME
	_ZTI16CSubConnListener @ 104 NONAME
	_ZTIN4Meta18RMetaDataContainerINS_13SMetaDataEComEEE @ 105 NONAME
	_ZTV12CMyScheduler @ 106 NONAME
	_ZTV12CQoSListener @ 107 NONAME
	_ZTV12CQoSTest_001 @ 108 NONAME
	_ZTV12CQoSTest_002 @ 109 NONAME
	_ZTV12CQoSTest_003 @ 110 NONAME
	_ZTV12CQoSTest_010 @ 111 NONAME
	_ZTV12CQoSTest_011 @ 112 NONAME
	_ZTV12CQoSTest_012 @ 113 NONAME
	_ZTV12CQoSTest_013 @ 114 NONAME
	_ZTV12CQoSTest_014 @ 115 NONAME
	_ZTV12CQoSTest_015 @ 116 NONAME
	_ZTV12CQoSTest_016 @ 117 NONAME
	_ZTV12CQoSTest_050 @ 118 NONAME
	_ZTV12CQoSTest_051 @ 119 NONAME
	_ZTV12CQoSTest_052 @ 120 NONAME
	_ZTV12CQoSTest_053 @ 121 NONAME
	_ZTV12CQoSTest_054 @ 122 NONAME
	_ZTV12CQoSTest_055 @ 123 NONAME
	_ZTV12CQoSTest_056 @ 124 NONAME
	_ZTV12CQoSTest_057 @ 125 NONAME
	_ZTV12CQoSTest_058 @ 126 NONAME
	_ZTV12CQoSTest_059 @ 127 NONAME
	_ZTV12CQoSTest_060 @ 128 NONAME
	_ZTV12CQoSTest_061 @ 129 NONAME
	_ZTV12CQoSTest_062 @ 130 NONAME
	_ZTV12CQoSTest_064 @ 131 NONAME
	_ZTV12CQoSTest_070 @ 132 NONAME
	_ZTV12CQoSTest_071 @ 133 NONAME
	_ZTV12CQoSTest_072 @ 134 NONAME
	_ZTV12CQoSTest_073 @ 135 NONAME
	_ZTV12CQoSTest_075 @ 136 NONAME
	_ZTV12CQoSTest_076 @ 137 NONAME
	_ZTV12CQoSTest_077 @ 138 NONAME
	_ZTV12CQoSTest_090 @ 139 NONAME
	_ZTV12CQoSTest_091 @ 140 NONAME
	_ZTV12CQoSTest_092 @ 141 NONAME
	_ZTV12CQoSTest_093 @ 142 NONAME
	_ZTV12CQoSTest_094 @ 143 NONAME
	_ZTV12CQoSTest_101 @ 144 NONAME
	_ZTV12CQoSTest_102 @ 145 NONAME
	_ZTV12CQoSTest_103 @ 146 NONAME
	_ZTV12CQoSTest_104 @ 147 NONAME
	_ZTV12CQoSTest_120 @ 148 NONAME
	_ZTV12CQoSTest_121 @ 149 NONAME
	_ZTV12CQoSTest_122 @ 150 NONAME
	_ZTV12CQoSTest_123 @ 151 NONAME
	_ZTV12CQoSTest_124 @ 152 NONAME
	_ZTV12CQoSTest_125 @ 153 NONAME
	_ZTV12CQoSTest_126 @ 154 NONAME
	_ZTV12CQoSTest_127 @ 155 NONAME
	_ZTV12CQoSTest_128 @ 156 NONAME
	_ZTV12CQoSTest_129 @ 157 NONAME
	_ZTV12CQoSTest_130 @ 158 NONAME
	_ZTV12CQoSTest_131 @ 159 NONAME
	_ZTV12CQoSTest_132 @ 160 NONAME
	_ZTV12CQoSTest_134 @ 161 NONAME
	_ZTV12CQoSTest_135 @ 162 NONAME
	_ZTV12CQoSTest_136 @ 163 NONAME
	_ZTV12CQoSTest_142 @ 164 NONAME
	_ZTV12CQoSTest_143 @ 165 NONAME
	_ZTV12CQoSTest_144 @ 166 NONAME
	_ZTV12CQoSTest_145 @ 167 NONAME
	_ZTV12CQoSTest_146 @ 168 NONAME
	_ZTV12CQoSTest_202 @ 169 NONAME
	_ZTV12CQoSTest_203 @ 170 NONAME
	_ZTV12CQoSTest_301 @ 171 NONAME
	_ZTV12CQoSTest_302 @ 172 NONAME
	_ZTV12CQoSTest_303 @ 173 NONAME
	_ZTV12CQoSTest_304 @ 174 NONAME
	_ZTV12CQoSTest_305 @ 175 NONAME
	_ZTV12CQoSTest_306 @ 176 NONAME
	_ZTV12CQoSTest_307 @ 177 NONAME
	_ZTV12CQoSTest_401 @ 178 NONAME
	_ZTV12CQoSTest_402 @ 179 NONAME
	_ZTV12CQoSTest_403 @ 180 NONAME
	_ZTV12CQoSTest_404 @ 181 NONAME
	_ZTV12CQoSTest_405 @ 182 NONAME
	_ZTV12CQoSTest_406 @ 183 NONAME
	_ZTV12CQoSTest_407 @ 184 NONAME
	_ZTV12CQoSTest_408 @ 185 NONAME
	_ZTV12CQoSTest_409 @ 186 NONAME
	_ZTV12CQoSTest_410 @ 187 NONAME
	_ZTV12CQoSTest_411 @ 188 NONAME
	_ZTV12CQoSTest_412 @ 189 NONAME
	_ZTV12CQoSTest_413 @ 190 NONAME
	_ZTV12CQoSTest_414 @ 191 NONAME
	_ZTV12CQoSTest_500 @ 192 NONAME
	_ZTV12CQoSTest_501 @ 193 NONAME
	_ZTV12CQoSTest_601 @ 194 NONAME
	_ZTV12CQoSTest_700 @ 195 NONAME
	_ZTV12CQoSTest_701 @ 196 NONAME
	_ZTV12CQoSTest_702 @ 197 NONAME
	_ZTV12CQoSTest_703 @ 198 NONAME
	_ZTV12CQoSTest_704 @ 199 NONAME
	_ZTV12CQoSTest_705 @ 200 NONAME
	_ZTV12CQoSTest_706 @ 201 NONAME
	_ZTV12CQoSTest_707 @ 202 NONAME
	_ZTV12CQoSTest_708 @ 203 NONAME
	_ZTV12CQoSTest_902 @ 204 NONAME
	_ZTV12CTestStepQoS @ 205 NONAME
	_ZTV13CTestSuiteQoS @ 206 NONAME
	_ZTV14CEventListener @ 207 NONAME
	_ZTV16CSubConnListener @ 208 NONAME
	_ZTVN4Meta18RMetaDataContainerINS_13SMetaDataEComEEE @ 209 NONAME

