EXPORTS
	_Z7E32Mainv @ 1 NONAME
	_ZTI10CDHCPIP4Db @ 2 NONAME ; #<TI>#
	_ZTI10CDHCPRenew @ 3 NONAME ; #<TI>#
	_ZTI10CDHCPState @ 4 NONAME ; #<TI>#
	_ZTI11CDHCPRebind @ 5 NONAME ; #<TI>#
	_ZTI11CDHCPSelect @ 6 NONAME ; #<TI>#
	_ZTI11CDHCPServer @ 7 NONAME ; #<TI>#
	_ZTI12CDHCPControl @ 8 NONAME ; #<TI>#
	_ZTI12CDHCPDecline @ 9 NONAME ; #<TI>#
	_ZTI12CDHCPRelease @ 10 NONAME ; #<TI>#
	_ZTI12CDHCPRequest @ 11 NONAME ; #<TI>#
	_ZTI12CDHCPSession @ 12 NONAME ; #<TI>#
	_ZTI12CExpireTimer @ 13 NONAME ; #<TI>#
	_ZTI13CDHCPIP6Renew @ 14 NONAME ; #<TI>#
	_ZTI14CDHCPIP4Select @ 15 NONAME ; #<TI>#
	_ZTI14CDHCPIP6Rebind @ 16 NONAME ; #<TI>#
	_ZTI14CDHCPIP6Select @ 17 NONAME ; #<TI>#
	_ZTI14CMessageSender @ 18 NONAME ; #<TI>#
	_ZTI15CDHCPIP4Control @ 19 NONAME ; #<TI>#
	_ZTI15CDHCPIP6Confirm @ 20 NONAME ; #<TI>#
	_ZTI15CDHCPIP6Control @ 21 NONAME ; #<TI>#
	_ZTI15CDHCPIP6Decline @ 22 NONAME ; #<TI>#
	_ZTI15CDHCPIP6Release @ 23 NONAME ; #<TI>#
	_ZTI15CDHCPIP6Solicit @ 24 NONAME ; #<TI>#
	_ZTI17CDHCPStateMachine @ 25 NONAME ; #<TI>#
	_ZTI18CDHCPIP4WaitForDAD @ 26 NONAME ; #<TI>#
	_ZTI18CDHCPIP6WaitForDAD @ 27 NONAME ; #<TI>#
	_ZTI18CDHCPRebootConfirm @ 28 NONAME ; #<TI>#
	_ZTI19CDHCPIP6Reconfigure @ 29 NONAME ; #<TI>#
	_ZTI19CDHCPWaitForDADBind @ 30 NONAME ; #<TI>#
	_ZTI20CDHCPIP4StateMachine @ 31 NONAME ; #<TI>#
	_ZTI20CDHCPIP6StateMachine @ 32 NONAME ; #<TI>#
	_ZTI21CDHCPIP6InformRequest @ 33 NONAME ; #<TI>#
	_ZTI21CDHCPIP6MessageSender @ 34 NONAME ; #<TI>#
	_ZTI21CDhcpIP6MessageReader @ 35 NONAME ; #<TI>#
	_ZTI22CDHCPIP6ReplyNoBinding @ 36 NONAME ; #<TI>#
	_ZTI22CDHCPInformationConfig @ 37 NONAME ; #<TI>#
	_ZTI23CDHCPAddressAcquisition @ 38 NONAME ; #<TI>#
	_ZTI24CDHCPIP6ListenToNeighbor @ 39 NONAME ; #<TI>#
	_ZTI5CItemI15TValueBigEndianE @ 40 NONAME ABSENT ; #<TI>#
	_ZTI5CItemI9TConstantE @ 41 NONAME ABSENT ; #<TI>#
	_ZTI5CItemIN6DHCPv413TOptionHeaderI13TLittleEndianEEE @ 42 NONAME ; #<TI>#
	_ZTI5CItemIN6DHCPv613TOptionHeaderI10TBigEndianEEE @ 43 NONAME ; #<TI>#
	_ZTIN6DHCPv411COptionListE @ 44 NONAME ; #<TI>#
	_ZTIN6DHCPv411COptionNodeE @ 45 NONAME ; #<TI>#
	_ZTIN6DHCPv611COptionListE @ 46 NONAME ; #<TI>#
	_ZTIN6DHCPv611COptionNodeE @ 47 NONAME ; #<TI>#
	_ZTIN6DHCPv616CDHCPOptionIA_NAE @ 48 NONAME ; #<TI>#
	_ZTIN6DHCPv616CDHCPOptionIA_TAE @ 49 NONAME ; #<TI>#
	_ZTIN6DHCPv620CDHCPOptionIAAddressE @ 50 NONAME ; #<TI>#
	_ZTIN6DHCPv621CDHCPOptionDNSServersE @ 51 NONAME ; #<TI>#
	_ZTV10CDHCPIP4Db @ 52 NONAME ; #<VT>#
	_ZTV10CDHCPRenew @ 53 NONAME ; #<VT>#
	_ZTV10CDHCPState @ 54 NONAME ; #<VT>#
	_ZTV11CDHCPRebind @ 55 NONAME ; #<VT>#
	_ZTV11CDHCPSelect @ 56 NONAME ; #<VT>#
	_ZTV11CDHCPServer @ 57 NONAME ; #<VT>#
	_ZTV12CDHCPControl @ 58 NONAME ; #<VT>#
	_ZTV12CDHCPDecline @ 59 NONAME ; #<VT>#
	_ZTV12CDHCPRelease @ 60 NONAME ; #<VT>#
	_ZTV12CDHCPRequest @ 61 NONAME ; #<VT>#
	_ZTV12CDHCPSession @ 62 NONAME ; #<VT>#
	_ZTV12CExpireTimer @ 63 NONAME ; #<VT>#
	_ZTV13CDHCPIP6Renew @ 64 NONAME ; #<VT>#
	_ZTV14CDHCPIP4Select @ 65 NONAME ; #<VT>#
	_ZTV14CDHCPIP6Rebind @ 66 NONAME ; #<VT>#
	_ZTV14CDHCPIP6Select @ 67 NONAME ; #<VT>#
	_ZTV14CMessageSender @ 68 NONAME ; #<VT>#
	_ZTV15CDHCPIP4Control @ 69 NONAME ; #<VT>#
	_ZTV15CDHCPIP6Confirm @ 70 NONAME ; #<VT>#
	_ZTV15CDHCPIP6Control @ 71 NONAME ; #<VT>#
	_ZTV15CDHCPIP6Decline @ 72 NONAME ; #<VT>#
	_ZTV15CDHCPIP6Release @ 73 NONAME ; #<VT>#
	_ZTV15CDHCPIP6Solicit @ 74 NONAME ; #<VT>#
	_ZTV17CDHCPStateMachine @ 75 NONAME ; #<VT>#
	_ZTV18CDHCPIP4WaitForDAD @ 76 NONAME ; #<VT>#
	_ZTV18CDHCPIP6WaitForDAD @ 77 NONAME ; #<VT>#
	_ZTV18CDHCPRebootConfirm @ 78 NONAME ; #<VT>#
	_ZTV19CDHCPIP6Reconfigure @ 79 NONAME ; #<VT>#
	_ZTV19CDHCPWaitForDADBind @ 80 NONAME ; #<VT>#
	_ZTV20CDHCPIP4StateMachine @ 81 NONAME ; #<VT>#
	_ZTV20CDHCPIP6StateMachine @ 82 NONAME ; #<VT>#
	_ZTV21CDHCPIP6InformRequest @ 83 NONAME ; #<VT>#
	_ZTV21CDHCPIP6MessageSender @ 84 NONAME ; #<VT>#
	_ZTV21CDhcpIP6MessageReader @ 85 NONAME ; #<VT>#
	_ZTV22CDHCPIP6ReplyNoBinding @ 86 NONAME ; #<VT>#
	_ZTV22CDHCPInformationConfig @ 87 NONAME ; #<VT>#
	_ZTV23CDHCPAddressAcquisition @ 88 NONAME ; #<VT>#
	_ZTV24CDHCPIP6ListenToNeighbor @ 89 NONAME ; #<VT>#
	_ZTV5CItemI15TValueBigEndianE @ 90 NONAME ABSENT ; #<VT>#
	_ZTV5CItemI9TConstantE @ 91 NONAME ABSENT ; #<VT>#
	_ZTV5CItemIN6DHCPv413TOptionHeaderI13TLittleEndianEEE @ 92 NONAME ; #<VT>#
	_ZTV5CItemIN6DHCPv613TOptionHeaderI10TBigEndianEEE @ 93 NONAME ; #<VT>#
	_ZTVN6DHCPv411COptionListE @ 94 NONAME ; #<VT>#
	_ZTVN6DHCPv411COptionNodeE @ 95 NONAME ; #<VT>#
	_ZTVN6DHCPv611COptionListE @ 96 NONAME ; #<VT>#
	_ZTVN6DHCPv611COptionNodeE @ 97 NONAME ; #<VT>#
	_ZTVN6DHCPv616CDHCPOptionIA_NAE @ 98 NONAME ; #<VT>#
	_ZTVN6DHCPv616CDHCPOptionIA_TAE @ 99 NONAME ; #<VT>#
	_ZTVN6DHCPv620CDHCPOptionIAAddressE @ 100 NONAME ; #<VT>#
	_ZTVN6DHCPv621CDHCPOptionDNSServersE @ 101 NONAME ; #<VT>#

