EXPORTS
	_Z11PanicClienti @ 1 NONAME
	_ZN10CPhoneBase13CancelServiceEim @ 2 NONAME
	_ZN10CPhoneBase14NumberOfSlotsLEi @ 3 NONAME
	_ZN10CPhoneBase18OpenPostProcessingEP11CTelSessioni @ 4 NONAME
	_ZN10CPhoneBase28CloseSubSessionPreProcessingEP11CTelSessioni @ 5 NONAME
	_ZN10CPhoneBase7ServiceERK9RMessage2P9CReqEntry @ 6 NONAME
	_ZN10CPhoneBase8ReqModeLEi @ 7 NONAME
	_ZN10CPhoneBaseC2Ev @ 8 NONAME
	_ZN10CPhoneBaseD0Ev @ 9 NONAME
	_ZN10CPhoneBaseD1Ev @ 10 NONAME
	_ZN10CPhoneBaseD2Ev @ 11 NONAME
	_ZN10CTelObject12ReqCompletedEmi @ 12 NONAME
	_ZN10CTelObject12UpCallOptionEiPv @ 13 NONAME
	_ZN10CTelObject14DownCallOptionEiPv @ 14 NONAME
	_ZN10CTelObject17FlowControlResumeEv @ 15 NONAME
	_ZN10CTelObject18FlowControlSuspendEv @ 16 NONAME
	_ZN10CTelObject20CTelObject_Reserved1Ev @ 17 NONAME
	_ZN10CTelObjectC2Ev @ 18 NONAME
	_ZN10CTelObjectD0Ev @ 19 NONAME
	_ZN10CTelObjectD1Ev @ 20 NONAME
	_ZN10CTelObjectD2Ev @ 21 NONAME
	_ZN10RPacketQoS10OpenNewQoSER14RPacketContextR6TDes16 @ 22 NONAME
	_ZN10RPacketQoS12TQoSCapsGPRSC1Ev @ 23 NONAME
	_ZN10RPacketQoS12TQoSCapsGPRSC2Ev @ 24 NONAME
	_ZN10RPacketQoS15OpenExistingQoSER14RPacketContextRK7TDesC16 @ 25 NONAME
	_ZN10RPacketQoS17TQoSGPRSRequestedC1Ev @ 26 NONAME
	_ZN10RPacketQoS17TQoSGPRSRequestedC2Ev @ 27 NONAME
	_ZN10RPacketQoS18TQoSGPRSNegotiatedC1Ev @ 28 NONAME
	_ZN10RPacketQoS18TQoSGPRSNegotiatedC2Ev @ 29 NONAME
	_ZN10RPacketQoS5CloseEv @ 30 NONAME
	_ZN10RPacketQoSC1Ev @ 31 NONAME
	_ZN10RPacketQoSC2Ev @ 32 NONAME
	_ZN10RTelServer12__DbgMarkEndEi @ 33 NONAME
	_ZN10RTelServer13SetTestNumberEi @ 34 NONAME
	_ZN10RTelServer13__DbgFailNextEi @ 35 NONAME
	_ZN10RTelServer13__DbgMarkHeapEv @ 36 NONAME
	_ZN10RTelServer14__DbgCheckHeapEi @ 37 NONAME
	_ZN10RTelServer20TriggerQoSConfigDropEv @ 38 NONAME
	_ZN10RTelServer23TriggerQoSConfigRestoreEv @ 39 NONAME
	_ZN10RTelServer24TriggerContextConfigDropEv @ 40 NONAME
	_ZN10RTelServer26TriggerContextStatusChangeEv @ 41 NONAME
	_ZN10RTelServer27TriggerContextConfigRestoreEv @ 42 NONAME
	_ZN10RTelServer7ConnectEi @ 43 NONAME
	_ZN10RTelServer7SetModeENS_23TMobilePhoneNetworkModeE @ 44 NONAME
	_ZN10RTelServerC1Ev @ 45 NONAME
	_ZN10RTelServerC2Ev @ 46 NONAME
	_ZN11RMobileCall10ConstructLEv @ 47 NONAME
	_ZN11RMobileCall16TMobileCallCugV1C1Ev @ 48 NONAME
	_ZN11RMobileCall16TMobileCallCugV1C2Ev @ 49 NONAME
	_ZN11RMobileCall17TMobileCallCapsV1C1Ev @ 50 NONAME
	_ZN11RMobileCall17TMobileCallCapsV1C2Ev @ 51 NONAME
	_ZN11RMobileCall17TMobileCallInfoV1C1Ev @ 52 NONAME
	_ZN11RMobileCall17TMobileCallInfoV1C2Ev @ 53 NONAME
	_ZN11RMobileCall19TMobileCallParamsV1C1Ev @ 54 NONAME
	_ZN11RMobileCall19TMobileCallParamsV1C2Ev @ 55 NONAME
	_ZN11RMobileCall21TMobileCallDataCapsV1C1Ev @ 56 NONAME
	_ZN11RMobileCall21TMobileCallDataCapsV1C2Ev @ 57 NONAME
	_ZN11RMobileCall22TMobileCallHscsdInfoV1C1Ev @ 58 NONAME
	_ZN11RMobileCall22TMobileCallHscsdInfoV1C2Ev @ 59 NONAME
	_ZN11RMobileCall22TMobileDataRLPRangesV1C1Ev @ 60 NONAME
	_ZN11RMobileCall22TMobileDataRLPRangesV1C2Ev @ 61 NONAME
	_ZN11RMobileCall23TMobileCallUUSRequestV1C1Ev @ 62 NONAME
	_ZN11RMobileCall23TMobileCallUUSRequestV1C2Ev @ 63 NONAME
	_ZN11RMobileCall23TMobileDataCallParamsV1C1Ev @ 64 NONAME
	_ZN11RMobileCall23TMobileDataCallParamsV1C2Ev @ 65 NONAME
	_ZN11RMobileCall24TMobileHscsdCallParamsV1C1Ev @ 66 NONAME
	_ZN11RMobileCall24TMobileHscsdCallParamsV1C2Ev @ 67 NONAME
	_ZN11RMobileCall28TMobileCallRemotePartyInfoV1C1Ev @ 68 NONAME
	_ZN11RMobileCall28TMobileCallRemotePartyInfoV1C2Ev @ 69 NONAME
	_ZN11RMobileCall8DestructEv @ 70 NONAME
	_ZN11RMobileCallC1Ev @ 71 NONAME
	_ZN11RMobileCallC2Ev @ 72 NONAME
	_ZN11RMobileLine10ConstructLEv @ 73 NONAME
	_ZN11RMobileLine8DestructEv @ 74 NONAME
	_ZN11RMobileLineC1Ev @ 75 NONAME
	_ZN11RMobileLineC2Ev @ 76 NONAME
	_ZN12RMobilePhone10ConstructLEv @ 77 NONAME
	_ZN12RMobilePhone14TMobileAddressC1Ev @ 78 NONAME
	_ZN12RMobilePhone14TMobileAddressC2Ev @ 79 NONAME
	_ZN12RMobilePhone16TMobilePhoneNITZC1Ei6TMonthiiiii @ 80 NONAME
	_ZN12RMobilePhone16TMobilePhoneNITZC1Ev @ 81 NONAME
	_ZN12RMobilePhone16TMobilePhoneNITZC2Ei6TMonthiiiii @ 82 NONAME
	_ZN12RMobilePhone16TMobilePhoneNITZC2Ev @ 83 NONAME
	_ZN12RMobilePhone18TMobilePhonePuctV1C1Ev @ 84 NONAME
	_ZN12RMobilePhone18TMobilePhonePuctV1C2Ev @ 85 NONAME
	_ZN12RMobilePhone21TMobilePhoneCspFileV1C1Ev @ 86 NONAME
	_ZN12RMobilePhone21TMobilePhoneCspFileV1C2Ev @ 87 NONAME
	_ZN12RMobilePhone22TMobilePhoneCBChangeV1C1Ev @ 88 NONAME
	_ZN12RMobilePhone22TMobilePhoneCBChangeV1C2Ev @ 89 NONAME
	_ZN12RMobilePhone22TMobilePhoneCFChangeV1C1Ev @ 90 NONAME
	_ZN12RMobilePhone22TMobilePhoneCFChangeV1C2Ev @ 91 NONAME
	_ZN12RMobilePhone22TMobilePhoneCostInfoV1C1Ev @ 92 NONAME
	_ZN12RMobilePhone22TMobilePhoneCostInfoV1C2Ev @ 93 NONAME
	_ZN12RMobilePhone22TMobilePhoneIdentityV1C1Ev @ 94 NONAME
	_ZN12RMobilePhone22TMobilePhoneIdentityV1C2Ev @ 95 NONAME
	_ZN12RMobilePhone22TMobilePhoneLockInfoV1C1Ev @ 96 NONAME
	_ZN12RMobilePhone22TMobilePhoneLockInfoV1C2Ev @ 97 NONAME
	_ZN12RMobilePhone23TMobilePhoneCCBSEntryV1C1Ev @ 98 NONAME
	_ZN12RMobilePhone23TMobilePhoneCCBSEntryV1C2Ev @ 99 NONAME
	_ZN12RMobilePhone25TMobilePhoneBatteryInfoV1C1Ev @ 100 NONAME
	_ZN12RMobilePhone25TMobilePhoneBatteryInfoV1C2Ev @ 101 NONAME
	_ZN12RMobilePhone25TMobilePhoneCBInfoEntryV1C1Ev @ 102 NONAME
	_ZN12RMobilePhone25TMobilePhoneCBInfoEntryV1C2Ev @ 103 NONAME
	_ZN12RMobilePhone25TMobilePhoneCFInfoEntryV1C1Ev @ 104 NONAME
	_ZN12RMobilePhone25TMobilePhoneCFInfoEntryV1C2Ev @ 105 NONAME
	_ZN12RMobilePhone25TMobilePhoneCWInfoEntryV1C1Ev @ 106 NONAME
	_ZN12RMobilePhone25TMobilePhoneCWInfoEntryV1C2Ev @ 107 NONAME
	_ZN12RMobilePhone25TMobilePhoneNetworkInfoV1C1Ev @ 108 NONAME
	_ZN12RMobilePhone25TMobilePhoneNetworkInfoV1C2Ev @ 109 NONAME
	_ZN12RMobilePhone26TMobilePhoneLocationAreaV1C1Ev @ 110 NONAME
	_ZN12RMobilePhone26TMobilePhoneLocationAreaV1C2Ev @ 111 NONAME
	_ZN12RMobilePhone26TMobilePhoneServiceTableV1C1Ev @ 112 NONAME
	_ZN12RMobilePhone26TMobilePhoneServiceTableV1C2Ev @ 113 NONAME
	_ZN12RMobilePhone28TMobilePhoneMessageWaitingV1C1Ev @ 114 NONAME
	_ZN12RMobilePhone28TMobilePhoneMessageWaitingV1C2Ev @ 115 NONAME
	_ZN12RMobilePhone28TMobilePhonePasswordChangeV1C1Ev @ 116 NONAME
	_ZN12RMobilePhone28TMobilePhonePasswordChangeV1C2Ev @ 117 NONAME
	_ZN12RMobilePhone30TMobilePhoneNetworkSelectionV1C1Ev @ 118 NONAME
	_ZN12RMobilePhone30TMobilePhoneNetworkSelectionV1C2Ev @ 119 NONAME
	_ZN12RMobilePhone31TMobilePhoneMulticallSettingsV1C1Ev @ 120 NONAME
	_ZN12RMobilePhone31TMobilePhoneMulticallSettingsV1C2Ev @ 121 NONAME
	_ZN12RMobilePhone8DestructEv @ 122 NONAME
	_ZN12RMobilePhoneC1Ev @ 123 NONAME
	_ZN12RMobilePhoneC2Ev @ 124 NONAME
	_ZN14RMobileENStore10ConstructLEv @ 125 NONAME
	_ZN14RMobileENStore16TMobileENEntryV1C1Ev @ 126 NONAME
	_ZN14RMobileENStore16TMobileENEntryV1C2Ev @ 127 NONAME
	_ZN14RMobileENStore4OpenER12RMobilePhone @ 128 NONAME
	_ZN14RMobileENStore5CloseEv @ 129 NONAME
	_ZN14RMobileENStoreC1Ev @ 130 NONAME
	_ZN14RMobileENStoreC2Ev @ 131 NONAME
	_ZN14RMobileONStore10ConstructLEv @ 132 NONAME
	_ZN14RMobileONStore16TMobileONEntryV1C1Ev @ 133 NONAME
	_ZN14RMobileONStore16TMobileONEntryV1C2Ev @ 134 NONAME
	_ZN14RMobileONStore20TMobileONStoreInfoV1C1Ev @ 135 NONAME
	_ZN14RMobileONStore20TMobileONStoreInfoV1C2Ev @ 136 NONAME
	_ZN14RMobileONStore4OpenER12RMobilePhone @ 137 NONAME
	_ZN14RMobileONStore5CloseEv @ 138 NONAME
	_ZN14RMobileONStoreC1Ev @ 139 NONAME
	_ZN14RMobileONStoreC2Ev @ 140 NONAME
	_ZN14RPacketContext10TDnsInfoV2C1Ev @ 141 NONAME
	_ZN14RPacketContext10TDnsInfoV2C2Ev @ 142 NONAME
	_ZN14RPacketContext14OpenNewContextER14RPacketServiceR6TDes16 @ 143 NONAME
	_ZN14RPacketContext18NotifyStatusChangeER14TRequestStatusRNS_14TContextStatusE @ 144 NONAME
	_ZN14RPacketContext18TContextConfigGPRSC1Ev @ 145 NONAME
	_ZN14RPacketContext18TContextConfigGPRSC2Ev @ 146 NONAME
	_ZN14RPacketContext19OpenExistingContextER14RPacketServiceRK7TDesC16 @ 147 NONAME
	_ZN14RPacketContext5CloseEv @ 148 NONAME
	_ZN14RPacketContextC1Ev @ 149 NONAME
	_ZN14RPacketContextC2Ev @ 150 NONAME
	_ZN14RPacketService10ConstructLEv @ 151 NONAME
	_ZN14RPacketService4OpenER6RPhone @ 152 NONAME
	_ZN14RPacketService5CloseEv @ 153 NONAME
	_ZN14RPacketService8DestructEv @ 154 NONAME
	_ZN14RPacketServiceC1Ev @ 155 NONAME
	_ZN14RPacketServiceC2Ev @ 156 NONAME
	_ZN15RMobileNamStore10ConstructLEv @ 157 NONAME
	_ZN15RMobileNamStore17TMobileNamEntryV1C1Ev @ 158 NONAME
	_ZN15RMobileNamStore17TMobileNamEntryV1C2Ev @ 159 NONAME
	_ZN15RMobileNamStore21TMobileNamStoreInfoV1C1Ev @ 160 NONAME
	_ZN15RMobileNamStore21TMobileNamStoreInfoV1C2Ev @ 161 NONAME
	_ZN15RMobileNamStore4OpenER12RMobilePhone @ 162 NONAME
	_ZN15RMobileNamStore5CloseEv @ 163 NONAME
	_ZN15RMobileNamStoreC1Ev @ 164 NONAME
	_ZN15RMobileNamStoreC2Ev @ 165 NONAME
	_ZN15RMobileSmsStore10ConstructLEv @ 166 NONAME
	_ZN15RMobileSmsStore20TMobileGsmSmsEntryV1C1Ev @ 167 NONAME
	_ZN15RMobileSmsStore20TMobileGsmSmsEntryV1C2Ev @ 168 NONAME
	_ZN15RMobileSmsStore4OpenER19RMobileSmsMessagingRK7TDesC16 @ 169 NONAME
	_ZN15RMobileSmsStore5CloseEv @ 170 NONAME
	_ZN15RMobileSmsStoreC1Ev @ 171 NONAME
	_ZN15RMobileSmsStoreC2Ev @ 172 NONAME
	_ZN16CPhoneBookBuffer12BufferLengthEv @ 173 NONAME
	_ZN16CPhoneBookBuffer13GetTagAndTypeERhRNS_12TPhBkTagTypeE @ 174 NONAME
	_ZN16CPhoneBookBuffer14AddNewEntryTagEv @ 175 NONAME
	_ZN16CPhoneBookBuffer14PutTagAndValueEhRK6TDesC8 @ 176 NONAME
	_ZN16CPhoneBookBuffer14PutTagAndValueEhRK7TDesC16 @ 177 NONAME
	_ZN16CPhoneBookBuffer14PutTagAndValueEhh @ 178 NONAME
	_ZN16CPhoneBookBuffer14PutTagAndValueEhm @ 179 NONAME
	_ZN16CPhoneBookBuffer14PutTagAndValueEht @ 180 NONAME
	_ZN16CPhoneBookBuffer18RemovePartialEntryEv @ 181 NONAME
	_ZN16CPhoneBookBuffer19RemainingReadLengthEv @ 182 NONAME
	_ZN16CPhoneBookBuffer3SetEP5TDes8 @ 183 NONAME
	_ZN16CPhoneBookBuffer8GetValueER6TPtrC8 @ 184 NONAME
	_ZN16CPhoneBookBuffer8GetValueER7TPtrC16 @ 185 NONAME
	_ZN16CPhoneBookBuffer8GetValueERh @ 186 NONAME
	_ZN16CPhoneBookBuffer8GetValueERm @ 187 NONAME
	_ZN16CPhoneBookBuffer8GetValueERt @ 188 NONAME
	_ZN16CPhoneBookBuffer9SkipValueENS_12TPhBkTagTypeE @ 189 NONAME
	_ZN16CPhoneBookBuffer9StartReadEv @ 190 NONAME
	_ZN16CPhoneBookBufferC1Ev @ 191 NONAME
	_ZN16CPhoneBookBufferC2Ev @ 192 NONAME
	_ZN17CPhoneFactoryBase27CPhoneFactoryBase_Reserved1Ev @ 193 NONAME
	_ZN17CPhoneFactoryBaseC2Ev @ 194 NONAME
	_ZN17CPhoneFactoryBaseD0Ev @ 195 NONAME
	_ZN17CPhoneFactoryBaseD1Ev @ 196 NONAME
	_ZN17CPhoneFactoryBaseD2Ev @ 197 NONAME
	_ZN17RMobilePhoneStore13BaseConstructEP26CMobilePhoneStorePtrHolder @ 198 NONAME
	_ZN17RMobilePhoneStore23TMobilePhoneStoreInfoV1C1Ev @ 199 NONAME
	_ZN17RMobilePhoneStore23TMobilePhoneStoreInfoV1C2Ev @ 200 NONAME
	_ZN17RMobilePhoneStore8DestructEv @ 201 NONAME
	_ZN18CMobilePhoneCBList4NewLEv @ 202 NONAME
	_ZN18CMobilePhoneCBListD0Ev @ 203 NONAME
	_ZN18CMobilePhoneCBListD1Ev @ 204 NONAME
	_ZN18CMobilePhoneCBListD2Ev @ 205 NONAME
	_ZN18CMobilePhoneCFList4NewLEv @ 206 NONAME
	_ZN18CMobilePhoneCFListD0Ev @ 207 NONAME
	_ZN18CMobilePhoneCFListD1Ev @ 208 NONAME
	_ZN18CMobilePhoneCFListD2Ev @ 209 NONAME
	_ZN18CMobilePhoneCWList4NewLEv @ 210 NONAME
	_ZN18CMobilePhoneCWListD0Ev @ 211 NONAME
	_ZN18CMobilePhoneCWListD1Ev @ 212 NONAME
	_ZN18CMobilePhoneCWListD2Ev @ 213 NONAME
	_ZN18CMobilePhoneENList4NewLEv @ 214 NONAME
	_ZN18CMobilePhoneENListD0Ev @ 215 NONAME
	_ZN18CMobilePhoneENListD1Ev @ 216 NONAME
	_ZN18CMobilePhoneENListD2Ev @ 217 NONAME
	_ZN18CMobilePhoneONList4NewLEv @ 218 NONAME
	_ZN18CMobilePhoneONListD0Ev @ 219 NONAME
	_ZN18CMobilePhoneONListD1Ev @ 220 NONAME
	_ZN18CMobilePhoneONListD2Ev @ 221 NONAME
	_ZN18CSubSessionExtBase11NullMethod1Ev @ 222 NONAME
	_ZN18CSubSessionExtBase18OpenPostProcessingEP11CTelSessioni @ 223 NONAME
	_ZN18CSubSessionExtBase28CloseSubSessionPreProcessingEP11CTelSessioni @ 224 NONAME
	_ZN18CSubSessionExtBase7ServiceERK9RMessage2P9CReqEntry @ 225 NONAME
	_ZN18CSubSessionExtBaseC2Ev @ 226 NONAME
	_ZN18CSubSessionExtBaseD0Ev @ 227 NONAME
	_ZN18CSubSessionExtBaseD1Ev @ 228 NONAME
	_ZN18CSubSessionExtBaseD2Ev @ 229 NONAME
	_ZN18RTelSubSessionBaseC1Ev @ 230 NONAME
	_ZN18RTelSubSessionBaseC2Ev @ 231 NONAME
	_ZN19CMobilePhoneNamList4NewLEv @ 232 NONAME
	_ZN19CMobilePhoneNamListD0Ev @ 233 NONAME
	_ZN19CMobilePhoneNamListD1Ev @ 234 NONAME
	_ZN19CMobilePhoneNamListD2Ev @ 235 NONAME
	_ZN19RMobileSmsMessaging10ConstructLEv @ 236 NONAME
	_ZN19RMobileSmsMessaging16TMobileSmsCapsV1C1Ev @ 237 NONAME
	_ZN19RMobileSmsMessaging16TMobileSmsCapsV1C2Ev @ 238 NONAME
	_ZN19RMobileSmsMessaging18TMobileSmspEntryV1C1Ev @ 239 NONAME
	_ZN19RMobileSmsMessaging18TMobileSmspEntryV1C2Ev @ 240 NONAME
	_ZN19RMobileSmsMessaging23NotifyMoSmsBearerChangeER14TRequestStatusRNS_16TMobileSmsBearerE @ 241 NONAME
	_ZN19RMobileSmsMessaging23NotifyReceiveModeChangeER14TRequestStatusRNS_21TMobileSmsReceiveModeE @ 242 NONAME
	_ZN19RMobileSmsMessaging26TMobileSmsSendAttributesV1C1Ev @ 243 NONAME
	_ZN19RMobileSmsMessaging26TMobileSmsSendAttributesV1C2Ev @ 244 NONAME
	_ZN19RMobileSmsMessaging29TMobileSmsReceiveAttributesV1C1Ev @ 245 NONAME
	_ZN19RMobileSmsMessaging29TMobileSmsReceiveAttributesV1C2Ev @ 246 NONAME
	_ZN19RMobileSmsMessaging4OpenER12RMobilePhone @ 247 NONAME
	_ZN19RMobileSmsMessaging5CloseEv @ 248 NONAME
	_ZN19RMobileSmsMessaging8DestructEv @ 249 NONAME
	_ZN19RMobileSmsMessagingC1Ev @ 250 NONAME
	_ZN19RMobileSmsMessagingC2Ev @ 251 NONAME
	_ZN20CMobilePhoneCcbsList4NewLEv @ 252 NONAME
	_ZN20CMobilePhoneCcbsListD0Ev @ 253 NONAME
	_ZN20CMobilePhoneCcbsListD1Ev @ 254 NONAME
	_ZN20CMobilePhoneCcbsListD2Ev @ 255 NONAME
	_ZN20CMobilePhoneListBase12InternalizeLER11RReadStream @ 256 NONAME
	_ZN20CMobilePhoneListBase19SetMaxNumberEntriesEi @ 257 NONAME
	_ZN20CMobilePhoneListBase6StoreLER5TDes8 @ 258 NONAME
	_ZN20CMobilePhoneListBase7StoreLCEv @ 259 NONAME
	_ZN20CMobilePhoneListBase8RestoreLERK6TDesC8 @ 260 NONAME
	_ZN20CMobilePhoneListBase9AddEntryLEPKv @ 261 NONAME
	_ZN20CMobilePhoneSmspList4NewLEv @ 262 NONAME
	_ZN20CMobilePhoneSmspListD0Ev @ 263 NONAME
	_ZN20CMobilePhoneSmspListD1Ev @ 264 NONAME
	_ZN20CMobilePhoneSmspListD2Ev @ 265 NONAME
	_ZN20RMobileUssdMessaging10ConstructLEv @ 266 NONAME
	_ZN20RMobileUssdMessaging17TMobileUssdCapsV1C1Ev @ 267 NONAME
	_ZN20RMobileUssdMessaging17TMobileUssdCapsV1C2Ev @ 268 NONAME
	_ZN20RMobileUssdMessaging23TMobileUssdAttributesV1C1Ev @ 269 NONAME
	_ZN20RMobileUssdMessaging23TMobileUssdAttributesV1C2Ev @ 270 NONAME
	_ZN20RMobileUssdMessaging4OpenER12RMobilePhone @ 271 NONAME
	_ZN20RMobileUssdMessaging5CloseEv @ 272 NONAME
	_ZN20RMobileUssdMessaging8DestructEv @ 273 NONAME
	_ZN20RMobileUssdMessagingC1Ev @ 274 NONAME
	_ZN20RMobileUssdMessagingC2Ev @ 275 NONAME
	_ZN21RMobileConferenceCall10ConstructLEv @ 276 NONAME
	_ZN21RMobileConferenceCall4OpenER12RMobilePhone @ 277 NONAME
	_ZN21RMobileConferenceCall5CloseEv @ 278 NONAME
	_ZN21RMobileConferenceCall8DestructEv @ 279 NONAME
	_ZN21RMobileConferenceCallC1Ev @ 280 NONAME
	_ZN21RMobileConferenceCallC2Ev @ 281 NONAME
	_ZN21RMobilePhoneBookStore10ConstructLEv @ 282 NONAME
	_ZN21RMobilePhoneBookStore22TMobilePhoneBookInfoV1C1Ev @ 283 NONAME
	_ZN21RMobilePhoneBookStore22TMobilePhoneBookInfoV1C2Ev @ 284 NONAME
	_ZN21RMobilePhoneBookStore4OpenER12RMobilePhoneRK7TDesC16 @ 285 NONAME
	_ZN21RMobilePhoneBookStore5CloseEv @ 286 NONAME
	_ZN21RMobilePhoneBookStoreC1Ev @ 287 NONAME
	_ZN21RMobilePhoneBookStoreC2Ev @ 288 NONAME
	_ZN22CMobilePhoneGsmSmsList4NewLEv @ 289 NONAME
	_ZN22CMobilePhoneGsmSmsListD0Ev @ 290 NONAME
	_ZN22CMobilePhoneGsmSmsListD1Ev @ 291 NONAME
	_ZN22CMobilePhoneGsmSmsListD2Ev @ 292 NONAME
	_ZN23CMobilePhoneNetworkList4NewLEv @ 293 NONAME
	_ZN23CMobilePhoneNetworkListD0Ev @ 294 NONAME
	_ZN23CMobilePhoneNetworkListD1Ev @ 295 NONAME
	_ZN23CMobilePhoneNetworkListD2Ev @ 296 NONAME
	_ZN25RMobileBroadcastMessaging10ConstructLEv @ 297 NONAME
	_ZN25RMobileBroadcastMessaging21StoreBroadcastIdListLER14TRequestStatusP27CMobilePhoneBroadcastIdListNS_22TMobileBroadcastIdTypeE @ 298 NONAME
	_ZN25RMobileBroadcastMessaging22TMobileBroadcastCapsV1C1Ev @ 299 NONAME
	_ZN25RMobileBroadcastMessaging22TMobileBroadcastCapsV1C2Ev @ 300 NONAME
	_ZN25RMobileBroadcastMessaging25TMobileBroadcastIdEntryV1C1Ev @ 301 NONAME
	_ZN25RMobileBroadcastMessaging25TMobileBroadcastIdEntryV1C2Ev @ 302 NONAME
	_ZN25RMobileBroadcastMessaging28TMobileBroadcastAttributesV1C1Ev @ 303 NONAME
	_ZN25RMobileBroadcastMessaging28TMobileBroadcastAttributesV1C2Ev @ 304 NONAME
	_ZN25RMobileBroadcastMessaging4OpenER12RMobilePhone @ 305 NONAME
	_ZN25RMobileBroadcastMessaging5CloseEv @ 306 NONAME
	_ZN25RMobileBroadcastMessaging8DestructEv @ 307 NONAME
	_ZN25RMobileBroadcastMessagingC1Ev @ 308 NONAME
	_ZN25RMobileBroadcastMessagingC2Ev @ 309 NONAME
	_ZN26CRetrieveMobilePhoneCBList13RetrieveListLEv @ 310 NONAME
	_ZN26CRetrieveMobilePhoneCBList4NewLER12RMobilePhone @ 311 NONAME
	_ZN26CRetrieveMobilePhoneCBList5StartER14TRequestStatusN12RMobilePhone23TMobilePhoneCBConditionENS2_19TMobileInfoLocationE @ 312 NONAME
	_ZN26CRetrieveMobilePhoneCBListD0Ev @ 313 NONAME
	_ZN26CRetrieveMobilePhoneCBListD1Ev @ 314 NONAME
	_ZN26CRetrieveMobilePhoneCBListD2Ev @ 315 NONAME
	_ZN26CRetrieveMobilePhoneCFList13RetrieveListLEv @ 316 NONAME
	_ZN26CRetrieveMobilePhoneCFList4NewLER12RMobilePhone @ 317 NONAME
	_ZN26CRetrieveMobilePhoneCFList5StartER14TRequestStatusN12RMobilePhone23TMobilePhoneCFConditionENS2_19TMobileInfoLocationE @ 318 NONAME
	_ZN26CRetrieveMobilePhoneCFListD0Ev @ 319 NONAME
	_ZN26CRetrieveMobilePhoneCFListD1Ev @ 320 NONAME
	_ZN26CRetrieveMobilePhoneCFListD2Ev @ 321 NONAME
	_ZN26CRetrieveMobilePhoneCWList13RetrieveListLEv @ 322 NONAME
	_ZN26CRetrieveMobilePhoneCWList4NewLER12RMobilePhone @ 323 NONAME
	_ZN26CRetrieveMobilePhoneCWList5StartER14TRequestStatusN12RMobilePhone19TMobileInfoLocationE @ 324 NONAME
	_ZN26CRetrieveMobilePhoneCWListD0Ev @ 325 NONAME
	_ZN26CRetrieveMobilePhoneCWListD1Ev @ 326 NONAME
	_ZN26CRetrieveMobilePhoneCWListD2Ev @ 327 NONAME
	_ZN26CRetrieveMobilePhoneENList13RetrieveListLEv @ 328 NONAME
	_ZN26CRetrieveMobilePhoneENList4NewLER17RMobilePhoneStore @ 329 NONAME
	_ZN26CRetrieveMobilePhoneENList5StartER14TRequestStatus @ 330 NONAME
	_ZN26CRetrieveMobilePhoneENListD0Ev @ 331 NONAME
	_ZN26CRetrieveMobilePhoneENListD1Ev @ 332 NONAME
	_ZN26CRetrieveMobilePhoneENListD2Ev @ 333 NONAME
	_ZN26CRetrieveMobilePhoneONList13RetrieveListLEv @ 334 NONAME
	_ZN26CRetrieveMobilePhoneONList4NewLER17RMobilePhoneStore @ 335 NONAME
	_ZN26CRetrieveMobilePhoneONList5StartER14TRequestStatus @ 336 NONAME
	_ZN26CRetrieveMobilePhoneONListD0Ev @ 337 NONAME
	_ZN26CRetrieveMobilePhoneONListD1Ev @ 338 NONAME
	_ZN26CRetrieveMobilePhoneONListD2Ev @ 339 NONAME
	_ZN27CMobilePhoneBroadcastIdList14AddRangeEntryLERKN25RMobileBroadcastMessaging25TMobileBroadcastIdEntryV1ES3_ @ 340 NONAME
	_ZN27CMobilePhoneBroadcastIdList4NewLEv @ 341 NONAME
	_ZN27CMobilePhoneBroadcastIdListD0Ev @ 342 NONAME
	_ZN27CMobilePhoneBroadcastIdListD1Ev @ 343 NONAME
	_ZN27CMobilePhoneBroadcastIdListD2Ev @ 344 NONAME
	_ZN27CRetrieveMobilePhoneNamList13RetrieveListLEv @ 345 NONAME
	_ZN27CRetrieveMobilePhoneNamList4NewLER17RMobilePhoneStore @ 346 NONAME
	_ZN27CRetrieveMobilePhoneNamList5StartER14TRequestStatusi @ 347 NONAME
	_ZN27CRetrieveMobilePhoneNamListD0Ev @ 348 NONAME
	_ZN27CRetrieveMobilePhoneNamListD1Ev @ 349 NONAME
	_ZN27CRetrieveMobilePhoneNamListD2Ev @ 350 NONAME
	_ZN27CRetrieveMobilePhoneSmsList10StartBatchER14TRequestStatusii @ 351 NONAME
	_ZN27CRetrieveMobilePhoneSmsList16RetrieveGsmListLEv @ 352 NONAME
	_ZN27CRetrieveMobilePhoneSmsList4NewLER17RMobilePhoneStoreN15RMobileSmsStore26TMobileSmsEntryExtensionIdE @ 353 NONAME
	_ZN27CRetrieveMobilePhoneSmsList5StartER14TRequestStatus @ 354 NONAME
	_ZN27CRetrieveMobilePhoneSmsListD0Ev @ 355 NONAME
	_ZN27CRetrieveMobilePhoneSmsListD1Ev @ 356 NONAME
	_ZN27CRetrieveMobilePhoneSmsListD2Ev @ 357 NONAME
	_ZN28CMobilePhoneEditableListBase12DeleteEntryLEi @ 358 NONAME
	_ZN28CMobilePhoneEditableListBase12InsertEntryLEiPKv @ 359 NONAME
	_ZN28CRetrieveMobilePhoneCcbsList13RetrieveListLEv @ 360 NONAME
	_ZN28CRetrieveMobilePhoneCcbsList4NewLER12RMobilePhone @ 361 NONAME
	_ZN28CRetrieveMobilePhoneCcbsList5StartER14TRequestStatus @ 362 NONAME
	_ZN28CRetrieveMobilePhoneCcbsListD0Ev @ 363 NONAME
	_ZN28CRetrieveMobilePhoneCcbsListD1Ev @ 364 NONAME
	_ZN28CRetrieveMobilePhoneCcbsListD2Ev @ 365 NONAME
	_ZN28CRetrieveMobilePhoneSmspList13RetrieveListLEv @ 366 NONAME
	_ZN28CRetrieveMobilePhoneSmspList4NewLER19RMobileSmsMessaging @ 367 NONAME
	_ZN28CRetrieveMobilePhoneSmspList5StartER14TRequestStatus @ 368 NONAME
	_ZN28CRetrieveMobilePhoneSmspListD0Ev @ 369 NONAME
	_ZN28CRetrieveMobilePhoneSmspListD1Ev @ 370 NONAME
	_ZN28CRetrieveMobilePhoneSmspListD2Ev @ 371 NONAME
	_ZN35CRetrieveMobilePhoneBroadcastIdList13RetrieveListLEv @ 372 NONAME
	_ZN35CRetrieveMobilePhoneBroadcastIdList4NewLER25RMobileBroadcastMessaging @ 373 NONAME
	_ZN35CRetrieveMobilePhoneBroadcastIdList5StartER14TRequestStatusN25RMobileBroadcastMessaging22TMobileBroadcastIdTypeE @ 374 NONAME
	_ZN35CRetrieveMobilePhoneBroadcastIdListD0Ev @ 375 NONAME
	_ZN35CRetrieveMobilePhoneBroadcastIdListD1Ev @ 376 NONAME
	_ZN35CRetrieveMobilePhoneBroadcastIdListD2Ev @ 377 NONAME
	_ZN36CRetrieveMobilePhoneDetectedNetworks13RetrieveListLEv @ 378 NONAME
	_ZN36CRetrieveMobilePhoneDetectedNetworks4NewLER12RMobilePhone @ 379 NONAME
	_ZN36CRetrieveMobilePhoneDetectedNetworks5StartER14TRequestStatus @ 380 NONAME
	_ZN36CRetrieveMobilePhoneDetectedNetworksD0Ev @ 381 NONAME
	_ZN36CRetrieveMobilePhoneDetectedNetworksD1Ev @ 382 NONAME
	_ZN36CRetrieveMobilePhoneDetectedNetworksD2Ev @ 383 NONAME
	_ZN4RFax10ConstructLEv @ 384 NONAME
	_ZN4RFax11GetProgressERNS_9TProgressE @ 385 NONAME
	_ZN4RFax4OpenER5RCall @ 386 NONAME
	_ZN4RFax4ReadER14TRequestStatusR5TDes8 @ 387 NONAME
	_ZN4RFax5CloseEv @ 388 NONAME
	_ZN4RFax5WriteER14TRequestStatusRK6TDesC8 @ 389 NONAME
	_ZN4RFax8DestructEv @ 390 NONAME
	_ZN4RFaxC1Ev @ 391 NONAME
	_ZN4RFaxC2Ev @ 392 NONAME
	_ZN5RCall10ConstructLEv @ 393 NONAME
	_ZN5RCall11OpenNewCallER10RTelServerRK7TDesC16 @ 394 NONAME
	_ZN5RCall11OpenNewCallER10RTelServerRK7TDesC16R6TDes16 @ 395 NONAME
	_ZN5RCall11OpenNewCallER5RLine @ 396 NONAME
	_ZN5RCall11OpenNewCallER5RLineR6TDes16 @ 397 NONAME
	_ZN5RCall11OpenNewCallER6RPhoneRK7TDesC16 @ 398 NONAME
	_ZN5RCall11OpenNewCallER6RPhoneRK7TDesC16R6TDes16 @ 399 NONAME
	_ZN5RCall11TCallParams11ExtensionIdEv @ 400 NONAME
	_ZN5RCall11TCallParams9IsDefaultEv @ 401 NONAME
	_ZN5RCall11TCallParamsC1ENS_22TMonitorSpeakerControlENS_21TMonitorSpeakerVolumeEjNS_16TWaitForDialToneE @ 402 NONAME
	_ZN5RCall11TCallParamsC1Ev @ 403 NONAME
	_ZN5RCall11TCallParamsC2ENS_22TMonitorSpeakerControlENS_21TMonitorSpeakerVolumeEjNS_16TWaitForDialToneE @ 404 NONAME
	_ZN5RCall11TCallParamsC2Ev @ 405 NONAME
	_ZN5RCall12LoanDataPortER14TRequestStatusRNS_9TCommPortE @ 406 NONAME
	_ZN5RCall16NotifyCapsChangeER14TRequestStatusRNS_5TCapsE @ 407 NONAME
	_ZN5RCall16NotifyHookChangeER14TRequestStatusRNS_11THookStatusE @ 408 NONAME
	_ZN5RCall16OpenExistingCallER10RTelServerRK7TDesC16 @ 409 NONAME
	_ZN5RCall16OpenExistingCallER5RLineRK7TDesC16 @ 410 NONAME
	_ZN5RCall16OpenExistingCallER6RPhoneRK7TDesC16 @ 411 NONAME
	_ZN5RCall18AnswerIncomingCallER14TRequestStatus @ 412 NONAME
	_ZN5RCall18AnswerIncomingCallER14TRequestStatusRK6TDesC8 @ 413 NONAME
	_ZN5RCall18NotifyStatusChangeER14TRequestStatusRNS_7TStatusE @ 414 NONAME
	_ZN5RCall24NotifyCallDurationChangeER14TRequestStatusR20TTimeIntervalSeconds @ 415 NONAME
	_ZN5RCall4DialER14TRequestStatusRK6TDesC8RK7TDesC16 @ 416 NONAME
	_ZN5RCall4DialER14TRequestStatusRK7TDesC16 @ 417 NONAME
	_ZN5RCall5CloseEv @ 418 NONAME
	_ZN5RCall7ConnectER14TRequestStatus @ 419 NONAME
	_ZN5RCall7ConnectER14TRequestStatusRK6TDesC8 @ 420 NONAME
	_ZN5RCall8DestructEv @ 421 NONAME
	_ZN5RCall9TCallInfoC1Ev @ 422 NONAME
	_ZN5RCall9TCallInfoC2Ev @ 423 NONAME
	_ZN5RCallC1Ev @ 424 NONAME
	_ZN5RCallC2Ev @ 425 NONAME
	_ZN5RLine10ConstructLEv @ 426 NONAME
	_ZN5RLine15NotifyCallAddedER14TRequestStatusR4TBufILi128EE @ 427 NONAME
	_ZN5RLine16NotifyCapsChangeER14TRequestStatusRNS_5TCapsE @ 428 NONAME
	_ZN5RLine16NotifyHookChangeER14TRequestStatusRN5RCall11THookStatusE @ 429 NONAME
	_ZN5RLine18NotifyIncomingCallER14TRequestStatusR4TBufILi128EE @ 430 NONAME
	_ZN5RLine18NotifyStatusChangeER14TRequestStatusRN5RCall7TStatusE @ 431 NONAME
	_ZN5RLine4OpenER10RTelServerRK7TDesC16 @ 432 NONAME
	_ZN5RLine4OpenER6RPhoneRK7TDesC16 @ 433 NONAME
	_ZN5RLine5CloseEv @ 434 NONAME
	_ZN5RLine8DestructEv @ 435 NONAME
	_ZN5RLine9TLineInfoC1Ev @ 436 NONAME
	_ZN5RLine9TLineInfoC2Ev @ 437 NONAME
	_ZN5RLineC1Ev @ 438 NONAME
	_ZN5RLineC2Ev @ 439 NONAME
	_ZN6RPhone10ConstructLEv @ 440 NONAME
	_ZN6RPhone10InitialiseER14TRequestStatus @ 441 NONAME
	_ZN6RPhone10InitialiseEv @ 442 NONAME
	_ZN6RPhone10TPhoneInfoC1Ev @ 443 NONAME
	_ZN6RPhone10TPhoneInfoC2Ev @ 444 NONAME
	_ZN6RPhone16InitialiseCancelEv @ 445 NONAME
	_ZN6RPhone16NotifyCapsChangeER14TRequestStatusRNS_5TCapsE @ 446 NONAME
	_ZN6RPhone19NotifyModemDetectedER14TRequestStatusRNS_15TModemDetectionE @ 447 NONAME
	_ZN6RPhone4OpenER10RTelServerRK7TDesC16 @ 448 NONAME
	_ZN6RPhone5CloseEv @ 449 NONAME
	_ZN6RPhone8DestructEv @ 450 NONAME
	_ZN6RPhoneC1Ev @ 451 NONAME
	_ZN6RPhoneC2Ev @ 452 NONAME
	_ZN8CFaxBase11NullMethod2Ev @ 453 NONAME
	_ZN8CFaxBase13CancelServiceEim @ 454 NONAME
	_ZN8CFaxBase14NumberOfSlotsLEi @ 455 NONAME
	_ZN8CFaxBase14OpenNewObjectLER6TDes16 @ 456 NONAME
	_ZN8CFaxBase18OpenPostProcessingEP11CTelSessioni @ 457 NONAME
	_ZN8CFaxBase20OpenNewObjectByNameLERK7TDesC16 @ 458 NONAME
	_ZN8CFaxBase28CloseSubSessionPreProcessingEP11CTelSessioni @ 459 NONAME
	_ZN8CFaxBase4InitEv @ 460 NONAME
	_ZN8CFaxBase7ServiceERK9RMessage2P9CReqEntry @ 461 NONAME
	_ZN8CFaxBase8ReqModeLEi @ 462 NONAME
	_ZN8CFaxBaseC2Ev @ 463 NONAME
	_ZN8CFaxBaseD0Ev @ 464 NONAME
	_ZN8CFaxBaseD1Ev @ 465 NONAME
	_ZN8CFaxBaseD2Ev @ 466 NONAME
	_ZN9CCallBase10SetUnownedEv @ 467 NONAME
	_ZN9CCallBase12SetOwnershipEm @ 468 NONAME
	_ZN9CCallBase13CancelServiceEim @ 469 NONAME
	_ZN9CCallBase14NumberOfSlotsLEi @ 470 NONAME
	_ZN9CCallBase18OpenPostProcessingEP11CTelSessioni @ 471 NONAME
	_ZN9CCallBase22CreateFaxProgressChunkEv @ 472 NONAME
	_ZN9CCallBase22DeleteFaxProgressChunkEv @ 473 NONAME
	_ZN9CCallBase23ResolveSubSessionHandleEmi @ 474 NONAME
	_ZN9CCallBase28CloseSubSessionPreProcessingEP11CTelSessioni @ 475 NONAME
	_ZN9CCallBase28RelinquishOwnershipCompletedEi @ 476 NONAME
	_ZN9CCallBase46RecoverDataPortAndRelinquishOwnershipCompletedEi @ 477 NONAME
	_ZN9CCallBase4InitEv @ 478 NONAME
	_ZN9CCallBase7ServiceERK9RMessage2P9CReqEntry @ 479 NONAME
	_ZN9CCallBase8ReqModeLEi @ 480 NONAME
	_ZN9CCallBaseC2Ev @ 481 NONAME
	_ZN9CCallBaseD0Ev @ 482 NONAME
	_ZN9CCallBaseD1Ev @ 483 NONAME
	_ZN9CCallBaseD2Ev @ 484 NONAME
	_ZN9CLineBase13CancelServiceEim @ 485 NONAME
	_ZN9CLineBase14NumberOfSlotsLEi @ 486 NONAME
	_ZN9CLineBase18OpenPostProcessingEP11CTelSessioni @ 487 NONAME
	_ZN9CLineBase28CloseSubSessionPreProcessingEP11CTelSessioni @ 488 NONAME
	_ZN9CLineBase4InitEv @ 489 NONAME
	_ZN9CLineBase7ServiceERK9RMessage2P9CReqEntry @ 490 NONAME
	_ZN9CLineBase8ReqModeLEi @ 491 NONAME
	_ZN9CLineBaseC2Ev @ 492 NONAME
	_ZN9CLineBaseD0Ev @ 493 NONAME
	_ZN9CLineBaseD1Ev @ 494 NONAME
	_ZN9CLineBaseD2Ev @ 495 NONAME
	_ZNK10CTelObject13ServerVersionEv @ 496 NONAME
	_ZNK10RPacketQoS20GetProfileParametersER14TRequestStatusR5TDes8 @ 497 NONAME
	_ZNK10RPacketQoS20NotifyProfileChangedER14TRequestStatusR5TDes8 @ 498 NONAME
	_ZNK10RPacketQoS20SetProfileParametersER14TRequestStatusR5TDes8 @ 499 NONAME
	_ZNK10RPacketQoS22GetProfileCapabilitiesER14TRequestStatusR5TDes8 @ 500 NONAME
	_ZNK10RTelServer10GetTsyNameEiR6TDes16 @ 501 NONAME
	_ZNK10RTelServer12GetPhoneInfoEiRNS_10TPhoneInfoE @ 502 NONAME
	_ZNK10RTelServer15EnumeratePhonesERi @ 503 NONAME
	_ZNK10RTelServer15LoadPhoneModuleERK7TDesC16 @ 504 NONAME
	_ZNK10RTelServer17SetPriorityClientEv @ 505 NONAME
	_ZNK10RTelServer17UnloadPhoneModuleERK7TDesC16 @ 506 NONAME
	_ZNK10RTelServer19GetTsyVersionNumberERK7TDesC16R8TVersion @ 507 NONAME
	_ZNK10RTelServer19IsSupportedByModuleERK7TDesC16iRi @ 508 NONAME
	_ZNK10RTelServer27SetExtendedErrorGranularityENS_17TErrorGranularityE @ 509 NONAME
	_ZNK11RMobileCall10GetUUSCapsERm @ 510 NONAME
	_ZNK11RMobileCall10GoOneToOneER14TRequestStatus @ 511 NONAME
	_ZNK11RMobileCall10ReceiveUUIER14TRequestStatusR4TBufILi129EE @ 512 NONAME
	_ZNK11RMobileCall10RejectCCBSEv @ 513 NONAME
	_ZNK11RMobileCall10SetPrivacyEN12RMobilePhone19TMobilePhonePrivacyE @ 514 NONAME
	_ZNK11RMobileCall11ActivateUUSER14TRequestStatusRK6TDesC8 @ 515 NONAME
	_ZNK11RMobileCall12ActivateCCBSER14TRequestStatus @ 516 NONAME
	_ZNK11RMobileCall13HangupWithUUIER14TRequestStatusRK4TBufILi129EE @ 517 NONAME
	_ZNK11RMobileCall14DeactivateCCBSER14TRequestStatus @ 518 NONAME
	_ZNK11RMobileCall15NotifyCallEventER14TRequestStatusRNS_16TMobileCallEventE @ 519 NONAME
	_ZNK11RMobileCall16AcceptCCBSRecallER14TRequestStatus @ 520 NONAME
	_ZNK11RMobileCall17DialEmergencyCallER14TRequestStatusRK7TDesC16 @ 521 NONAME
	_ZNK11RMobileCall17GetMobileCallCapsER5TDes8 @ 522 NONAME
	_ZNK11RMobileCall17GetMobileCallInfoER5TDes8 @ 523 NONAME
	_ZNK11RMobileCall17SetTrafficChannelENS_14TMobileCallTchE @ 524 NONAME
	_ZNK11RMobileCall19GetCurrentHscsdInfoER5TDes8 @ 525 NONAME
	_ZNK11RMobileCall19GetMobileCallStatusERNS_17TMobileCallStatusE @ 526 NONAME
	_ZNK11RMobileCall19NotifyUUSCapsChangeER14TRequestStatusRm @ 527 NONAME
	_ZNK11RMobileCall19NotifyVoiceFallbackER14TRequestStatusR4TBufILi128EE @ 528 NONAME
	_ZNK11RMobileCall21GetMobileDataCallCapsER5TDes8 @ 529 NONAME
	_ZNK11RMobileCall21NotifyHscsdInfoChangeER14TRequestStatusR5TDes8 @ 530 NONAME
	_ZNK11RMobileCall21SetDynamicHscsdParamsER14TRequestStatusNS_15TMobileCallAiurEi @ 531 NONAME
	_ZNK11RMobileCall21SwitchAlternatingCallER14TRequestStatus @ 532 NONAME
	_ZNK11RMobileCall25AnswerIncomingCallWithUUIER14TRequestStatusRK6TDesC8RK4TBufILi129EE @ 533 NONAME
	_ZNK11RMobileCall25GetMobileDataCallRLPRangeER14TRequestStatusiR5TDes8 @ 534 NONAME
	_ZNK11RMobileCall25NotifyPrivacyConfirmationER14TRequestStatusRN12RMobilePhone19TMobilePhonePrivacyE @ 535 NONAME
	_ZNK11RMobileCall26NotifyMobileCallCapsChangeER14TRequestStatusR5TDes8 @ 536 NONAME
	_ZNK11RMobileCall27NotifyAlternatingCallSwitchER14TRequestStatus @ 537 NONAME
	_ZNK11RMobileCall27NotifyRemotePartyInfoChangeER14TRequestStatusR5TDes8 @ 538 NONAME
	_ZNK11RMobileCall28NotifyMobileCallStatusChangeER14TRequestStatusRNS_17TMobileCallStatusE @ 539 NONAME
	_ZNK11RMobileCall30NotifyMobileDataCallCapsChangeER14TRequestStatusR5TDes8 @ 540 NONAME
	_ZNK11RMobileCall32NotifyTrafficChannelConfirmationER14TRequestStatusRNS_14TMobileCallTchE @ 541 NONAME
	_ZNK11RMobileCall4HoldER14TRequestStatus @ 542 NONAME
	_ZNK11RMobileCall4SwapER14TRequestStatus @ 543 NONAME
	_ZNK11RMobileCall6ResumeER14TRequestStatus @ 544 NONAME
	_ZNK11RMobileCall7DeflectER14TRequestStatusNS_18TMobileCallDeflectERKN12RMobilePhone14TMobileAddressE @ 545 NONAME
	_ZNK11RMobileCall7SendUUIER14TRequestStatusiRK4TBufILi129EE @ 546 NONAME
	_ZNK11RMobileCall8TransferER14TRequestStatus @ 547 NONAME
	_ZNK11RMobileLine19GetMobileLineStatusERN11RMobileCall17TMobileCallStatusE @ 548 NONAME
	_ZNK11RMobileLine28NotifyMobileLineStatusChangeER14TRequestStatusRN11RMobileCall17TMobileCallStatusE @ 549 NONAME
	_ZNK11TPacketBase11ExtensionIdEv @ 550 NONAME
	_ZNK12RMobilePhone10GetALSLineERNS_19TMobilePhoneALSLineE @ 551 NONAME
	_ZNK12RMobilePhone10GetPhoneIdER14TRequestStatusRNS_22TMobilePhoneIdentityV1E @ 552 NONAME
	_ZNK12RMobilePhone10SetALSLineER14TRequestStatusNS_19TMobilePhoneALSLineE @ 553 NONAME
	_ZNK12RMobilePhone11GetCostCapsERm @ 554 NONAME
	_ZNK12RMobilePhone11GetCostInfoER14TRequestStatusR5TDes8 @ 555 NONAME
	_ZNK12RMobilePhone11GetDTMFCapsERm @ 556 NONAME
	_ZNK12RMobilePhone11GetLockInfoER14TRequestStatusNS_16TMobilePhoneLockER5TDes8 @ 557 NONAME
	_ZNK12RMobilePhone11GetNITZInfoERNS_16TMobilePhoneNITZE @ 558 NONAME
	_ZNK12RMobilePhone12GetFdnStatusERNS_21TMobilePhoneFdnStatusE @ 559 NONAME
	_ZNK12RMobilePhone12GetIndicatorER14TRequestStatusRm @ 560 NONAME
	_ZNK12RMobilePhone12StopDTMFToneEv @ 561 NONAME
	_ZNK12RMobilePhone13GetCCBSStatusER14TRequestStatusRNS_22TMobilePhoneCCBSStatusENS_19TMobileInfoLocationE @ 562 NONAME
	_ZNK12RMobilePhone13GetSignalCapsERm @ 563 NONAME
	_ZNK12RMobilePhone13GetUUSSettingER14TRequestStatusRNS_22TMobilePhoneUUSSettingE @ 564 NONAME
	_ZNK12RMobilePhone13SelectNetworkER14TRequestStatusiRKNS_34TMobilePhoneNetworkManualSelectionE @ 565 NONAME
	_ZNK12RMobilePhone13SendDTMFTonesER14TRequestStatusRK7TDesC16 @ 566 NONAME
	_ZNK12RMobilePhone13SetFdnSettingER14TRequestStatusNS_22TMobilePhoneFdnSettingE @ 567 NONAME
	_ZNK12RMobilePhone13SetUUSSettingER14TRequestStatusNS_22TMobilePhoneUUSSettingE @ 568 NONAME
	_ZNK12RMobilePhone13StartDTMFToneE5TChar @ 569 NONAME
	_ZNK12RMobilePhone14ClearCostMeterER14TRequestStatusNS_22TMobilePhoneCostMetersE @ 570 NONAME
	_ZNK12RMobilePhone14GetBatteryCapsERm @ 571 NONAME
	_ZNK12RMobilePhone14GetBatteryInfoER14TRequestStatusRNS_25TMobilePhoneBatteryInfoV1E @ 572 NONAME
	_ZNK12RMobilePhone14GetCurrentModeERNS_23TMobilePhoneNetworkModeE @ 573 NONAME
	_ZNK12RMobilePhone14GetFeatureCodeER14TRequestStatusR6TDes16NS_26TMobilePhoneNetworkServiceENS_25TMobilePhoneServiceActionE @ 574 NONAME
	_ZNK12RMobilePhone14GetHomeNetworkER14TRequestStatusR5TDes8 @ 575 NONAME
	_ZNK12RMobilePhone14GetNetworkCapsERm @ 576 NONAME
	_ZNK12RMobilePhone14SetLockSettingER14TRequestStatusNS_16TMobilePhoneLockENS_23TMobilePhoneLockSettingE @ 577 NONAME
	_ZNK12RMobilePhone14TMultimodeType11ExtensionIdEv @ 578 NONAME
	_ZNK12RMobilePhone15GetIdentityCapsERm @ 579 NONAME
	_ZNK12RMobilePhone15GetSecurityCapsERm @ 580 NONAME
	_ZNK12RMobilePhone15GetServiceTableER14TRequestStatusNS_24TMobilePhoneServiceTableER5TDes8 @ 581 NONAME
	_ZNK12RMobilePhone15GetSubscriberIdER14TRequestStatusR4TBufILi15EE @ 582 NONAME
	_ZNK12RMobilePhone15SetMaxCostMeterER14TRequestStatusj @ 583 NONAME
	_ZNK12RMobilePhone16GetIccAccessCapsERm @ 584 NONAME
	_ZNK12RMobilePhone16GetIndicatorCapsERmS0_ @ 585 NONAME
	_ZNK12RMobilePhone16GetMultimodeCapsERm @ 586 NONAME
	_ZNK12RMobilePhone16NotifyModeChangeER14TRequestStatusRNS_23TMobilePhoneNetworkModeE @ 587 NONAME
	_ZNK12RMobilePhone17AbortSecurityCodeENS_24TMobilePhoneSecurityCodeE @ 588 NONAME
	_ZNK12RMobilePhone17DeactivateAllCCBSER14TRequestStatus @ 589 NONAME
	_ZNK12RMobilePhone17GetCurrentNetworkER14TRequestStatusR5TDes8RNS_26TMobilePhoneLocationAreaV1E @ 590 NONAME
	_ZNK12RMobilePhone17GetPhoneStoreInfoER14TRequestStatusR5TDes8RK7TDesC16 @ 591 NONAME
	_ZNK12RMobilePhone17GetSignalStrengthER14TRequestStatusRlRa @ 592 NONAME
	_ZNK12RMobilePhone18ChangeSecurityCodeER14TRequestStatusNS_24TMobilePhoneSecurityCodeERKNS_28TMobilePhonePasswordChangeV1E @ 593 NONAME
	_ZNK12RMobilePhone18GetCallServiceCapsERm @ 594 NONAME
	_ZNK12RMobilePhone18GetMulticallParamsER14TRequestStatusR5TDes8 @ 595 NONAME
	_ZNK12RMobilePhone18ProgramFeatureCodeER14TRequestStatusRK7TDesC16NS_26TMobilePhoneNetworkServiceENS_25TMobilePhoneServiceActionE @ 596 NONAME
	_ZNK12RMobilePhone18SetMulticallParamsER14TRequestStatusi @ 597 NONAME
	_ZNK12RMobilePhone18VerifySecurityCodeER14TRequestStatusNS_24TMobilePhoneSecurityCodeERK4TBufILi10EES6_ @ 598 NONAME
	_ZNK12RMobilePhone19GetIncomingCallTypeER14TRequestStatusRNS_28TMobilePhoneIncomingCallTypeER5TDes8 @ 599 NONAME
	_ZNK12RMobilePhone19NotifyALSLineChangeER14TRequestStatusRNS_19TMobilePhoneALSLineE @ 600 NONAME
	_ZNK12RMobilePhone19NotifySecurityEventER14TRequestStatusRNS_25TMobilePhoneSecurityEventE @ 601 NONAME
	_ZNK12RMobilePhone19SetIncomingCallTypeER14TRequestStatusNS_28TMobilePhoneIncomingCallTypeER5TDes8 @ 602 NONAME
	_ZNK12RMobilePhone20NotifyCostCapsChangeER14TRequestStatusRm @ 603 NONAME
	_ZNK12RMobilePhone20NotifyCostInfoChangeER14TRequestStatusR5TDes8 @ 604 NONAME
	_ZNK12RMobilePhone20NotifyDTMFCapsChangeER14TRequestStatusRm @ 605 NONAME
	_ZNK12RMobilePhone20NotifyLockInfoChangeER14TRequestStatusRNS_16TMobilePhoneLockER5TDes8 @ 606 NONAME
	_ZNK12RMobilePhone20NotifyMessageWaitingER14TRequestStatusRi @ 607 NONAME
	_ZNK12RMobilePhone20NotifyNITZInfoChangeER14TRequestStatusRNS_16TMobilePhoneNITZE @ 608 NONAME
	_ZNK12RMobilePhone20SetCallBarringStatusER14TRequestStatusNS_23TMobilePhoneCBConditionERKNS_22TMobilePhoneCBChangeV1E @ 609 NONAME
	_ZNK12RMobilePhone20SetCallWaitingStatusER14TRequestStatusNS_14TMobileServiceENS_25TMobilePhoneServiceActionE @ 610 NONAME
	_ZNK12RMobilePhone21NotifyFdnStatusChangeER14TRequestStatusRNS_21TMobilePhoneFdnStatusE @ 611 NONAME
	_ZNK12RMobilePhone21NotifyIndicatorChangeER14TRequestStatusRm @ 612 NONAME
	_ZNK12RMobilePhone22GetAlternatingCallCapsERm @ 613 NONAME
	_ZNK12RMobilePhone22GetAlternatingCallModeERNS_31TMobilePhoneAlternatingCallModeERNS_14TMobileServiceE @ 614 NONAME
	_ZNK12RMobilePhone22GetMultimodeAPIVersionERi @ 615 NONAME
	_ZNK12RMobilePhone22NotifyCCBSStatusChangeER14TRequestStatusRNS_22TMobilePhoneCCBSStatusE @ 616 NONAME
	_ZNK12RMobilePhone22NotifyStopInDTMFStringER14TRequestStatus @ 617 NONAME
	_ZNK12RMobilePhone22NotifyUUSSettingChangeER14TRequestStatusRNS_22TMobilePhoneUUSSettingE @ 618 NONAME
	_ZNK12RMobilePhone22SetAlternatingCallModeER14TRequestStatusNS_31TMobilePhoneAlternatingCallModeENS_14TMobileServiceE @ 619 NONAME
	_ZNK12RMobilePhone22SetCallBarringPasswordER14TRequestStatusRKNS_28TMobilePhonePasswordChangeV1E @ 620 NONAME
	_ZNK12RMobilePhone23NotifyBatteryInfoChangeER14TRequestStatusRNS_25TMobilePhoneBatteryInfoV1E @ 621 NONAME
	_ZNK12RMobilePhone23SetCallForwardingStatusER14TRequestStatusNS_23TMobilePhoneCFConditionERKNS_22TMobilePhoneCFChangeV1E @ 622 NONAME
	_ZNK12RMobilePhone24GetIdentityServiceStatusER14TRequestStatusNS_21TMobilePhoneIdServiceERNS_27TMobilePhoneIdServiceStatusENS_19TMobileInfoLocationE @ 623 NONAME
	_ZNK12RMobilePhone24NotifySecurityCapsChangeER14TRequestStatusRm @ 624 NONAME
	_ZNK12RMobilePhone25ContinueDTMFStringSendingEi @ 625 NONAME
	_ZNK12RMobilePhone25GetCustomerServiceProfileER14TRequestStatusR5TDes8 @ 626 NONAME
	_ZNK12RMobilePhone25NotifyIccAccessCapsChangeER14TRequestStatusRm @ 627 NONAME
	_ZNK12RMobilePhone25SendNetworkServiceRequestER14TRequestStatusRK7TDesC16 @ 628 NONAME
	_ZNK12RMobilePhone26GetNetworkSelectionSettingER5TDes8 @ 629 NONAME
	_ZNK12RMobilePhone26NotifyCallForwardingActiveER14TRequestStatusRNS_14TMobileServiceERNS_20TMobilePhoneCFActiveE @ 630 NONAME
	_ZNK12RMobilePhone26NotifyCurrentNetworkChangeER14TRequestStatusR5TDes8RNS_26TMobilePhoneLocationAreaV1E @ 631 NONAME
	_ZNK12RMobilePhone26NotifyDefaultPrivacyChangeER14TRequestStatusRNS_19TMobilePhonePrivacyE @ 632 NONAME
	_ZNK12RMobilePhone26NotifySignalStrengthChangeER14TRequestStatusRlRa @ 633 NONAME
	_ZNK12RMobilePhone26SetNetworkSelectionSettingER14TRequestStatusRK5TDes8 @ 634 NONAME
	_ZNK12RMobilePhone27NotifyCallServiceCapsChangeER14TRequestStatusRm @ 635 NONAME
	_ZNK12RMobilePhone27NotifyMulticallParamsChangeER14TRequestStatusR5TDes8 @ 636 NONAME
	_ZNK12RMobilePhone28GetNetworkRegistrationStatusER14TRequestStatusRNS_30TMobilePhoneRegistrationStatusE @ 637 NONAME
	_ZNK12RMobilePhone28NotifyIncomingCallTypeChangeER14TRequestStatusRNS_28TMobilePhoneIncomingCallTypeER5TDes8 @ 638 NONAME
	_ZNK12RMobilePhone29NotifyCallBarringStatusChangeER14TRequestStatusRNS_23TMobilePhoneCBConditionE @ 639 NONAME
	_ZNK12RMobilePhone29NotifyCallWaitingStatusChangeER14TRequestStatusR5TDes8 @ 640 NONAME
	_ZNK12RMobilePhone30GetIccMessageWaitingIndicatorsER14TRequestStatusR5TDes8 @ 641 NONAME
	_ZNK12RMobilePhone30SetIccMessageWaitingIndicatorsER14TRequestStatusRK6TDesC8 @ 642 NONAME
	_ZNK12RMobilePhone31NotifyAlternatingCallCapsChangeER14TRequestStatusRm @ 643 NONAME
	_ZNK12RMobilePhone31NotifyAlternatingCallModeChangeER14TRequestStatusRNS_31TMobilePhoneAlternatingCallModeERNS_14TMobileServiceE @ 644 NONAME
	_ZNK12RMobilePhone32NotifyCallForwardingStatusChangeER14TRequestStatusRNS_23TMobilePhoneCFConditionE @ 645 NONAME
	_ZNK12RMobilePhone35NotifyNetworkSelectionSettingChangeER14TRequestStatusR5TDes8 @ 646 NONAME
	_ZNK12RMobilePhone37NotifyNetworkRegistrationStatusChangeER14TRequestStatusRNS_30TMobilePhoneRegistrationStatusE @ 647 NONAME
	_ZNK12RMobilePhone39NotifyIccMessageWaitingIndicatorsChangeER14TRequestStatusR5TDes8 @ 648 NONAME
	_ZNK12RMobilePhone7SetPuctER14TRequestStatusRK6TDesC8 @ 649 NONAME
	_ZNK12TDataPackage4Ptr1Ev @ 650 NONAME
	_ZNK12TDataPackage4Ptr2Ev @ 651 NONAME
	_ZNK12TDataPackage5Des1nEv @ 652 NONAME
	_ZNK12TDataPackage5Des1uEv @ 653 NONAME
	_ZNK12TDataPackage5Des2nEv @ 654 NONAME
	_ZNK12TDataPackage5Des2uEv @ 655 NONAME
	_ZNK14RMobileONStore9StoreAllLER14TRequestStatusP18CMobilePhoneONList @ 656 NONAME
	_ZNK14RPacketContext10DeactivateER14TRequestStatus @ 657 NONAME
	_ZNK14RPacketContext12LoanCommPortER14TRequestStatusRN5RCall9TCommPortE @ 658 NONAME
	_ZNK14RPacketContext14GetProfileNameER4TBufILi128EE @ 659 NONAME
	_ZNK14RPacketContext15RecoverCommPortER14TRequestStatus @ 660 NONAME
	_ZNK14RPacketContext17GetLastErrorCauseERi @ 661 NONAME
	_ZNK14RPacketContext18GetConnectionSpeedER14TRequestStatusRj @ 662 NONAME
	_ZNK14RPacketContext19NotifyConfigChangedER14TRequestStatusR5TDes8 @ 663 NONAME
	_ZNK14RPacketContext21NotifyDataTransferredER14TRequestStatusRNS_11TDataVolumeEjj @ 664 NONAME
	_ZNK14RPacketContext24GetDataVolumeTransferredERNS_11TDataVolumeE @ 665 NONAME
	_ZNK14RPacketContext27NotifyConnectionSpeedChangeER14TRequestStatusRj @ 666 NONAME
	_ZNK14RPacketContext6DeleteER14TRequestStatus @ 667 NONAME
	_ZNK14RPacketContext8ActivateER14TRequestStatus @ 668 NONAME
	_ZNK14RPacketContext9GetConfigER14TRequestStatusR5TDes8 @ 669 NONAME
	_ZNK14RPacketContext9GetStatusERNS_14TContextStatusE @ 670 NONAME
	_ZNK14RPacketContext9SetConfigER14TRequestStatusRK6TDesC8 @ 671 NONAME
	_ZNK14RPacketService10GetMSClassER14TRequestStatusRNS_8TMSClassES3_ @ 672 NONAME
	_ZNK14RPacketService10SetMSClassER14TRequestStatusNS_8TMSClassE @ 673 NONAME
	_ZNK14RPacketService13GetAttachModeERNS_11TAttachModeE @ 674 NONAME
	_ZNK14RPacketService13GetStaticCapsERjN14RPacketContext13TProtocolTypeE @ 675 NONAME
	_ZNK14RPacketService13SetAttachModeENS_11TAttachModeE @ 676 NONAME
	_ZNK14RPacketService14GetContextInfoER14TRequestStatusiRNS_12TContextInfoE @ 677 NONAME
	_ZNK14RPacketService14GetDynamicCapsERj @ 678 NONAME
	_ZNK14RPacketService16GetNtwkRegStatusER14TRequestStatusRNS_19TRegistrationStatusE @ 679 NONAME
	_ZNK14RPacketService17EnumerateContextsER14TRequestStatusRiS2_ @ 680 NONAME
	_ZNK14RPacketService18GetPreferredBearerERNS_16TPreferredBearerE @ 681 NONAME
	_ZNK14RPacketService18NotifyContextAddedER14TRequestStatusR6TDes16 @ 682 NONAME
	_ZNK14RPacketService18NotifyStatusChangeER14TRequestStatusRNS_7TStatusE @ 683 NONAME
	_ZNK14RPacketService18SetPreferredBearerER14TRequestStatusNS_16TPreferredBearerE @ 684 NONAME
	_ZNK14RPacketService19NotifyMSClassChangeER14TRequestStatusRNS_8TMSClassE @ 685 NONAME
	_ZNK14RPacketService23GetDefaultContextParamsER5TDes8 @ 686 NONAME
	_ZNK14RPacketService23NotifyDynamicCapsChangeER14TRequestStatusRj @ 687 NONAME
	_ZNK14RPacketService23RejectActivationRequestER14TRequestStatus @ 688 NONAME
	_ZNK14RPacketService23SetDefaultContextParamsERK6TDesC8 @ 689 NONAME
	_ZNK14RPacketService27NotifyChangeOfNtwkRegStatusER14TRequestStatusRNS_19TRegistrationStatusE @ 690 NONAME
	_ZNK14RPacketService32NotifyContextActivationRequestedER14TRequestStatusR5TDes8 @ 691 NONAME
	_ZNK14RPacketService6AttachER14TRequestStatus @ 692 NONAME
	_ZNK14RPacketService6DetachER14TRequestStatus @ 693 NONAME
	_ZNK14RPacketService9GetStatusERNS_7TStatusE @ 694 NONAME
	_ZNK15RMobileNamStore12SetActiveNamER14TRequestStatusi @ 695 NONAME
	_ZNK15RMobileNamStore9StoreAllLER14TRequestStatusiP19CMobilePhoneNamList @ 696 NONAME
	_ZNK17CPhoneFactoryBase21QueryVersionSupportedERK8TVersion @ 697 NONAME
	_ZNK17RMobilePhoneStore16NotifyStoreEventER14TRequestStatusRmRi @ 698 NONAME
	_ZNK17RMobilePhoneStore4ReadER14TRequestStatusR5TDes8 @ 699 NONAME
	_ZNK17RMobilePhoneStore5WriteER14TRequestStatusR5TDes8 @ 700 NONAME
	_ZNK17RMobilePhoneStore6DeleteER14TRequestStatusi @ 701 NONAME
	_ZNK17RMobilePhoneStore7GetInfoER14TRequestStatusR5TDes8 @ 702 NONAME
	_ZNK17RMobilePhoneStore9DeleteAllER14TRequestStatus @ 703 NONAME
	_ZNK18RTelSubSessionBase16CancelSubSessionEv @ 704 NONAME
	_ZNK18RTelSubSessionBase18CancelAsyncRequestEi @ 705 NONAME
	_ZNK18RTelSubSessionBase3GetEiR14TRequestStatusR5TDes8NS_16TReqPriorityTypeE @ 706 NONAME
	_ZNK18RTelSubSessionBase3GetEiR14TRequestStatusR5TDes8R6TDes16NS_16TReqPriorityTypeE @ 707 NONAME
	_ZNK18RTelSubSessionBase3GetEiR14TRequestStatusR5TDes8S3_NS_16TReqPriorityTypeE @ 708 NONAME
	_ZNK18RTelSubSessionBase3GetEiR14TRequestStatusR6TDes16NS_16TReqPriorityTypeE @ 709 NONAME
	_ZNK18RTelSubSessionBase3GetEiR14TRequestStatusR6TDes16S3_NS_16TReqPriorityTypeE @ 710 NONAME
	_ZNK18RTelSubSessionBase3GetEiR5TDes8NS_16TReqPriorityTypeE @ 711 NONAME
	_ZNK18RTelSubSessionBase3GetEiR5TDes8R6TDes16NS_16TReqPriorityTypeE @ 712 NONAME
	_ZNK18RTelSubSessionBase3GetEiR5TDes8S1_NS_16TReqPriorityTypeE @ 713 NONAME
	_ZNK18RTelSubSessionBase3GetEiR6TDes16NS_16TReqPriorityTypeE @ 714 NONAME
	_ZNK18RTelSubSessionBase3GetEiR6TDes16S1_NS_16TReqPriorityTypeE @ 715 NONAME
	_ZNK18RTelSubSessionBase3SetEiR14TRequestStatusRK6TDesC8NS_16TReqPriorityTypeE @ 716 NONAME
	_ZNK18RTelSubSessionBase3SetEiR14TRequestStatusRK6TDesC8RK7TDesC16NS_16TReqPriorityTypeE @ 717 NONAME
	_ZNK18RTelSubSessionBase3SetEiR14TRequestStatusRK6TDesC8S4_NS_16TReqPriorityTypeE @ 718 NONAME
	_ZNK18RTelSubSessionBase3SetEiR14TRequestStatusRK7TDesC16NS_16TReqPriorityTypeE @ 719 NONAME
	_ZNK18RTelSubSessionBase3SetEiR14TRequestStatusRK7TDesC16S4_NS_16TReqPriorityTypeE @ 720 NONAME
	_ZNK18RTelSubSessionBase3SetEiRK6TDesC8NS_16TReqPriorityTypeE @ 721 NONAME
	_ZNK18RTelSubSessionBase3SetEiRK6TDesC8RK7TDesC16NS_16TReqPriorityTypeE @ 722 NONAME
	_ZNK18RTelSubSessionBase3SetEiRK6TDesC8S2_NS_16TReqPriorityTypeE @ 723 NONAME
	_ZNK18RTelSubSessionBase3SetEiRK7TDesC16NS_16TReqPriorityTypeE @ 724 NONAME
	_ZNK18RTelSubSessionBase3SetEiRK7TDesC16S2_NS_16TReqPriorityTypeE @ 725 NONAME
	_ZNK18RTelSubSessionBase5BlankEiNS_16TReqPriorityTypeE @ 726 NONAME
	_ZNK18RTelSubSessionBase5BlankEiR14TRequestStatusNS_16TReqPriorityTypeE @ 727 NONAME
	_ZNK18RTelSubSessionBase9CancelReqEii @ 728 NONAME
	_ZNK18RTelSubSessionBase9SetAndGetEiR14TRequestStatusR5TDes8RK7TDesC16NS_16TReqPriorityTypeE @ 729 NONAME
	_ZNK18RTelSubSessionBase9SetAndGetEiR14TRequestStatusRK6TDesC8R5TDes8NS_16TReqPriorityTypeE @ 730 NONAME
	_ZNK19RMobileSmsMessaging11SendMessageER14TRequestStatusRK6TDesC8R5TDes8 @ 731 NONAME
	_ZNK19RMobileSmsMessaging12AckSmsStoredER14TRequestStatusRK6TDesC8i @ 732 NONAME
	_ZNK19RMobileSmsMessaging13NackSmsStoredER14TRequestStatusRK6TDesC8i @ 733 NONAME
	_ZNK19RMobileSmsMessaging14GetMoSmsBearerERNS_16TMobileSmsBearerE @ 734 NONAME
	_ZNK19RMobileSmsMessaging14GetReceiveModeERNS_21TMobileSmsReceiveModeE @ 735 NONAME
	_ZNK19RMobileSmsMessaging14ReceiveMessageER14TRequestStatusR5TDes8S3_ @ 736 NONAME
	_ZNK19RMobileSmsMessaging14SetMoSmsBearerER14TRequestStatusNS_16TMobileSmsBearerE @ 737 NONAME
	_ZNK19RMobileSmsMessaging14SetReceiveModeER14TRequestStatusNS_21TMobileSmsReceiveModeE @ 738 NONAME
	_ZNK19RMobileSmsMessaging14StoreSmspListLER14TRequestStatusP20CMobilePhoneSmspList @ 739 NONAME
	_ZNK19RMobileSmsMessaging18ResumeSmsReceptionER14TRequestStatus @ 740 NONAME
	_ZNK19RMobileSmsMessaging19GetMessageStoreInfoER14TRequestStatusiR5TDes8 @ 741 NONAME
	_ZNK19RMobileSmsMessaging20NotifySmspListChangeER14TRequestStatus @ 742 NONAME
	_ZNK19RMobileSmsMessaging22EnumerateMessageStoresERi @ 743 NONAME
	_ZNK19RMobileSmsMessaging7GetCapsER5TDes8 @ 744 NONAME
	_ZNK20CMobilePhoneListBase12ExternalizeLER12RWriteStream @ 745 NONAME
	_ZNK20CMobilePhoneListBase16MaxNumberEntriesEv @ 746 NONAME
	_ZNK20CMobilePhoneListBase9EnumerateEv @ 747 NONAME
	_ZNK20CMobilePhoneListBase9GetEntryLEi @ 748 NONAME
	_ZNK20RMobileUssdMessaging11SendMessageER14TRequestStatusRK6TDesC8S4_ @ 749 NONAME
	_ZNK20RMobileUssdMessaging14ReceiveMessageER14TRequestStatusR5TDes8S3_ @ 750 NONAME
	_ZNK20RMobileUssdMessaging7GetCapsER5TDes8 @ 751 NONAME
	_ZNK21RMobileConferenceCall14EnumerateCallsERi @ 752 NONAME
	_ZNK21RMobileConferenceCall16CreateConferenceER14TRequestStatus @ 753 NONAME
	_ZNK21RMobileConferenceCall16NotifyCapsChangeER14TRequestStatusRm @ 754 NONAME
	_ZNK21RMobileConferenceCall17GetMobileCallInfoEiR5TDes8 @ 755 NONAME
	_ZNK21RMobileConferenceCall19GetConferenceStatusERNS_23TMobileConferenceStatusE @ 756 NONAME
	_ZNK21RMobileConferenceCall21NotifyConferenceEventER14TRequestStatusRNS_22TMobileConferenceEventER4TBufILi128EE @ 757 NONAME
	_ZNK21RMobileConferenceCall28NotifyConferenceStatusChangeER14TRequestStatusRNS_23TMobileConferenceStatusE @ 758 NONAME
	_ZNK21RMobileConferenceCall4SwapER14TRequestStatus @ 759 NONAME
	_ZNK21RMobileConferenceCall6HangUpER14TRequestStatus @ 760 NONAME
	_ZNK21RMobileConferenceCall7AddCallER14TRequestStatusRK4TBufILi128EE @ 761 NONAME
	_ZNK21RMobileConferenceCall7GetCapsERm @ 762 NONAME
	_ZNK21RMobilePhoneBookStore4ReadER14TRequestStatusiiR5TDes8 @ 763 NONAME
	_ZNK21RMobilePhoneBookStore5WriteER14TRequestStatusR5TDes8Ri @ 764 NONAME
	_ZNK25RMobileBroadcastMessaging14ReceiveMessageER14TRequestStatusR5TDes8S3_ @ 765 NONAME
	_ZNK25RMobileBroadcastMessaging16GetFilterSettingERNS_27TMobilePhoneBroadcastFilterE @ 766 NONAME
	_ZNK25RMobileBroadcastMessaging16SetFilterSettingER14TRequestStatusNS_27TMobilePhoneBroadcastFilterE @ 767 NONAME
	_ZNK25RMobileBroadcastMessaging17GetLanguageFilterER14TRequestStatusR6TDes16 @ 768 NONAME
	_ZNK25RMobileBroadcastMessaging17SetLanguageFilterER14TRequestStatusRK7TDesC16 @ 769 NONAME
	_ZNK25RMobileBroadcastMessaging25NotifyFilterSettingChangeER14TRequestStatusRNS_27TMobilePhoneBroadcastFilterE @ 770 NONAME
	_ZNK25RMobileBroadcastMessaging26NotifyLanguageFilterChangeER14TRequestStatusR6TDes16 @ 771 NONAME
	_ZNK25RMobileBroadcastMessaging27NotifyBroadcastIdListChangeER14TRequestStatus @ 772 NONAME
	_ZNK25RMobileBroadcastMessaging7GetCapsER5TDes8 @ 773 NONAME
	_ZNK4RFax16WaitForEndOfPageER14TRequestStatus @ 774 NONAME
	_ZNK4RFax19TerminateFaxSessionEv @ 775 NONAME
	_ZNK5RCall10DialCancelEv @ 776 NONAME
	_ZNK5RCall12HangUpCancelEv @ 777 NONAME
	_ZNK5RCall12LoanDataPortERNS_9TCommPortE @ 778 NONAME
	_ZNK5RCall13ConnectCancelEv @ 779 NONAME
	_ZNK5RCall13GetCallParamsER5TDes8 @ 780 NONAME
	_ZNK5RCall14GetFaxSettingsERNS_19TFaxSessionSettingsE @ 781 NONAME
	_ZNK5RCall14ReferenceCountEv @ 782 NONAME
	_ZNK5RCall14SetFaxSettingsERKNS_19TFaxSessionSettingsE @ 783 NONAME
	_ZNK5RCall15GetCallDurationER20TTimeIntervalSeconds @ 784 NONAME
	_ZNK5RCall15RecoverDataPortEv @ 785 NONAME
	_ZNK5RCall16AcquireOwnershipER14TRequestStatus @ 786 NONAME
	_ZNK5RCall17TransferOwnershipEv @ 787 NONAME
	_ZNK5RCall18AnswerIncomingCallERK6TDesC8 @ 788 NONAME
	_ZNK5RCall18AnswerIncomingCallEv @ 789 NONAME
	_ZNK5RCall18GetOwnershipStatusERNS_16TOwnershipStatusE @ 790 NONAME
	_ZNK5RCall18LoanDataPortCancelEv @ 791 NONAME
	_ZNK5RCall20GetBearerServiceInfoERNS_14TBearerServiceE @ 792 NONAME
	_ZNK5RCall22AcquireOwnershipCancelEv @ 793 NONAME
	_ZNK5RCall22NotifyCapsChangeCancelEv @ 794 NONAME
	_ZNK5RCall22NotifyHookChangeCancelEv @ 795 NONAME
	_ZNK5RCall24AnswerIncomingCallCancelEv @ 796 NONAME
	_ZNK5RCall24NotifyStatusChangeCancelEv @ 797 NONAME
	_ZNK5RCall30NotifyCallDurationChangeCancelEv @ 798 NONAME
	_ZNK5RCall4DialERK6TDesC8RK7TDesC16 @ 799 NONAME
	_ZNK5RCall4DialERK7TDesC16 @ 800 NONAME
	_ZNK5RCall6HangUpER14TRequestStatus @ 801 NONAME
	_ZNK5RCall6HangUpEv @ 802 NONAME
	_ZNK5RCall7ConnectERK6TDesC8 @ 803 NONAME
	_ZNK5RCall7ConnectEv @ 804 NONAME
	_ZNK5RCall7GetCapsERNS_5TCapsE @ 805 NONAME
	_ZNK5RCall7GetInfoERNS_9TCallInfoE @ 806 NONAME
	_ZNK5RCall9GetStatusERNS_7TStatusE @ 807 NONAME
	_ZNK5RLine11GetCallInfoEiRNS_9TCallInfoE @ 808 NONAME
	_ZNK5RLine13EnumerateCallERi @ 809 NONAME
	_ZNK5RLine13GetHookStatusERN5RCall11THookStatusE @ 810 NONAME
	_ZNK5RLine21NotifyCallAddedCancelEv @ 811 NONAME
	_ZNK5RLine22NotifyCapsChangeCancelEv @ 812 NONAME
	_ZNK5RLine22NotifyHookChangeCancelEv @ 813 NONAME
	_ZNK5RLine24NotifyIncomingCallCancelEv @ 814 NONAME
	_ZNK5RLine24NotifyStatusChangeCancelEv @ 815 NONAME
	_ZNK5RLine7GetCapsERNS_5TCapsE @ 816 NONAME
	_ZNK5RLine7GetInfoERNS_9TLineInfoE @ 817 NONAME
	_ZNK5RLine9GetStatusERN5RCall7TStatusE @ 818 NONAME
	_ZNK6RPhone11GetLineInfoEiRNS_9TLineInfoE @ 819 NONAME
	_ZNK6RPhone14EnumerateLinesERi @ 820 NONAME
	_ZNK6RPhone22NotifyCapsChangeCancelEv @ 821 NONAME
	_ZNK6RPhone25NotifyModemDetectedCancelEv @ 822 NONAME
	_ZNK6RPhone7GetCapsERNS_5TCapsE @ 823 NONAME
	_ZNK6RPhone7GetInfoERNS_10TPhoneInfoE @ 824 NONAME
	_ZNK6RPhone9GetStatusERNS_7TStatusE @ 825 NONAME
	_ZNK9CCallBase14CheckOwnershipEm @ 826 NONAME
	_ZNK9CCallBase19CheckPriorityClientEm @ 827 NONAME
	_ZNK9CCallBase23CheckOwnershipBySessionEP11CTelSessioni @ 828 NONAME
	_ZTI10CPhoneBase @ 829 NONAME
	_ZTI10CPtrHolder @ 830 NONAME
	_ZTI10CTelObject @ 831 NONAME
	_ZTI10CTelServer @ 832 NONAME
	_ZTI10RPacketQoS @ 833 NONAME
	_ZTI11CTelSession @ 834 NONAME
	_ZTI11RMobileCall @ 835 NONAME
	_ZTI11RMobileLine @ 836 NONAME
	_ZTI12CLibUnloader @ 837 NONAME
	_ZTI12CMmPtrHolder @ 838 NONAME
	_ZTI12RMobilePhone @ 839 NONAME
	_ZTI13CTelScheduler @ 840 NONAME
	_ZTI14CCallPtrHolder @ 841 NONAME
	_ZTI14RPacketContext @ 842 NONAME
	_ZTI14RPacketService @ 843 NONAME
	_ZTI16CPacketPtrHolder @ 844 NONAME
	_ZTI17CONStorePtrHolder @ 845 NONAME
	_ZTI17CPhoneFactoryBase @ 846 NONAME
	_ZTI17CTelSchedulerStop @ 847 NONAME
	_ZTI18CMobilePhoneCBList @ 848 NONAME
	_ZTI18CMobilePhoneCFList @ 849 NONAME
	_ZTI18CMobilePhoneCWList @ 850 NONAME
	_ZTI18CMobilePhoneENList @ 851 NONAME
	_ZTI18CMobilePhoneONList @ 852 NONAME
	_ZTI18CNamStorePtrHolder @ 853 NONAME
	_ZTI18CSubSessionExtBase @ 854 NONAME
	_ZTI19CMobilePhoneNamList @ 855 NONAME
	_ZTI19CPacketQoSPtrHolder @ 856 NONAME
	_ZTI19CQoSConfigChangeReq @ 857 NONAME
	_ZTI20CEtelPacketPtrHolder @ 858 NONAME
	_ZTI20CMobilePhoneCcbsList @ 859 NONAME
	_ZTI20CMobilePhoneListBase @ 860 NONAME
	_ZTI20CMobilePhoneSmspList @ 861 NONAME
	_ZTI22CCbsMessagingPtrHolder @ 862 NONAME
	_ZTI22CMobilePhoneGsmSmsList @ 863 NONAME
	_ZTI22CSmsMessagingPtrHolder @ 864 NONAME
	_ZTI23CAsyncRetrievePhoneList @ 865 NONAME
	_ZTI23CAsyncRetrieveStoreList @ 866 NONAME
	_ZTI23CContextConfigChangeReq @ 867 NONAME
	_ZTI23CContextStatusChangeReq @ 868 NONAME
	_ZTI23CDestroyDummySubSession @ 869 NONAME
	_ZTI23CMobilePhoneNetworkList @ 870 NONAME
	_ZTI23CPacketContextPtrHolder @ 871 NONAME
	_ZTI26CRetrieveMobilePhoneCBList @ 872 NONAME
	_ZTI26CRetrieveMobilePhoneCFList @ 873 NONAME
	_ZTI26CRetrieveMobilePhoneCWList @ 874 NONAME
	_ZTI26CRetrieveMobilePhoneENList @ 875 NONAME
	_ZTI26CRetrieveMobilePhoneONList @ 876 NONAME
	_ZTI27CMobilePhoneBroadcastIdList @ 877 NONAME
	_ZTI27CRetrieveMobilePhoneNamList @ 878 NONAME
	_ZTI27CRetrieveMobilePhoneSmsList @ 879 NONAME
	_ZTI28CMobilePhoneEditableListBase @ 880 NONAME
	_ZTI28CRetrieveMobilePhoneCcbsList @ 881 NONAME
	_ZTI28CRetrieveMobilePhoneSmspList @ 882 NONAME
	_ZTI34CAsyncRetrieveVariableLengthBuffer @ 883 NONAME
	_ZTI35CRetrieveMobilePhoneBroadcastIdList @ 884 NONAME
	_ZTI36CRetrieveMobilePhoneDetectedNetworks @ 885 NONAME
	_ZTI4RFax @ 886 NONAME
	_ZTI5RCall @ 887 NONAME
	_ZTI5RLine @ 888 NONAME
	_ZTI6RPhone @ 889 NONAME
	_ZTI7CBuffer @ 890 NONAME
	_ZTI8CFaxBase @ 891 NONAME
	_ZTI9CCallBase @ 892 NONAME
	_ZTI9CLineBase @ 893 NONAME
	_ZTI9CReqEntry @ 894 NONAME
	_ZTV10CPhoneBase @ 895 NONAME
	_ZTV10CPtrHolder @ 896 NONAME
	_ZTV10CTelObject @ 897 NONAME
	_ZTV10CTelServer @ 898 NONAME
	_ZTV10RPacketQoS @ 899 NONAME
	_ZTV11CTelSession @ 900 NONAME
	_ZTV11RMobileCall @ 901 NONAME
	_ZTV11RMobileLine @ 902 NONAME
	_ZTV12CLibUnloader @ 903 NONAME
	_ZTV12CMmPtrHolder @ 904 NONAME
	_ZTV12RMobilePhone @ 905 NONAME
	_ZTV13CTelScheduler @ 906 NONAME
	_ZTV14CCallPtrHolder @ 907 NONAME
	_ZTV14RPacketContext @ 908 NONAME
	_ZTV14RPacketService @ 909 NONAME
	_ZTV16CPacketPtrHolder @ 910 NONAME
	_ZTV17CONStorePtrHolder @ 911 NONAME
	_ZTV17CPhoneFactoryBase @ 912 NONAME
	_ZTV17CTelSchedulerStop @ 913 NONAME
	_ZTV18CMobilePhoneCBList @ 914 NONAME
	_ZTV18CMobilePhoneCFList @ 915 NONAME
	_ZTV18CMobilePhoneCWList @ 916 NONAME
	_ZTV18CMobilePhoneENList @ 917 NONAME
	_ZTV18CMobilePhoneONList @ 918 NONAME
	_ZTV18CNamStorePtrHolder @ 919 NONAME
	_ZTV18CSubSessionExtBase @ 920 NONAME
	_ZTV19CMobilePhoneNamList @ 921 NONAME
	_ZTV19CPacketQoSPtrHolder @ 922 NONAME
	_ZTV19CQoSConfigChangeReq @ 923 NONAME
	_ZTV20CEtelPacketPtrHolder @ 924 NONAME
	_ZTV20CMobilePhoneCcbsList @ 925 NONAME
	_ZTV20CMobilePhoneListBase @ 926 NONAME
	_ZTV20CMobilePhoneSmspList @ 927 NONAME
	_ZTV22CCbsMessagingPtrHolder @ 928 NONAME
	_ZTV22CMobilePhoneGsmSmsList @ 929 NONAME
	_ZTV22CSmsMessagingPtrHolder @ 930 NONAME
	_ZTV23CAsyncRetrievePhoneList @ 931 NONAME
	_ZTV23CAsyncRetrieveStoreList @ 932 NONAME
	_ZTV23CContextConfigChangeReq @ 933 NONAME
	_ZTV23CContextStatusChangeReq @ 934 NONAME
	_ZTV23CDestroyDummySubSession @ 935 NONAME
	_ZTV23CMobilePhoneNetworkList @ 936 NONAME
	_ZTV23CPacketContextPtrHolder @ 937 NONAME
	_ZTV26CRetrieveMobilePhoneCBList @ 938 NONAME
	_ZTV26CRetrieveMobilePhoneCFList @ 939 NONAME
	_ZTV26CRetrieveMobilePhoneCWList @ 940 NONAME
	_ZTV26CRetrieveMobilePhoneENList @ 941 NONAME
	_ZTV26CRetrieveMobilePhoneONList @ 942 NONAME
	_ZTV27CMobilePhoneBroadcastIdList @ 943 NONAME
	_ZTV27CRetrieveMobilePhoneNamList @ 944 NONAME
	_ZTV27CRetrieveMobilePhoneSmsList @ 945 NONAME
	_ZTV28CMobilePhoneEditableListBase @ 946 NONAME
	_ZTV28CRetrieveMobilePhoneCcbsList @ 947 NONAME
	_ZTV28CRetrieveMobilePhoneSmspList @ 948 NONAME
	_ZTV34CAsyncRetrieveVariableLengthBuffer @ 949 NONAME
	_ZTV35CRetrieveMobilePhoneBroadcastIdList @ 950 NONAME
	_ZTV36CRetrieveMobilePhoneDetectedNetworks @ 951 NONAME
	_ZTV4RFax @ 952 NONAME
	_ZTV5RCall @ 953 NONAME
	_ZTV5RLine @ 954 NONAME
	_ZTV6RPhone @ 955 NONAME
	_ZTV7CBuffer @ 956 NONAME
	_ZTV8CFaxBase @ 957 NONAME
	_ZTV9CCallBase @ 958 NONAME
	_ZTV9CLineBase @ 959 NONAME
	_ZTV9CReqEntry @ 960 NONAME
	_ZThn28_N10CPhoneBase13CancelServiceEim @ 961 NONAME
	_ZThn28_N10CPhoneBase14NumberOfSlotsLEi @ 962 NONAME
	_ZThn28_N10CPhoneBase8ReqModeLEi @ 963 NONAME
	_ZThn28_N10CTelObject12ReqCompletedEmi @ 964 NONAME
	_ZThn28_N10CTelObject12UpCallOptionEiPv @ 965 NONAME
	_ZThn28_N10CTelObject14DownCallOptionEiPv @ 966 NONAME
	_ZThn28_N10CTelObject17FlowControlResumeEv @ 967 NONAME
	_ZThn28_N10CTelObject18FlowControlSuspendEv @ 968 NONAME
	_ZThn28_N8CFaxBase13CancelServiceEim @ 969 NONAME
	_ZThn28_N8CFaxBase14NumberOfSlotsLEi @ 970 NONAME
	_ZThn28_N8CFaxBase14OpenNewObjectLER6TDes16 @ 971 NONAME
	_ZThn28_N8CFaxBase20OpenNewObjectByNameLERK7TDesC16 @ 972 NONAME
	_ZThn28_N8CFaxBase4InitEv @ 973 NONAME
	_ZThn28_N8CFaxBase8ReqModeLEi @ 974 NONAME
	_ZThn28_N9CCallBase13CancelServiceEim @ 975 NONAME
	_ZThn28_N9CCallBase14NumberOfSlotsLEi @ 976 NONAME
	_ZThn28_N9CCallBase4InitEv @ 977 NONAME
	_ZThn28_N9CCallBase8ReqModeLEi @ 978 NONAME
	_ZThn28_N9CLineBase13CancelServiceEim @ 979 NONAME
	_ZThn28_N9CLineBase14NumberOfSlotsLEi @ 980 NONAME
	_ZThn28_N9CLineBase4InitEv @ 981 NONAME
	_ZThn28_N9CLineBase8ReqModeLEi @ 982 NONAME
	_ZThn28_NK10CTelObject13ServerVersionEv @ 983 NONAME
	_ZThn28_NK17CPhoneFactoryBase21QueryVersionSupportedERK8TVersion @ 984 NONAME
	_ZThn60_N9CCallBase10SetUnownedEv @ 985 NONAME
	_ZThn60_N9CCallBase12SetOwnershipEm @ 986 NONAME
	_ZThn60_N9CCallBase22CreateFaxProgressChunkEv @ 987 NONAME
	_ZThn60_N9CCallBase22DeleteFaxProgressChunkEv @ 988 NONAME
	_ZThn60_N9CCallBase23ResolveSubSessionHandleEmi @ 989 NONAME
	_ZThn60_N9CCallBase28RelinquishOwnershipCompletedEi @ 990 NONAME
	_ZThn60_N9CCallBase46RecoverDataPortAndRelinquishOwnershipCompletedEi @ 991 NONAME
	_ZThn60_NK9CCallBase14CheckOwnershipEm @ 992 NONAME
	_ZThn60_NK9CCallBase19CheckPriorityClientEm @ 993 NONAME
	_ZN10RPacketQoS10ConstructLEv @ 994 NONAME
	_ZN10RPacketQoS8DestructEv @ 995 NONAME
	_ZN14RPacketContext10ConstructLEv @ 996 NONAME
	_ZN14RPacketContext23TProtocolConfigOptionV2C1Ev @ 997 NONAME
	_ZN14RPacketContext23TProtocolConfigOptionV2C2Ev @ 998 NONAME
	_ZN14RPacketContext8DestructEv @ 999 NONAME

