EXPORTS
	_Z10StartESOCKPv @ 1 NONAME
	_Z5Panic14TProtocolPanic @ 2 NONAME
	_ZN10CoreStates10TDoNothing12GetVTablePtrER6TDesC8Pv @ 3 NONAME
	_ZN10CoreStates10TDoNothing3DoLEv @ 4 NONAME
	_ZN10CoreStates11AErrorTagOr13TransitionTagERN5ESock18TCFNodeContextBaseE @ 5 NONAME
	_ZN10CoreStates11TClearError12GetVTablePtrER6TDesC8Pv @ 6 NONAME
	_ZN10CoreStates11TClearError3DoLEv @ 7 NONAME
	_ZN10CoreStates11TStoreError12GetVTablePtrER6TDesC8Pv @ 8 NONAME
	_ZN10CoreStates11TStoreError3DoLEv @ 9 NONAME
	_ZN10CoreStates12TNeverAccept12GetVTablePtrER6TDesC8Pv @ 10 NONAME
	_ZN10CoreStates12TPeerPresent12GetVTablePtrER6TDesC8Pv @ 11 NONAME
	_ZN10CoreStates13TAlwaysAccept12GetVTablePtrER6TDesC8Pv @ 12 NONAME
	_ZN10CoreStates13TAwaitingNULL12GetVTablePtrER6TDesC8Pv @ 13 NONAME
	_ZN10CoreStates13TAwaitingNULL6AcceptEv @ 14 NONAME
	_ZN10CoreStates13TRemoveClient12GetVTablePtrER6TDesC8Pv @ 15 NONAME
	_ZN10CoreStates13TRemoveClient3DoLEv @ 16 NONAME
	_ZN10CoreStates14ASetErrorState6AcceptERN5ESock18TCFNodeContextBaseEi @ 17 NONAME
	_ZN10CoreStates14TNoTagBackward12GetVTablePtrER6TDesC8Pv @ 18 NONAME
	_ZN10CoreStates14TNoTagOrNoPeer12GetVTablePtrER6TDesC8Pv @ 19 NONAME
	_ZN10CoreStates15TAwaitingCancel12GetVTablePtrER6TDesC8Pv @ 20 NONAME
	_ZN10CoreStates16TAwaitingDestroy12GetVTablePtrER6TDesC8Pv @ 21 NONAME
	_ZN10CoreStates16TNoTagOrErrorTag12GetVTablePtrER6TDesC8Pv @ 22 NONAME
	_ZN10CoreStates17AAcceptErrorState6AcceptERN5ESock18TCFNodeContextBaseEi @ 23 NONAME
	_ZN10CoreStates17AHandleErrorState6AcceptERN5ESock18TCFNodeContextBaseEi @ 24 NONAME
	_ZN10CoreStates17TNoTagOrNoClients12GetVTablePtrER6TDesC8Pv @ 25 NONAME
	_ZN10CoreStates18TPostToOriginators12GetVTablePtrER6TDesC8Pv @ 26 NONAME
	_ZN10CoreStates18TPostToOriginators3DoLEv @ 27 NONAME
	_ZN10CoreStates19ACancelOrErrorOrTag13TransitionTagERN5ESock18TCFNodeContextBaseEi @ 28 NONAME
	_ZN10CoreStates19TAbortAllActivities12GetVTablePtrER6TDesC8Pv @ 29 NONAME
	_ZN10CoreStates19TAbortAllActivities3DoLEv @ 30 NONAME
	_ZN10CoreStates19TRaiseActivityError12GetVTablePtrER6TDesC8Pv @ 31 NONAME
	_ZN10CoreStates19TRaiseActivityError3DoLEv @ 32 NONAME
	_ZN10CoreStates20TAwaitingClientLeave12GetVTablePtrER6TDesC8Pv @ 33 NONAME
	_ZN10CoreStates20TAwaitingClientLeave6AcceptEv @ 34 NONAME
	_ZN10CoreStates20TAwaitingStateChange12GetVTablePtrER6TDesC8Pv @ 35 NONAME
	_ZN10CoreStates21TAwaitingJoinComplete12GetVTablePtrER6TDesC8Pv @ 36 NONAME
	_ZN10CoreStates21TAwaitingJoinComplete6AcceptEv @ 37 NONAME
	_ZN10CoreStates21TSetIdleIfMoreClients12GetVTablePtrER6TDesC8Pv @ 38 NONAME
	_ZN10CoreStates21TSetIdleIfMoreClients3DoLEv @ 39 NONAME
	_ZN10CoreStates22TAwaitingLeaveComplete12GetVTablePtrER6TDesC8Pv @ 40 NONAME ABSENT
	_ZN10CoreStates25TRetryOrIgnoreOrPropagate12GetVTablePtrER6TDesC8Pv @ 41 NONAME
	_ZN10CoreStates27TRaiseAndClearActivityError12GetVTablePtrER6TDesC8Pv @ 42 NONAME
	_ZN10CoreStates27TRaiseAndClearActivityError3DoLEv @ 43 NONAME
	_ZN10CoreStates31TAbortAllActivitiesNodeDeletion12GetVTablePtrER6TDesC8Pv @ 44 NONAME
	_ZN10CoreStates31TAbortAllActivitiesNodeDeletion3DoLEv @ 45 NONAME
	_ZN10CoreStates37TAwaitingErrorRecoveryResponseOrError12GetVTablePtrER6TDesC8Pv @ 46 NONAME
	_ZN10CoreStates37TNoTagOrRecoverableErrorTagOrErrorTag12GetVTablePtrER6TDesC8Pv @ 47 NONAME
	_ZN10CoreStates6TNoTag12GetVTablePtrER6TDesC8Pv @ 48 NONAME
	_ZN10CoreStates6TPanic12GetVTablePtrER6TDesC8Pv @ 49 NONAME
	_ZN10CoreStates6TPanic3DoLEv @ 50 NONAME
	_ZN10CoreStates8TSetIdle12GetVTablePtrER6TDesC8Pv @ 51 NONAME
	_ZN10CoreStates8TSetIdle3DoLEv @ 52 NONAME
	_ZN10CoreStates9TErrorTag12GetVTablePtrER6TDesC8Pv @ 53 NONAME
	_ZN11RConnection11CancelIoctlEv @ 54 NONAME
	_ZN11RConnection13GetDesSettingERK7TDesC16R5TDes8 @ 55 NONAME
	_ZN11RConnection13GetDesSettingERK7TDesC16R6TDes16 @ 56 NONAME
	_ZN11RConnection13GetIntSettingERK7TDesC16Rm @ 57 NONAME
	_ZN11RConnection13GetParametersERN5ESock20CCommsDataObjectBaseE @ 58 NONAME
	_ZN11RConnection13SetParametersERN5ESock20CCommsDataObjectBaseE @ 59 NONAME
	_ZN11RConnection14GetBoolSettingERK7TDesC16Ri @ 60 NONAME
	_ZN11RConnection15WaitForIncomingER14RSubConnection @ 61 NONAME
	_ZN11RConnection15WaitForIncomingER14RSubConnectionR14TRequestStatus @ 62 NONAME
	_ZN11RConnection17GetConnectionInfoEjR5TDes8 @ 63 NONAME
	_ZN11RConnection17GetLongDesSettingERK7TDesC16R6TDes16 @ 64 NONAME
	_ZN11RConnection17LastProgressErrorER12TNifProgress @ 65 NONAME
	_ZN11RConnection20EnumerateConnectionsERj @ 66 NONAME
	_ZN11RConnection20GetSubConnectionInfoER5TDes8 @ 67 NONAME
	_ZN11RConnection20GetSubConnectionInfoEjR5TDes8 @ 68 NONAME
	_ZN11RConnection20ProgressNotificationER8TPckgBufI12TNifProgressER14TRequestStatusj @ 69 NONAME
	_ZN11RConnection20ProgressNotificationEjR8TPckgBufI12TNifProgressER14TRequestStatusj @ 70 NONAME
	_ZN11RConnection21CancelWaitForIncomingEv @ 71 NONAME
	_ZN11RConnection21DataTransferredCancelEj @ 72 NONAME
	_ZN11RConnection21DataTransferredCancelEv @ 73 NONAME
	_ZN11RConnection22DataTransferredRequestER5TPckgIjES2_R14TRequestStatus @ 74 NONAME
	_ZN11RConnection22DataTransferredRequestEjR5TPckgIjES2_R14TRequestStatus @ 75 NONAME
	_ZN11RConnection23EnumerateSubConnectionsERj @ 76 NONAME
	_ZN11RConnection24AllInterfaceNotificationER5TDes8R14TRequestStatus @ 77 NONAME
	_ZN11RConnection24IsConnectionActiveCancelEv @ 78 NONAME
	_ZN11RConnection25IsConnectionActiveRequestEjR5TPckgIiER14TRequestStatus @ 79 NONAME
	_ZN11RConnection25ServiceChangeNotificationERmR6TDes16R14TRequestStatus @ 80 NONAME
	_ZN11RConnection26CancelProgressNotificationEj @ 81 NONAME
	_ZN11RConnection26CancelProgressNotificationEv @ 82 NONAME
	_ZN11RConnection26DataSentNotificationCancelEj @ 83 NONAME
	_ZN11RConnection26DataSentNotificationCancelEv @ 84 NONAME
	_ZN11RConnection27DataSentNotificationRequestEjR5TPckgIjER14TRequestStatus @ 85 NONAME
	_ZN11RConnection27DataSentNotificationRequestEjjR5TPckgIjER14TRequestStatus @ 86 NONAME
	_ZN11RConnection27IsSubConnectionActiveCancelEj @ 87 NONAME
	_ZN11RConnection28AllSubConnectionNotificationER5TBuf8ILi512EER14TRequestStatus @ 88 NONAME
	_ZN11RConnection28IsSubConnectionActiveRequestEjjR5TPckgIiER14TRequestStatus @ 89 NONAME
	_ZN11RConnection30CancelAllInterfaceNotificationEv @ 90 NONAME
	_ZN11RConnection30DataReceivedNotificationCancelEj @ 91 NONAME
	_ZN11RConnection30DataReceivedNotificationCancelEv @ 92 NONAME
	_ZN11RConnection31CancelServiceChangeNotificationEv @ 93 NONAME
	_ZN11RConnection31DataReceivedNotificationRequestEjR5TPckgIjER14TRequestStatus @ 94 NONAME
	_ZN11RConnection31DataReceivedNotificationRequestEjjR5TPckgIjER14TRequestStatus @ 95 NONAME
	_ZN11RConnection34CancelAllSubConnectionNotificationEv @ 96 NONAME
	_ZN11RConnection4NameER4TBufILi128EE @ 97 NONAME
	_ZN11RConnection4OpenER11RSocketServR4TBufILi128EE @ 98 NONAME
	_ZN11RConnection4OpenER11RSocketServj @ 99 NONAME
	_ZN11RConnection4StopENS_13TConnStopTypeE @ 100 NONAME
	_ZN11RConnection4StopEj @ 101 NONAME
	_ZN11RConnection4StopEjNS_13TConnStopTypeE @ 102 NONAME
	_ZN11RConnection4StopEv @ 103 NONAME
	_ZN11RConnection5CloseEv @ 104 NONAME
	_ZN11RConnection5IoctlEjjR14TRequestStatus @ 105 NONAME
	_ZN11RConnection5IoctlEjjR14TRequestStatusP5TDes8 @ 106 NONAME
	_ZN11RConnection5StartER14TRequestStatus @ 107 NONAME
	_ZN11RConnection5StartER9TConnPref @ 108 NONAME
	_ZN11RConnection5StartER9TConnPrefR14TRequestStatus @ 109 NONAME
	_ZN11RConnection5StartEv @ 110 NONAME
	_ZN11RConnection6AttachERK6TDesC8NS_15TConnAttachTypeE @ 111 NONAME
	_ZN11RConnection6GetOptEjjRi @ 112 NONAME
	_ZN11RConnection6SetOptEjji @ 113 NONAME
	_ZN11RConnection7ControlEjjR5TDes8 @ 114 NONAME
	_ZN11RConnection8ProgressER12TNifProgress @ 115 NONAME
	_ZN11RConnection8ProgressEjR12TNifProgress @ 116 NONAME
	_ZN11RConnectionC1Ev @ 117 NONAME
	_ZN11RConnectionC2Ev @ 118 NONAME
	_ZN11RConnectionD0Ev @ 119 NONAME
	_ZN11RConnectionD1Ev @ 120 NONAME
	_ZN11RConnectionD2Ev @ 121 NONAME
	_ZN11RSocketServ12FindProtocolERK4TBufILi32EER13TProtocolDesc @ 122 NONAME
	_ZN11RSocketServ12NumProtocolsERj @ 123 NONAME
	_ZN11RSocketServ12StopProtocolEjjjR14TRequestStatus @ 124 NONAME
	_ZN11RSocketServ12__DbgControlERKN10ESockDebug11TControlMsgE @ 125 NONAME
	_ZN11RSocketServ12__DbgMarkEndEi @ 126 NONAME
	_ZN11RSocketServ13StartProtocolEjjjR14TRequestStatus @ 127 NONAME
	_ZN11RSocketServ13__DbgFailNextEi @ 128 NONAME
	_ZN11RSocketServ13__DbgMarkHeapEv @ 129 NONAME
	_ZN11RSocketServ14__DbgCheckHeapEi @ 130 NONAME
	_ZN11RSocketServ14__DbgCheckMbufEi @ 131 NONAME
	_ZN11RSocketServ15GetProtocolInfoEjR13TProtocolDesc @ 132 NONAME
	_ZN11RSocketServ16InstallExtensionERK7TDesC16S2_ @ 133 NONAME
	_ZN11RSocketServ16SetExclusiveModeER14TRequestStatus @ 134 NONAME
	_ZN11RSocketServ17__DbgFailNextMbufEi @ 135 NONAME
	_ZN11RSocketServ18ClearExclusiveModeEv @ 136 NONAME
	_ZN11RSocketServ18__DbgMbufFreeSpaceEv @ 137 NONAME
	_ZN11RSocketServ19__DbgMbufTotalSpaceEv @ 138 NONAME
	_ZN11RSocketServ21__DbgSetMbufPoolLimitEi @ 139 NONAME
	_ZN11RSocketServ7ConnectERK12TSessionPrefj @ 140 NONAME
	_ZN11RSocketServ7ConnectEj @ 141 NONAME
	_ZN11RSocketServC1Ev @ 142 NONAME
	_ZN11RSocketServC2Ev @ 143 NONAME
	_ZN11SocketTimer5QueueE27TTimeIntervalMicroSeconds32R16TDeltaTimerEntry @ 144 NONAME
	_ZN11SocketTimer6RemoveER16TDeltaTimerEntry @ 145 NONAME
	_ZN11TConnIdList6AppendEi @ 146 NONAME
	_ZN11TConnIdList8MaxCountEv @ 147 NONAME
	_ZN11TConnIdListC1Ev @ 148 NONAME
	_ZN11TConnIdListC2Ev @ 149 NONAME
	_ZN11TConnIdListixEi @ 150 NONAME
	_ZN12CSockManData10GetPlaneFCEmi @ 151 NONAME
	_ZN12CSockManData10SelfPlayerEv @ 152 NONAME
	_ZN12CSockManData15InstallFactoryLEN5ESock12EFactoryTypeERK6TDesC84TUid @ 153 NONAME
	_ZN12LittleEndian5Get16EPKh @ 154 NONAME
	_ZN12LittleEndian5Get32EPKh @ 155 NONAME
	_ZN12LittleEndian5Put16EPht @ 156 NONAME
	_ZN12LittleEndian5Put32EPhm @ 157 NONAME
	_ZN12PRActivities14CStartActivity38TAwaitingBindToRequestCompleteOrCancel12GetVTablePtrER6TDesC8Pv @ 158 NONAME
	_ZN12PRActivities14CStartActivity4NewLERKN5ESock15TCFNodeActivityERNS1_11ACFNodeBaseE @ 159 NONAME
	_ZN12PRActivities14CStartActivityD0Ev @ 160 NONAME
	_ZN12PRActivities14CStartActivityD1Ev @ 161 NONAME
	_ZN12PRActivities14CStartActivityD2Ev @ 162 NONAME
	_ZN12PRActivities16coreActivitiesTM4SelfEv @ 163 NONAME
	_ZN12PRActivities17coreActivitiesCpr4SelfEv @ 164 NONAME
	_ZN12PRActivities18coreActivitiesMCpr4SelfEv @ 165 NONAME
	_ZN12PRActivities18coreActivitiesSCpr4SelfEv @ 166 NONAME
	_ZN12PRActivities20CCommsBinderActivity11StoreBinderEPN5ESock14RNodeInterfaceE @ 167 NONAME
	_ZN12PRActivities20CCommsBinderActivity16TDataClientMutex9IsBlockedERN5ESock18TCFNodeContextBaseE @ 168 NONAME
	_ZN12PRActivities20CCommsBinderActivity19IsDataClientPresentERN5ESock18TCFNodeContextBaseEj @ 169 NONAME
	_ZN12PRActivities20CCommsBinderActivity19TNoTagOrUseExisting12GetVTablePtrER6TDesC8Pv @ 170 NONAME
	_ZN12PRActivities20CCommsBinderActivity19TNoTagOrUseExisting13TransitionTagEv @ 171 NONAME
	_ZN12PRActivities20CCommsBinderActivity19TSendBinderResponse12GetVTablePtrER6TDesC8Pv @ 172 NONAME
	_ZN12PRActivities20CCommsBinderActivity19TSendBinderResponse3DoLEv @ 173 NONAME
	_ZN12PRActivities20CCommsBinderActivity19TStorePendingBinder12GetVTablePtrER6TDesC8Pv @ 174 NONAME
	_ZN12PRActivities20CCommsBinderActivity19TStorePendingBinder3DoLEv @ 175 NONAME
	_ZN12PRActivities20CCommsBinderActivity23TAwaitingBindToComplete12GetVTablePtrER6TDesC8Pv @ 176 NONAME
	_ZN12PRActivities20CCommsBinderActivity23TAwaitingBindToComplete6AcceptEv @ 177 NONAME
	_ZN12PRActivities20CCommsBinderActivity23TDefaultDataClientMutex9IsBlockedERN5ESock18TCFNodeContextBaseE @ 178 NONAME
	_ZN12PRActivities20CCommsBinderActivity36TNoTagOrWaitForIncomingOrUseExisting12GetVTablePtrER6TDesC8Pv @ 179 NONAME
	_ZN12PRActivities20CCommsBinderActivity36TNoTagOrWaitForIncomingOrUseExisting13TransitionTagEv @ 180 NONAME
	_ZN12PRActivities20CCommsBinderActivity43TNoTagOrWaitForIncomingOrUseExistingDefault12GetVTablePtrER6TDesC8Pv @ 181 NONAME
	_ZN12PRActivities20CCommsBinderActivity43TNoTagOrWaitForIncomingOrUseExistingDefault13TransitionTagEv @ 182 NONAME
	_ZN12PRActivities20CCommsBinderActivity4NewLERKN5ESock15TCFNodeActivityERNS1_11ACFNodeBaseE @ 183 NONAME
	_ZN12PRActivities22CBindToRequestActivity17TCreateDataClient12GetVTablePtrER6TDesC8Pv @ 184 NONAME
	_ZN12PRActivities22CBindToRequestActivity18TSendBindToRequest12GetVTablePtrER6TDesC8Pv @ 185 NONAME
	_ZN12PRActivities22CBindToRequestActivity19TNoTagOrBearerReady12GetVTablePtrER6TDesC8Pv @ 186 NONAME
	_ZN12PRActivities22CBindToRequestActivity26TSendBindToRequestComplete12GetVTablePtrER6TDesC8Pv @ 187 NONAME
	_ZN12PRActivities22CBindToRequestActivity39TNoTagOrDataClientReadyOrBindToComplete12GetVTablePtrER6TDesC8Pv @ 188 NONAME
	_ZN12PRActivities22CBindToRequestActivity39TNoTagOrDataClientReadyOrBindToComplete13TransitionTagEv @ 189 NONAME
	_ZN12PRActivities22CBindToRequestActivity4NewLERKN5ESock15TCFNodeActivityERNS1_11ACFNodeBaseE @ 190 NONAME
	_ZN12PRActivities25CRejoinDataClientActivity12TApplyRejoin12GetVTablePtrER6TDesC8Pv @ 191 NONAME
	_ZN12PRActivities25CRejoinDataClientActivity14TRejoinLoopTag12GetVTablePtrER6TDesC8Pv @ 192 NONAME
	_ZN12PRActivities25CRejoinDataClientActivity17TRejoinDataClient12GetVTablePtrER6TDesC8Pv @ 193 NONAME
	_ZN12PRActivities25CRejoinDataClientActivity17TRejoinDataClient3DoLEv @ 194 NONAME
	_ZN12PRActivities25CRejoinDataClientActivity21TAwaitingJoinComplete12GetVTablePtrER6TDesC8Pv @ 195 NONAME
	_ZN12PRActivities25CRejoinDataClientActivity27TCFDataClientJoiningRequest9DispatchLERKN5ESock33TDataClientJoiningRequest_TplSpecEPNS2_7MCFNodeER6TPtrC8 @ 196 NONAME
	_ZN12PRActivities25CRejoinDataClientActivity4NewLERKN5ESock15TCFNodeActivityERNS1_11ACFNodeBaseE @ 197 NONAME
	_ZN12PRActivities9CNoBearer13GetOriginatorEv @ 198 NONAME
	_ZN12PRActivities9CNoBearer19ReturnInterfacePtrLERPN14CoreActivities16ABindingActivityE @ 199 NONAME
	_ZN12PRActivities9CNoBearer19TRequestCommsBinder12GetVTablePtrER6TDesC8Pv @ 200 NONAME
	_ZN12PRActivities9CNoBearer19TRequestCommsBinder3DoLEv @ 201 NONAME
	_ZN12PRActivities9CNoBearer21TServiceProviderMutex9IsBlockedERN5ESock18TCFNodeContextBaseE @ 202 NONAME
	_ZN12PRActivities9CNoBearer26TNoTagOrDataClientsToStart12GetVTablePtrER6TDesC8Pv @ 203 NONAME
	_ZN12PRActivities9CNoBearer27TStartOriginatingDataClient12GetVTablePtrER6TDesC8Pv @ 204 NONAME
	_ZN12PRActivities9CNoBearer4NewLERKN5ESock15TCFNodeActivityERNS1_11ACFNodeBaseE @ 205 NONAME
	_ZN12RNetDatabase3AddERK6TDesC8 @ 206 NONAME
	_ZN12RNetDatabase3AddERK6TDesC8R14TRequestStatus @ 207 NONAME
	_ZN12RNetDatabase4OpenER11RSocketServjj @ 208 NONAME
	_ZN12RNetDatabase5CloseEv @ 209 NONAME
	_ZN12RNetDatabase5QueryERK6TDesC8R5TDes8 @ 210 NONAME
	_ZN12RNetDatabase5QueryERK6TDesC8R5TDes8R14TRequestStatus @ 211 NONAME
	_ZN12RNetDatabase6CancelEv @ 212 NONAME
	_ZN12RNetDatabase6RemoveERK6TDesC8 @ 213 NONAME
	_ZN12RNetDatabase6RemoveERK6TDesC8R14TRequestStatus @ 214 NONAME
	_ZN12SocketServer25__DbgForceKillMBufManagerEv @ 215 NONAME
	_ZN12SocketServer26__DbgForceLoadMBufManagerLEv @ 216 NONAME
	_ZN12TSessionPrefC1Ev @ 217 NONAME
	_ZN12TSessionPrefC2Ev @ 218 NONAME
	_ZN13CESockIniData10ConstructLERK7TDesC16 @ 219 NONAME
	_ZN13CESockIniData4NewLEPKN7CommsFW13COwnEntryListE @ 220 NONAME
	_ZN13CESockIniData4NewLERK7TDesC16 @ 221 NONAME
	_ZN13CESockIniData7CommitLEv @ 222 NONAME
	_ZN13CESockIniData8WriteVarERK7TDesC16S2_S2_ @ 223 NONAME
	_ZN13CESockIniData8WriteVarERK7TDesC16S2_i @ 224 NONAME
	_ZN13CESockIniDataC1EPKN7CommsFW13COwnEntryListE @ 225 NONAME
	_ZN13CESockIniDataC1Ev @ 226 NONAME
	_ZN13CESockIniDataC2EPKN7CommsFW13COwnEntryListE @ 227 NONAME
	_ZN13CESockIniDataC2Ev @ 228 NONAME
	_ZN13CESockIniDataD0Ev @ 229 NONAME
	_ZN13CESockIniDataD1Ev @ 230 NONAME
	_ZN13CESockIniDataD2Ev @ 231 NONAME
	_ZN13CProtocolBase12StartSendingEPS_ @ 232 NONAME
	_ZN13CProtocolBase15NewNetDatabaseLEv @ 233 NONAME
	_ZN13CProtocolBase16NewHostResolverLEv @ 234 NONAME
	_ZN13CProtocolBase19NewServiceResolverLEv @ 235 NONAME
	_ZN13CProtocolBase3TagEv @ 236 NONAME
	_ZN13CProtocolBase4OpenEv @ 237 NONAME
	_ZN13CProtocolBase4SendER10RMBufChainPS_ @ 238 NONAME
	_ZN13CProtocolBase4SendER5TDes8P9TSockAddrS3_PS_ @ 239 NONAME
	_ZN13CProtocolBase5BindLEPS_j @ 240 NONAME
	_ZN13CProtocolBase5CloseEv @ 241 NONAME
	_ZN13CProtocolBase5ErrorEiPS_ @ 242 NONAME
	_ZN13CProtocolBase5InitLER7TDesC16 @ 243 NONAME
	_ZN13CProtocolBase6StartLEv @ 244 NONAME
	_ZN13CProtocolBase7BindToLEPS_ @ 245 NONAME
	_ZN13CProtocolBase7NewSAPLEj @ 246 NONAME
	_ZN13CProtocolBase7ProcessER10RMBufChainPS_ @ 247 NONAME
	_ZN13CProtocolBase7ProcessER5TDes8P9TSockAddrS3_PS_ @ 248 NONAME
	_ZN13CProtocolBase8CanCloseEv @ 249 NONAME
	_ZN13CProtocolBase8CloseNowEv @ 250 NONAME
	_ZN13CProtocolBase9GetOptionEjjR5TDes8PS_ @ 251 NONAME
	_ZN13CProtocolBase9SetOptionEjjRK6TDesC8PS_ @ 252 NONAME
	_ZN13CProtocolBaseC2Ev @ 253 NONAME
	_ZN13CProtocolBaseD0Ev @ 254 NONAME
	_ZN13CProtocolBaseD1Ev @ 255 NONAME
	_ZN13CProtocolBaseD2Ev @ 256 NONAME
	_ZN13CWorkerThread15CurrentWorkerIdERi @ 257 NONAME
	_ZN13CWorkerThread16ThreadEntrypointEPv @ 258 NONAME
	_ZN13CWorkerThread17CookieForProtocolEjjjRN7CommsFW7TCookieE @ 259 NONAME
	_ZN13CWorkerThread17CookieForWorkerIdEiRN7CommsFW7TCookieE @ 260 NONAME
	_ZN13CWorkerThread21ResolveWorkerNameToIdERK6TDesC8Ri @ 261 NONAME
	_ZN13CWorkerThread23CookieForProtocolByNameERK4TBufILi32EERN7CommsFW7TCookieE @ 262 NONAME
	_ZN13CoreNetStates10TStartSelf12GetVTablePtrER6TDesC8Pv @ 263 NONAME
	_ZN13CoreNetStates10TStartSelf3DoLEv @ 264 NONAME
	_ZN13CoreNetStates12TBearerReady12GetVTablePtrER6TDesC8Pv @ 265 NONAME
	_ZN13CoreNetStates12TSendStarted12GetVTablePtrER6TDesC8Pv @ 266 NONAME
	_ZN13CoreNetStates12TSendStarted3DoLEv @ 267 NONAME
	_ZN13CoreNetStates13TAddAuxClient12GetVTablePtrER6TDesC8Pv @ 268 NONAME
	_ZN13CoreNetStates13TAddAuxClient3DoLEv @ 269 NONAME
	_ZN13CoreNetStates13TAwaitingStop12GetVTablePtrER6TDesC8Pv @ 270 NONAME
	_ZN13CoreNetStates13TNoTagOnEvent12GetVTablePtrER6TDesC8Pv @ 271 NONAME
	_ZN13CoreNetStates13TSendNoBearer12GetVTablePtrER6TDesC8Pv @ 272 NONAME
	_ZN13CoreNetStates13TSendNoBearer3DoLEv @ 273 NONAME
	_ZN13CoreNetStates14TAddDataClient12GetVTablePtrER6TDesC8Pv @ 274 NONAME
	_ZN13CoreNetStates14TAddDataClient3DoLEv @ 275 NONAME
	_ZN13CoreNetStates14TAddDataClient5ErrorEi @ 276 NONAME
	_ZN13CoreNetStates14TAwaitingStart12GetVTablePtrER6TDesC8Pv @ 277 NONAME
	_ZN13CoreNetStates14TAwaitingStart6AcceptEv @ 278 NONAME
	_ZN13CoreNetStates14TBearerPresent12GetVTablePtrER6TDesC8Pv @ 279 NONAME
	_ZN13CoreNetStates15TAwaitingBindTo12GetVTablePtrER6TDesC8Pv @ 280 NONAME
	_ZN13CoreNetStates15TLayerCompleted12GetVTablePtrER6TDesC8Pv @ 281 NONAME
	_ZN13CoreNetStates16TAwaitingStarted12GetVTablePtrER6TDesC8Pv @ 282 NONAME
	_ZN13CoreNetStates16TAwaitingStarted6AcceptEv @ 283 NONAME
	_ZN13CoreNetStates16TAwaitingStopped12GetVTablePtrER6TDesC8Pv @ 284 NONAME
	_ZN13CoreNetStates16TAwaitingStopped6AcceptEv @ 285 NONAME
	_ZN13CoreNetStates16TNoTagOrNoBearer12GetVTablePtrER6TDesC8Pv @ 286 NONAME
	_ZN13CoreNetStates16TRemoveAuxClient12GetVTablePtrER6TDesC8Pv @ 287 NONAME
	_ZN13CoreNetStates16TRemoveAuxClient3DoLEv @ 288 NONAME
	_ZN13CoreNetStates17TAwaitingGoneDown12GetVTablePtrER6TDesC8Pv @ 289 NONAME
	_ZN13CoreNetStates17TAwaitingGoneDown6AcceptEv @ 290 NONAME
	_ZN13CoreNetStates17TAwaitingNoBearer12GetVTablePtrER6TDesC8Pv @ 291 NONAME
	_ZN13CoreNetStates17TAwaitingNoBearer6AcceptEv @ 292 NONAME
	_ZN13CoreNetStates17TSendApplyRequest12GetVTablePtrER6TDesC8Pv @ 293 NONAME
	_ZN13CoreNetStates17TSendApplyRequest3DoLEv @ 294 NONAME
	_ZN13CoreNetStates18TAwaitingProvision12GetVTablePtrER6TDesC8Pv @ 295 NONAME
	_ZN13CoreNetStates18TDataClientPresent12GetVTablePtrER6TDesC8Pv @ 296 NONAME
	_ZN13CoreNetStates18TNoTagOrNonDefault12GetVTablePtrER6TDesC8Pv @ 297 NONAME
	_ZN13CoreNetStates19TRequestCommsBinder12GetVTablePtrER6TDesC8Pv @ 298 NONAME
	_ZN13CoreNetStates19TRequestCommsBinder3DoLEv @ 299 NONAME
	_ZN13CoreNetStates19TSendBindToComplete12GetVTablePtrER6TDesC8Pv @ 300 NONAME
	_ZN13CoreNetStates19TSendBindToComplete3DoLEv @ 301 NONAME
	_ZN13CoreNetStates19TSendBindToResponse12GetVTablePtrER6TDesC8Pv @ 302 NONAME
	_ZN13CoreNetStates19TSendBindToResponse3DoLEv @ 303 NONAME
	_ZN13CoreNetStates19TSendDataClientIdle12GetVTablePtrER6TDesC8Pv @ 304 NONAME
	_ZN13CoreNetStates19TSendDataClientIdle3DoLEv @ 305 NONAME
	_ZN13CoreNetStates19TSendRejoinComplete12GetVTablePtrER6TDesC8Pv @ 306 NONAME
	_ZN13CoreNetStates19TSendRejoinComplete3DoLEv @ 307 NONAME
	_ZN13CoreNetStates20TAwaitingReBindLayer12GetVTablePtrER6TDesC8Pv @ 308 NONAME
	_ZN13CoreNetStates20TAwaitingReBindLayer6AcceptEv @ 309 NONAME
	_ZN13CoreNetStates20TAwaitingSubConEvent12GetVTablePtrER6TDesC8Pv @ 310 NONAME
	_ZN13CoreNetStates20TAwaitingSubConEvent6AcceptEv @ 311 NONAME
	_ZN13CoreNetStates20TNoTagOrUnbindOnStop12GetVTablePtrER6TDesC8Pv @ 312 NONAME
	_ZN13CoreNetStates20TNoTagOrUnbindOnStop13TransitionTagEv @ 313 NONAME
	_ZN13CoreNetStates21TNoTagOrBearerPresent12GetVTablePtrER6TDesC8Pv @ 314 NONAME
	_ZN13CoreNetStates21TNoTagOrBearerPresent13TransitionTagEv @ 315 NONAME
	_ZN13CoreNetStates21TNoTagOrNoDataClients12GetVTablePtrER6TDesC8Pv @ 316 NONAME
	_ZN13CoreNetStates21TSendDataClientActive12GetVTablePtrER6TDesC8Pv @ 317 NONAME
	_ZN13CoreNetStates21TSendDataClientActive3DoLEv @ 318 NONAME
	_ZN13CoreNetStates21TStartServiceProvider12GetVTablePtrER6TDesC8Pv @ 319 NONAME
	_ZN13CoreNetStates21TStartServiceProvider3DoLEv @ 320 NONAME
	_ZN13CoreNetStates22TAwaitingApplyResponse12GetVTablePtrER6TDesC8Pv @ 321 NONAME
	_ZN13CoreNetStates22TAwaitingApplyResponse6AcceptEv @ 322 NONAME
	_ZN13CoreNetStates22TAwaitingBindToRequest12GetVTablePtrER6TDesC8Pv @ 323 NONAME
	_ZN13CoreNetStates22TAwaitingBinderRequest12GetVTablePtrER6TDesC8Pv @ 324 NONAME
	_ZN13CoreNetStates22TAwaitingBinderRequest6AcceptEv @ 325 NONAME
	_ZN13CoreNetStates22TAwaitingParamResponse12GetVTablePtrER6TDesC8Pv @ 326 NONAME
	_ZN13CoreNetStates22TAwaitingParamResponse6AcceptEv @ 327 NONAME
	_ZN13CoreNetStates22TCancelDataClientStart12GetVTablePtrER6TDesC8Pv @ 328 NONAME
	_ZN13CoreNetStates22TCancelDataClientStart3DoLEv @ 329 NONAME
	_ZN13CoreNetStates23TAwaitingBindToComplete12GetVTablePtrER6TDesC8Pv @ 330 NONAME
	_ZN13CoreNetStates23TAwaitingBindToComplete6AcceptEv @ 331 NONAME
	_ZN13CoreNetStates23TAwaitingBindToOrCancel12GetVTablePtrER6TDesC8Pv @ 332 NONAME
	_ZN13CoreNetStates23TAwaitingBinderResponse12GetVTablePtrER6TDesC8Pv @ 333 NONAME
	_ZN13CoreNetStates23TAwaitingBinderResponse6AcceptEv @ 334 NONAME
	_ZN13CoreNetStates23TAwaitingDataClientIdle12GetVTablePtrER6TDesC8Pv @ 335 NONAME
	_ZN13CoreNetStates23TAwaitingDataClientIdle6AcceptEv @ 336 NONAME
	_ZN13CoreNetStates23TAwaitingDataClientJoin12GetVTablePtrER6TDesC8Pv @ 337 NONAME
	_ZN13CoreNetStates23TAwaitingDataClientJoin6AcceptEv @ 338 NONAME
	_ZN13CoreNetStates23TAwaitingDataClientStop12GetVTablePtrER6TDesC8Pv @ 339 NONAME
	_ZN13CoreNetStates23TAwaitingDataClientStop6AcceptEv @ 340 NONAME
	_ZN12PRActivities20CCommsBinderActivityC1ERKN5ESock15TCFNodeActivityERNS1_11ACFNodeBaseEj @ 341 NONAME
	_ZN12PRActivities20CCommsBinderActivityC2ERKN5ESock15TCFNodeActivityERNS1_11ACFNodeBaseEj @ 342 NONAME
	_ZN12PRActivities22CBindToRequestActivityC1ERKN5ESock15TCFNodeActivityERNS1_11ACFNodeBaseEi @ 343 NONAME
	_ZN12PRActivities22CBindToRequestActivityC2ERKN5ESock15TCFNodeActivityERNS1_11ACFNodeBaseEi @ 344 NONAME
	_ZN13CoreNetStates23TSendLowerLayerComplete12GetVTablePtrER6TDesC8Pv @ 345 NONAME
	_ZN13CoreNetStates23TSendLowerLayerComplete3DoLEv @ 346 NONAME
	_ZN13CoreNetStates24TAddDataClientAndRespond12GetVTablePtrER6TDesC8Pv @ 347 NONAME
	_ZN13CoreNetStates24TAddDataClientAndRespond3DoLEv @ 348 NONAME
	_ZN13CoreNetStates24TAwaitingBuildLowerLayer12GetVTablePtrER6TDesC8Pv @ 349 NONAME
	_ZN13CoreNetStates24TAwaitingBuildLowerLayer6AcceptEv @ 350 NONAME
	_ZN13CoreNetStates24TAwaitingDataClientStart12GetVTablePtrER6TDesC8Pv @ 351 NONAME
	_ZN13CoreNetStates24TAwaitingDataClientStart6AcceptEv @ 352 NONAME
	_ZN13CoreNetStates24TBindSelfToPresentBearer12GetVTablePtrER6TDesC8Pv @ 353 NONAME
	_ZN13CoreNetStates24TBindSelfToPresentBearer3DoLEv @ 354 NONAME
	_ZN13CoreNetStates24TForwardToControlClients12GetVTablePtrER6TDesC8Pv @ 355 NONAME
	_ZN13CoreNetStates25TAwaitingDataClientActive12GetVTablePtrER6TDesC8Pv @ 356 NONAME
	_ZN13CoreNetStates25TAwaitingDataClientActive6AcceptEv @ 357 NONAME
	_ZN13CoreNetStates25TAwaitingDataClientRejoin12GetVTablePtrER6TDesC8Pv @ 358 NONAME
	_ZN13CoreNetStates25TAwaitingDataClientRejoin6AcceptEv @ 359 NONAME
	_ZN13CoreNetStates25TForwardToControlProvider12GetVTablePtrER6TDesC8Pv @ 360 NONAME
	_ZN13CoreNetStates25TForwardToControlProvider3DoLEv @ 361 NONAME
	_ZN13CoreNetStates25TNoTagOrDataClientPresent12GetVTablePtrER6TDesC8Pv @ 362 NONAME
	_ZN13CoreNetStates25TNoTagOrDataClientsToStop12GetVTablePtrER6TDesC8Pv @ 363 NONAME
	_ZN13CoreNetStates26TAwaitingControlClientJoin12GetVTablePtrER6TDesC8Pv @ 364 NONAME
	_ZN13CoreNetStates26TAwaitingControlClientJoin6AcceptEv @ 365 NONAME
	_ZN13CoreNetStates26TAwaitingDataClientStarted12GetVTablePtrER6TDesC8Pv @ 366 NONAME
	_ZN13CoreNetStates26TAwaitingDataClientStarted6AcceptEv @ 367 NONAME
	_ZN13CoreNetStates26TAwaitingDataClientStopped12GetVTablePtrER6TDesC8Pv @ 368 NONAME
	_ZN13CoreNetStates26TAwaitingDataClientStopped6AcceptEv @ 369 NONAME
	_ZN13CoreNetStates27TAwaitingDataClientGoneDown12GetVTablePtrER6TDesC8Pv @ 370 NONAME
	_ZN13CoreNetStates27TAwaitingDataClientGoneDown6AcceptEv @ 371 NONAME
	_ZN13CoreNetStates27TAwaitingDataClientsStopped12GetVTablePtrER6TDesC8Pv @ 372 NONAME
	_ZN13CoreNetStates27TAwaitingDataClientsStopped6AcceptEv @ 373 NONAME
	_ZN13CoreNetStates27TAwaitingLowerLayerComplete12GetVTablePtrER6TDesC8Pv @ 374 NONAME
	_ZN13CoreNetStates27TAwaitingLowerLayerComplete6AcceptEv @ 375 NONAME
	_ZN13CoreNetStates27TNoTagOrNoDataClientsToStop12GetVTablePtrER6TDesC8Pv @ 376 NONAME
	_ZN13CoreNetStates27TSendLeaveCompleteIfRequest12GetVTablePtrER6TDesC8Pv @ 377 NONAME
	_ZN13CoreNetStates27TSendLeaveCompleteIfRequest3DoLEv @ 378 NONAME
	_ZN13CoreNetStates28TSetIdleIfNoServiceProviders12GetVTablePtrER6TDesC8Pv @ 379 NONAME
	_ZN13CoreNetStates28TSetIdleIfNoServiceProviders3DoLEv @ 380 NONAME
	_ZN13CoreNetStates29TAwaitingProviderStatusChange12GetVTablePtrER6TDesC8Pv @ 381 NONAME
	_ZN13CoreNetStates29TSendControlClientJoinRequest12GetVTablePtrER6TDesC8Pv @ 382 NONAME
	_ZN13CoreNetStates29TSendControlClientJoinRequest3DoLEv @ 383 NONAME
	_ZN13CoreNetStates30TAwaitingBindToRequestComplete12GetVTablePtrER6TDesC8Pv @ 384 NONAME
	_ZN13CoreNetStates30TAwaitingBindToRequestComplete6AcceptEv @ 385 NONAME
	_ZN13CoreNetStates30TAwaitingDataClientJoinRequest12GetVTablePtrER6TDesC8Pv @ 386 NONAME
	_ZN13CoreNetStates30TAwaitingDataClientJoinRequest6AcceptEv @ 387 NONAME
	_ZN13CoreNetStates30TSendDataClientIdleIfNoClients12GetVTablePtrER6TDesC8Pv @ 388 NONAME
	_ZN13CoreNetStates30TSendDataClientIdleIfNoClients3DoLEv @ 389 NONAME
	_ZN13CoreNetStates31TNoTagOrBearerPresentOrErrorTag12GetVTablePtrER6TDesC8Pv @ 390 NONAME
	_ZN13CoreNetStates21THandleDataClientIdle12GetVTablePtrER6TDesC8Pv @ 391 NONAME
	_ZN13CoreNetStates21THandleDataClientIdle3DoLEv @ 392 NONAME
	_ZN13CoreNetStates32TNoTagBackwardsOrProviderStopped12GetVTablePtrER6TDesC8Pv @ 393 NONAME
	_ZN13CoreNetStates32TNoTagBackwardsOrProviderStopped13TransitionTagEv @ 394 NONAME
	_ZN13CoreNetStates33TAwaitingReJoinDataClientComplete12GetVTablePtrER6TDesC8Pv @ 395 NONAME
	_ZN13CoreNetStates33TAwaitingReJoinDataClientComplete6AcceptEv @ 396 NONAME
	_ZN13CoreNetStates40TAwaitingDataClientRejoinOrApplyOrCancel12GetVTablePtrER6TDesC8Pv @ 397 NONAME
	_ZN13CoreNetStates40TAwaitingDataClientRejoinOrApplyOrCancel6AcceptEv @ 398 NONAME
	_ZN13CoreNetStates42TSendClientLeavingAndRemoveControlProvider12GetVTablePtrER6TDesC8Pv @ 399 NONAME
	_ZN13CoreNetStates42TSendClientLeavingAndRemoveControlProvider3DoLEv @ 400 NONAME
	_ZN13CoreNetStates42TSendClientLeavingAndRemoveServiceProvider12GetVTablePtrER6TDesC8Pv @ 401 NONAME
	_ZN13CoreNetStates42TSendClientLeavingAndRemoveServiceProvider3DoLEv @ 402 NONAME
	_ZN13CoreNetStates42TSendClientLeavingRequestToServiceProvider12GetVTablePtrER6TDesC8Pv @ 403 NONAME
	_ZN13CoreNetStates42TSendClientLeavingRequestToServiceProvider3DoLEv @ 404 NONAME
	_ZN13CoreNetStates43TSendClientLeavingRequestToServiceProviders12GetVTablePtrER6TDesC8Pv @ 405 NONAME
	_ZN13CoreNetStates43TSendClientLeavingRequestToServiceProviders3DoLEv @ 406 NONAME
	_ZN13CoreNetStates45TAddControlClientAndSendJoinCompleteIfRequest12GetVTablePtrER6TDesC8Pv @ 407 NONAME
	_ZN13CoreNetStates45TAddControlClientAndSendJoinCompleteIfRequest3DoLEv @ 408 NONAME
	_ZN13CoreNetStates62TSendClientLeavingAndRemoveControlProviderIfNoServiceProviders12GetVTablePtrER6TDesC8Pv @ 409 NONAME
	_ZN13CoreNetStates62TSendClientLeavingAndRemoveControlProviderIfNoServiceProviders3DoLEv @ 410 NONAME
	_ZN13CoreNetStates9TBindSelf12GetVTablePtrER6TDesC8Pv @ 411 NONAME
	_ZN13CoreNetStates9TBindSelf3DoLEv @ 412 NONAME
	_ZN13CoreNetStates9TSendStop12GetVTablePtrER6TDesC8Pv @ 413 NONAME
	_ZN13CoreNetStates9TSendStop3DoLEv @ 414 NONAME
	_ZN13CoreNetStates9TStopSelf12GetVTablePtrER6TDesC8Pv @ 415 NONAME
	_ZN13CoreNetStates9TStopSelf3DoLEv @ 416 NONAME
	_ZN13RHostResolver11GetHostNameER6TDes16 @ 417 NONAME
	_ZN13RHostResolver11GetHostNameER6TDes16R14TRequestStatus @ 418 NONAME
	_ZN13RHostResolver11SetHostNameERK7TDesC16 @ 419 NONAME
	_ZN13RHostResolver12GetByAddressERK9TSockAddrR8TPckgBufI11TNameRecordE @ 420 NONAME
	_ZN13RHostResolver12GetByAddressERK9TSockAddrR8TPckgBufI11TNameRecordER14TRequestStatus @ 421 NONAME
	_ZN13RHostResolver12QueryGetNextER5TDes8 @ 422 NONAME
	_ZN13RHostResolver12QueryGetNextER5TDes8R14TRequestStatus @ 423 NONAME
	_ZN13RHostResolver4NextER8TPckgBufI11TNameRecordE @ 424 NONAME
	_ZN13RHostResolver4NextER8TPckgBufI11TNameRecordER14TRequestStatus @ 425 NONAME
	_ZN13RHostResolver4OpenER11RSocketServjj @ 426 NONAME
	_ZN13RHostResolver4OpenER11RSocketServjjR11RConnection @ 427 NONAME
	_ZN13RHostResolver5CloseEv @ 428 NONAME
	_ZN13RHostResolver5QueryERK6TDesC8R5TDes8 @ 429 NONAME
	_ZN13RHostResolver5QueryERK6TDesC8R5TDes8R14TRequestStatus @ 430 NONAME
	_ZN13RHostResolver6CancelEv @ 431 NONAME
	_ZN13RHostResolver9GetByNameERK7TDesC16R8TPckgBufI11TNameRecordE @ 432 NONAME
	_ZN13RHostResolver9GetByNameERK7TDesC16R8TPckgBufI11TNameRecordER14TRequestStatus @ 433 NONAME
	_ZN13SocketServExt11OpenSessionEv @ 434 NONAME
	_ZN13SocketServExt12CloseSessionEv @ 435 NONAME
	_ZN13SocketServExt17InstallExtensionLERK7TDesC16S2_ @ 436 NONAME
	_ZN13SocketServExt20FindAndLoadProtocolLERK7TDesC1613TProtocolType @ 437 NONAME
	_ZN13SocketServExt20FindAndLoadProtocolLEjjj @ 438 NONAME
	_ZN13SocketServExt24InstallSchedulerWaitHookEP9TCallBack @ 439 NONAME
	_ZN13TConnSnapPref7SetSnapEm @ 440 NONAME
	_ZN13TConnSnapPrefC1Em @ 441 NONAME
	_ZN13TConnSnapPrefC1Ev @ 442 NONAME
	_ZN13TConnSnapPrefC2Em @ 443 NONAME
	_ZN13TConnSnapPrefC2Ev @ 444 NONAME
	_ZN13XParameterSet10UpdateWithERKS_ @ 445 NONAME
	_ZN13XParameterSet30CopyFieldsRequiredByQueryFromLERK20CParameterBundleBaseRKS_ @ 446 NONAME
	_ZN13XParameterSetD0Ev @ 447 NONAME
	_ZN13XParameterSetD1Ev @ 448 NONAME
	_ZN13XParameterSetD2Ev @ 449 NONAME
	_ZN14ConnectionServ15RConnectionServ22AccessPointStatusQueryERKNS_30CConnectionServParameterBundleERS1_R14TRequestStatus @ 450 NONAME
	_ZN14ConnectionServ15RConnectionServ23AccessPointNotificationERKNS_30CConnectionServParameterBundleERNS_32MAccessPointNotificationObserverE @ 451 NONAME
	_ZN14ConnectionServ15RConnectionServ28CancelAccessPointStatusQueryEv @ 452 NONAME
	_ZN14ConnectionServ15RConnectionServ29CancelAccessPointNotificationEv @ 453 NONAME
	_ZN14ConnectionServ15RConnectionServ5CloseEv @ 454 NONAME
	_ZN14ConnectionServ15RConnectionServ7ConnectEj @ 455 NONAME
	_ZN14ConnectionServ15RConnectionServC1Ev @ 456 NONAME
	_ZN14ConnectionServ15RConnectionServC2Ev @ 457 NONAME
	_ZN14ConnectionServ30CConnectionServParameterBundle18AddMatchConditionLERK16TAccessPointInfo @ 458 NONAME
	_ZN14ConnectionServ30CConnectionServParameterBundle18AddMatchConditionLERKNS_24TAccessPointStatusFilterE @ 459 NONAME
	_ZN14ConnectionServ30CConnectionServParameterBundle24AddParameterSetToReturnLERKN4Meta7STypeIdE @ 460 NONAME
	_ZN14ConnectionServ30CConnectionServParameterBundle25FindOrCreateGenericQueryLEv @ 461 NONAME
	_ZN14CoreActivities16ABindingActivity15StoreOriginatorERKN5ESock16TCFNodeChannelIdE @ 462 NONAME
	_ZN14CoreActivities16ABindingActivity17ReplyToOriginatorEi @ 463 NONAME
	_ZN14CoreActivities16ABindingActivity19TSendBindToComplete12GetVTablePtrER6TDesC8Pv @ 464 NONAME
	_ZN14CoreActivities16ABindingActivity19TSendBindToComplete3DoLEv @ 465 NONAME
	_ZN14CoreActivities16ABindingActivity29TSendBindToCompleteIfExpected12GetVTablePtrER6TDesC8Pv @ 466 NONAME
	_ZN14CoreActivities16ABindingActivity29TSendBindToCompleteIfExpected3DoLEv @ 467 NONAME
	_ZN14CoreActivities16ABindingActivityD0Ev @ 468 NONAME
	_ZN14CoreActivities16ABindingActivityD1Ev @ 469 NONAME
	_ZN14CoreActivities16ABindingActivityD2Ev @ 470 NONAME
	_ZN14CoreActivities16CDestroyActivity22TNoTagOrNoTagBackwards12GetVTablePtrER6TDesC8Pv @ 471 NONAME
	_ZN14CoreActivities16CDestroyActivity37TMakeClientsLeaveOrProcessClientLeave12GetVTablePtrER6TDesC8Pv @ 472 NONAME
	_ZN14CoreActivities16CDestroyActivity37TMakeClientsLeaveOrProcessClientLeave3DoLEv @ 473 NONAME
	_ZN14CoreActivities16CDestroyActivity4NewLERKN5ESock15TCFNodeActivityERNS1_11ACFNodeBaseE @ 474 NONAME
	_ZN14CoreActivities18ACountLoopActivity22TNoTagOrNoTagBackwards12GetVTablePtrER6TDesC8Pv @ 475 NONAME
	_ZN14CoreActivities18ACountLoopActivityD0Ev @ 476 NONAME
	_ZN14CoreActivities18ACountLoopActivityD1Ev @ 477 NONAME
	_ZN14CoreActivities18ACountLoopActivityD2Ev @ 478 NONAME
	_ZN14CoreActivities22CCountLoopActivityBase4NewLERKN5ESock15TCFNodeActivityERNS1_11ACFNodeBaseE @ 479 NONAME
	_ZN14CoreActivities22CCountLoopActivityBaseC1ERKN5ESock15TCFNodeActivityERNS1_11ACFNodeBaseE @ 480 NONAME
	_ZN14CoreActivities22CCountLoopActivityBaseC2ERKN5ESock15TCFNodeActivityERNS1_11ACFNodeBaseE @ 481 NONAME
	_ZN14CoreActivities22CCountLoopActivityBaseD0Ev @ 482 NONAME
	_ZN14CoreActivities22CCountLoopActivityBaseD1Ev @ 483 NONAME
	_ZN14CoreActivities22CCountLoopActivityBaseD2Ev @ 484 NONAME
	_ZN14RSubConnection13GetParametersER22RSubConParameterBundle @ 485 NONAME
	_ZN14RSubConnection13SetParametersERK22RSubConParameterBundle @ 486 NONAME
	_ZN14RSubConnection17EventNotificationER21TNotificationEventBufPNS_12TEventFilterEjR14TRequestStatus @ 487 NONAME
	_ZN14RSubConnection17EventNotificationER21TNotificationEventBufiR14TRequestStatus @ 488 NONAME
	_ZN14RSubConnection23CancelEventNotificationEv @ 489 NONAME
	_ZN14RSubConnection3AddER7RSocketR14TRequestStatus @ 490 NONAME
	_ZN14RSubConnection4OpenER11RSocketServN12TSubConnOpen12TSubConnTypeER11RConnection @ 491 NONAME
	_ZN14RSubConnection4OpenER11RSocketServNS_12TSubConnTypeER11RConnection @ 492 NONAME
	_ZN14RSubConnection4StopEv @ 493 NONAME
	_ZN14RSubConnection5CloseEv @ 494 NONAME
	_ZN14RSubConnection5StartER14TRequestStatus @ 495 NONAME
	_ZN14RSubConnection5StartEv @ 496 NONAME
	_ZN14RSubConnection6RemoveER7RSocketR14TRequestStatus @ 497 NONAME
	_ZN14RSubConnection7ControlEjjR5TDes8 @ 498 NONAME
	_ZN14RSubConnectionC1Ev @ 499 NONAME
	_ZN14RSubConnectionC2Ev @ 500 NONAME
	_ZN14SockManGlobals3GetEv @ 501 NONAME
	_ZN15TRequestWrapper15RequestCompleteEi @ 502 NONAME
	_ZN15TRequestWrapperC1ER14TRequestStatusi @ 503 NONAME
	_ZN15TRequestWrapperC1Ev @ 504 NONAME
	_ZN15TRequestWrapperC2ER14TRequestStatusi @ 505 NONAME
	_ZN15TRequestWrapperC2Ev @ 506 NONAME
	_ZN16ESockLogExternal6PrintfERK6TDesC8S2_11TRefByValueIS1_ERSt9__va_list @ 507 NONAME
	_ZN16ESockLogExternal6PrintfERK6TDesC8S2_11TRefByValueIS1_Ez @ 508 NONAME
	_ZN16RServiceResolver11GetByNumberEjR6TDes16 @ 509 NONAME
	_ZN16RServiceResolver11GetByNumberEjR6TDes16R14TRequestStatus @ 510 NONAME
	_ZN16RServiceResolver13RemoveServiceERK7TDesC16RKj @ 511 NONAME
	_ZN16RServiceResolver13RemoveServiceERK7TDesC16RKjR14TRequestStatus @ 512 NONAME
	_ZN16RServiceResolver15RegisterServiceERK7TDesC16RKj @ 513 NONAME
	_ZN16RServiceResolver15RegisterServiceERK7TDesC16RKjR14TRequestStatus @ 514 NONAME
	_ZN16RServiceResolver4OpenER11RSocketServjjj @ 515 NONAME
	_ZN16RServiceResolver5CloseEv @ 516 NONAME
	_ZN16RServiceResolver6CancelEv @ 517 NONAME
	_ZN16RServiceResolver9GetByNameERK7TDesC16R8TPckgBufIiE @ 518 NONAME
	_ZN16RServiceResolver9GetByNameERK7TDesC16R8TPckgBufIiER14TRequestStatus @ 519 NONAME
	_ZN17CConnDataTransfer15DataTransferredERjS0_ @ 520 NONAME
	_ZN17CConnDataTransfer15RegisterClientLER23MConnDataTransferNotify @ 521 NONAME
	_ZN17CConnDataTransfer16DeRegisterClientER23MConnDataTransferNotify @ 522 NONAME
	_ZN17CConnDataTransfer21DataTransferredCancelEv @ 523 NONAME
	_ZN17CConnDataTransfer26DataSentNotificationCancelEv @ 524 NONAME
	_ZN17CConnDataTransfer27DataSentNotificationRequestEjj @ 525 NONAME
	_ZN17CConnDataTransfer30DataReceivedNotificationCancelEv @ 526 NONAME
	_ZN17CConnDataTransfer31DataReceivedNotificationRequestEjj @ 527 NONAME
	_ZN17CConnDataTransferC2Ev @ 528 NONAME
	_ZN17CServProviderBase11SetSockTypeEj @ 529 NONAME
	_ZN17CServProviderBase13SecurityCheckEP21MProvdSecurityChecker @ 530 NONAME
	_ZN17CServProviderBase18JoinSubConnectionLERN5ESock26CSubConnectionProviderBaseE @ 531 NONAME
	_ZN17CServProviderBase18LeaveSubConnectionERN5ESock26CSubConnectionProviderBaseE @ 532 NONAME
	_ZN17CServProviderBase5WriteER10RMBufChainjP9TSockAddr @ 533 NONAME
	_ZN17CServProviderBase5WriteERK6TDesC8jP9TSockAddr @ 534 NONAME
	_ZN17CServProviderBase7GetDataER10RMBufChainjjP9TSockAddr @ 535 NONAME
	_ZN17CServProviderBase7GetDataER5TDes8jP9TSockAddr @ 536 NONAME
	_ZN17CServProviderBase9SetNotifyEP13MSocketNotify @ 537 NONAME
	_ZN17CServProviderBaseC2Ev @ 538 NONAME
	_ZN17CServProviderBaseD0Ev @ 539 NONAME
	_ZN17CServProviderBaseD1Ev @ 540 NONAME
	_ZN17CServProviderBaseD2Ev @ 541 NONAME
	_ZN17CoreErrorActivity9CoreError11FirstTripleEv @ 542 NONAME
	_ZN17CoreErrorActivity9CoreError4SelfEv @ 543 NONAME
	_ZN18CResolverProvdBase13SecurityCheckEP21MProvdSecurityChecker @ 544 NONAME
	_ZN18CSocketServExtBaseC2Ev @ 545 NONAME
	_ZN18CSocketServExtBaseD0Ev @ 546 NONAME
	_ZN18CSocketServExtBaseD1Ev @ 547 NONAME
	_ZN18CSocketServExtBaseD2Ev @ 548 NONAME
	_ZN18TCommsApiExtReqMsg9DispatchLERN13NetInterfaces17TInterfaceControlERKjRN8Elements12RResponseMsgE @ 549 NONAME
	_ZN19CCommsApiExtRespMsg4NewLERK6TDesC8 @ 550 NONAME
	_ZN19CCommsApiExtRespMsg4NewLERKN4Meta7STypeIdE @ 551 NONAME
	_ZN19CConnectionSettings14GetIntSettingLERK7TDesC16RmPK12RMessagePtr2 @ 552 NONAME
	_ZN19CConnectionSettings15GetBoolSettingLERK7TDesC16RiPK12RMessagePtr2 @ 553 NONAME
	_ZN19CConnectionSettings15GetDes8SettingLERK7TDesC16R5TDes8PK12RMessagePtr2 @ 554 NONAME
	_ZN19CConnectionSettings16GetDes16SettingLERK7TDesC16R6TDes16PK12RMessagePtr2 @ 555 NONAME
	_ZN19CConnectionSettings19GetLongDesSettingLCERK7TDesC16PK12RMessagePtr2 @ 556 NONAME
	_ZN19CConnectionSettingsC2Ev @ 557 NONAME
	_ZN19CProtocolFamilyBase4OpenEv @ 558 NONAME
	_ZN19CProtocolFamilyBase5CloseEv @ 559 NONAME
	_ZN19CProtocolFamilyBase6RemoveEv @ 560 NONAME
	_ZN19CProtocolFamilyBaseC2Ev @ 561 NONAME
	_ZN19CProtocolFamilyBaseD0Ev @ 562 NONAME
	_ZN19CProtocolFamilyBaseD1Ev @ 563 NONAME
	_ZN19CProtocolFamilyBaseD2Ev @ 564 NONAME
	_ZN19CSubConParameterSet4NewLERKN4Meta7STypeIdE @ 565 NONAME
	_ZN19TSubConnectionEventC1E23TSubConnectionEventTypej @ 566 NONAME
	_ZN19TSubConnectionEventC2E23TSubConnectionEventTypej @ 567 NONAME
	_ZN20CConnectionProvdBase14GetIntSettingLERK7TDesC16Rm @ 568 NONAME
	_ZN20CConnectionProvdBase14GetIntSettingLERK7TDesC16RmPK12RMessagePtr2 @ 569 NONAME
	_ZN20CConnectionProvdBase15GetBoolSettingLERK7TDesC16Ri @ 570 NONAME
	_ZN20CConnectionProvdBase15GetBoolSettingLERK7TDesC16RiPK12RMessagePtr2 @ 571 NONAME
	_ZN20CConnectionProvdBase15GetDes8SettingLERK7TDesC16R5TDes8 @ 572 NONAME
	_ZN20CConnectionProvdBase15GetDes8SettingLERK7TDesC16R5TDes8PK12RMessagePtr2 @ 573 NONAME
	_ZN20CConnectionProvdBase16GetDes16SettingLERK7TDesC16R6TDes16 @ 574 NONAME
	_ZN20CConnectionProvdBase16GetDes16SettingLERK7TDesC16R6TDes16PK12RMessagePtr2 @ 575 NONAME
	_ZN20CConnectionProvdBase19GetLongDesSettingLCERK7TDesC16 @ 576 NONAME
	_ZN20CConnectionProvdBase19GetLongDesSettingLCERK7TDesC16PK12RMessagePtr2 @ 577 NONAME
	_ZN20CConnectionProvdBase27SetConnectionProviderClientEP17MConnectionNotify @ 578 NONAME
	_ZN20CConnectionProvdBase7CreateLEP17MConnectionNotify @ 579 NONAME
	_ZN20CConnectionProvdBaseC2Ej @ 580 NONAME
	_ZN20CConnectionProvdBaseD0Ev @ 581 NONAME
	_ZN20CConnectionProvdBaseD1Ev @ 582 NONAME
	_ZN20CConnectionProvdBaseD2Ev @ 583 NONAME
	_ZN20CHostResolvProvdBase5QueryERK6TDesC8R5TDes8i @ 584 NONAME
	_ZN20CHostResolvProvdBase9SetOptionEjjRK6TDesC8 @ 585 NONAME
	_ZN20CParameterBundleBase16FindParameterSetERKN4Meta7STypeIdE @ 586 NONAME
	_ZN20CParameterBundleBase20GetParamSetContainerEi @ 587 NONAME
	_ZN20CParameterBundleBase21AddParamSetContainerLER22CParameterSetContainer @ 588 NONAME
	_ZN20CParameterBundleBase21FindParamSetContainerEm @ 589 NONAME
	_ZN20CParameterBundleBase25ReplaceParamSetContainerLEPK22CParameterSetContainerPS0_ @ 590 NONAME
	_ZN20CParameterBundleBaseD0Ev @ 591 NONAME
	_ZN20CParameterBundleBaseD1Ev @ 592 NONAME
	_ZN20CParameterBundleBaseD2Ev @ 593 NONAME
	_ZN20RCommsMobilityApiExt18NewCarrierAcceptedEv @ 594 NONAME
	_ZN20RCommsMobilityApiExt18NewCarrierRejectedEv @ 595 NONAME
	_ZN20RCommsMobilityApiExt22IgnorePreferredCarrierEv @ 596 NONAME
	_ZN20RCommsMobilityApiExt25MigrateToPreferredCarrierEv @ 597 NONAME
	_ZN20RCommsMobilityApiExt26CancelMobilityNotificationEv @ 598 NONAME
	_ZN20RCommsMobilityApiExt31RegisterForMobilityNotificationER5TDes8R14TRequestStatus @ 599 NONAME
	_ZN20RCommsMobilityApiExt5CloseEv @ 600 NONAME
	_ZN20RCommsMobilityApiExtC1Ev @ 601 NONAME
	_ZN20RCommsMobilityApiExtC2Ev @ 602 NONAME
	_ZN21CCommsMobilitySrvResp16NewCarrierActiveERPS_16TAccessPointInfoi @ 603 NONAME
	_ZN21CCommsMobilitySrvResp25PreferredCarrierAvailableERPS_16TAccessPointInfoS2_ii @ 604 NONAME
	_ZN21CCommsMobilitySrvResp5ErrorERPS_i @ 605 NONAME
	_ZN21PRClientLeaveActivity13PRClientLeave11FirstTripleEv @ 606 NONAME
	_ZN21PRClientLeaveActivity13PRClientLeave4SelfEv @ 607 NONAME
	_ZN21TNotificationEventBufC1Ev @ 608 NONAME
	_ZN21TNotificationEventBufC2Ev @ 609 NONAME
	_ZN21TNotificationEventBufD1Ev @ 610 NONAME
	_ZN21TNotificationEventBufD2Ev @ 611 NONAME
	_ZN22CParameterSetContainer10ConstructLER20CParameterBundleBase @ 612 NONAME
	_ZN22CParameterSetContainer15GetParameterSetEi @ 613 NONAME
	_ZN22CParameterSetContainer16AddParameterSetLEP13XParameterSet @ 614 NONAME
	_ZN22CParameterSetContainer16FindParameterSetERK13XParameterSet @ 615 NONAME
	_ZN22CParameterSetContainer16FindParameterSetERKN4Meta7STypeIdE @ 616 NONAME
	_ZN22CParameterSetContainer19DeleteParameterSetLEi @ 617 NONAME
	_ZN22CParameterSetContainer20ReplaceParameterSetLEiP13XParameterSet @ 618 NONAME
	_ZN22CParameterSetContainer4LoadER6TPtrC8 @ 619 NONAME
	_ZN22CParameterSetContainer4NewLER20CParameterBundleBasem @ 620 NONAME
	_ZN22CParameterSetContainer4NewLEm @ 621 NONAME
	_ZN22CParameterSetContainer5LoadLER20CParameterBundleBaseR6TPtrC8 @ 622 NONAME
	_ZN22CParameterSetContainer5LoadLER6TPtrC8 @ 623 NONAME
	_ZN22CParameterSetContainerD0Ev @ 624 NONAME
	_ZN22CParameterSetContainerD1Ev @ 625 NONAME
	_ZN22CParameterSetContainerD2Ev @ 626 NONAME
	_ZN22CSubConParameterBundle10AddFamilyLEP22CSubConParameterFamily @ 627 NONAME
	_ZN22CSubConParameterBundle10FindFamilyEm @ 628 NONAME
	_ZN22CSubConParameterBundle18ClearAllParametersEN22CSubConParameterFamily17TParameterSetTypeE @ 629 NONAME
	_ZN22CSubConParameterBundle4LoadERK6TDesC8 @ 630 NONAME
	_ZN22CSubConParameterBundle4NewLEv @ 631 NONAME
	_ZN22CSubConParameterBundle5LoadLER6TDesC8 @ 632 NONAME
	_ZN22CSubConParameterBundleD0Ev @ 633 NONAME
	_ZN22CSubConParameterBundleD1Ev @ 634 NONAME
	_ZN22CSubConParameterBundleD2Ev @ 635 NONAME
	_ZN22CSubConParameterFamily13GetGenericSetENS_17TParameterSetTypeE @ 636 NONAME
	_ZN22CSubConParameterFamily14SetGenericSetLER26CSubConGenericParameterSetNS_17TParameterSetTypeE @ 637 NONAME
	_ZN22CSubConParameterFamily16AddExtensionSetLER28CSubConExtensionParameterSetNS_17TParameterSetTypeE @ 638 NONAME
	_ZN22CSubConParameterFamily16FindExtensionSetE4TUidNS_17TParameterSetTypeE @ 639 NONAME
	_ZN22CSubConParameterFamily16FindExtensionSetEN4Meta7STypeIdENS_17TParameterSetTypeE @ 640 NONAME
	_ZN22CSubConParameterFamily18ClearAllParametersENS_17TParameterSetTypeE @ 641 NONAME
	_ZN22CSubConParameterFamily4LoadER6TPtrC8 @ 642 NONAME
	_ZN22CSubConParameterFamily4NewLER22CSubConParameterBundlem @ 643 NONAME
	_ZN22CSubConParameterFamily4NewLER22RSubConParameterBundlem @ 644 NONAME
	_ZN22CSubConParameterFamily5LoadLER22CSubConParameterBundleR6TPtrC8 @ 645 NONAME
	_ZN22CSubConParameterFamily5LoadLER22RSubConParameterBundleR6TPtrC8 @ 646 NONAME
	_ZN22CSubConParameterFamilyD0Ev @ 647 NONAME
	_ZN22CSubConParameterFamilyD1Ev @ 648 NONAME
	_ZN22CSubConParameterFamilyD2Ev @ 649 NONAME
	_ZN22RCommsApiExtensionBase11SendMessageER18TCommsApiExtReqMsg @ 650 NONAME
	_ZN22RCommsApiExtensionBase11SendRequestER18TCommsApiExtReqMsgR5TDes8R14TRequestStatus @ 651 NONAME
	_ZN22RCommsApiExtensionBase4OpenER13RCommsSession21TSupportedCommsApiExt @ 652 NONAME
	_ZN22RCommsApiExtensionBase4OpenER16RCommsSubSession21TSupportedCommsApiExt @ 653 NONAME
	_ZN22RCommsApiExtensionBase5CloseEv @ 654 NONAME
	_ZN22RCommsApiExtensionBaseC1Ev @ 655 NONAME
	_ZN22RCommsApiExtensionBaseC2Ev @ 656 NONAME
	_ZN22RSubConParameterBundle10AddFamilyLEP22CSubConParameterFamily @ 657 NONAME
	_ZN22RSubConParameterBundle10FindFamilyEm @ 658 NONAME
	_ZN22RSubConParameterBundle18ClearAllParametersEN22CSubConParameterFamily17TParameterSetTypeE @ 659 NONAME
	_ZN22RSubConParameterBundle4LoadERK6TDesC8 @ 660 NONAME
	_ZN22RSubConParameterBundle5CloseEv @ 661 NONAME
	_ZN22RSubConParameterBundleC1Ev @ 662 NONAME
	_ZN22RSubConParameterBundleC2Ev @ 663 NONAME
	_ZN24CSubConNotificationEvent4NewLERK21TNotificationEventBuf @ 664 NONAME
	_ZN24CSubConNotificationEvent4NewLERKN4Meta7STypeIdE @ 665 NONAME
	_ZN24PRDataClientIdleActivity16PRDataClientIdle11FirstTripleEv @ 666 NONAME
	_ZN24PRDataClientIdleActivity16PRDataClientIdle4SelfEv @ 667 NONAME
	_ZN24PRDataClientJoinActivity16PRDataClientJoin11FirstTripleEv @ 668 NONAME
	_ZN24PRDataClientJoinActivity16PRDataClientJoin4SelfEv @ 669 NONAME
	_ZN24PRDataClientStopActivity23TNoTagOrProviderStopped12GetVTablePtrER6TDesC8Pv @ 670 NONAME
	_ZN24PRDataClientStopActivity23TNoTagOrProviderStopped13TransitionTagEv @ 671 NONAME
	_ZN24XTierManagerFactoryQuery5MatchERN5ESock18TFactoryObjectInfoE @ 672 NONAME
	_ZN25TSubConnectionClosedEventC1Ev @ 673 NONAME
	_ZN25TSubConnectionClosedEventC2Ev @ 674 NONAME
	_ZN25TSubConnectionOpenedEventC1Ev @ 675 NONAME
	_ZN25TSubConnectionOpenedEventC2Ev @ 676 NONAME
	_ZN26CActiveCommsMobilityApiExt18NewCarrierAcceptedEv @ 677 NONAME
	_ZN26CActiveCommsMobilityApiExt18NewCarrierRejectedEv @ 678 NONAME
	_ZN26CActiveCommsMobilityApiExt22IgnorePreferredCarrierEv @ 679 NONAME
	_ZN26CActiveCommsMobilityApiExt25MigrateToPreferredCarrierEv @ 680 NONAME
	_ZN26CActiveCommsMobilityApiExt4NewLER16RCommsSubSessionR21MMobilityProtocolResp @ 681 NONAME
	_ZN26CActiveCommsMobilityApiExtD0Ev @ 682 NONAME
	_ZN26CActiveCommsMobilityApiExtD1Ev @ 683 NONAME
	_ZN26CActiveCommsMobilityApiExtD2Ev @ 684 NONAME
	_ZN26CSubConGenericParameterSetC2Ev @ 685 NONAME
	_ZN26CSubConGenericParameterSetD0Ev @ 686 NONAME
	_ZN26CSubConGenericParameterSetD1Ev @ 687 NONAME
	_ZN26CSubConGenericParameterSetD2Ev @ 688 NONAME
	_ZN26PRDataClientActiveActivity18PRDataClientActive11FirstTripleEv @ 689 NONAME
	_ZN26PRDataClientActiveActivity18PRDataClientActive4SelfEv @ 690 NONAME
	_ZN26RCommsDataMonitoringApiExt22RequestDataTransferredER5TDes8R14TRequestStatus @ 691 NONAME
	_ZN26RCommsDataMonitoringApiExt27RequestDataSentNotificationEmmR5TDes8R14TRequestStatus @ 692 NONAME
	_ZN26RCommsDataMonitoringApiExt28CancelDataTransferredRequestEv @ 693 NONAME
	_ZN26RCommsDataMonitoringApiExt31RequestDataReceivedNotificationEmmR5TDes8R14TRequestStatus @ 694 NONAME
	_ZN26RCommsDataMonitoringApiExt33CancelDataSentNotificationRequestEv @ 695 NONAME
	_ZN26RCommsDataMonitoringApiExt37CancelDataReceivedNotificationRequestEv @ 696 NONAME
	_ZN26RCommsDataMonitoringApiExt5CloseEv @ 697 NONAME
	_ZN26RCommsDataMonitoringApiExtC1Ev @ 698 NONAME
	_ZN26RCommsDataMonitoringApiExtC2Ev @ 699 NONAME
	_ZN27PRControlClientJoinActivity19PRControlClientJoin11FirstTripleEv @ 700 NONAME
	_ZN27PRControlClientJoinActivity19PRControlClientJoin4SelfEv @ 701 NONAME
	_ZN28CSubConExtensionParameterSetC2Ev @ 702 NONAME
	_ZN28CSubConExtensionParameterSetD0Ev @ 703 NONAME
	_ZN28CSubConExtensionParameterSetD1Ev @ 704 NONAME
	_ZN28CSubConExtensionParameterSetD2Ev @ 705 NONAME
	_ZN29TSubConnectionQoSChangedEventC1Ev @ 706 NONAME
	_ZN29TSubConnectionQoSChangedEventC2Ev @ 707 NONAME
	_ZN5ESock10TSigBundle19GetVDataTableStaticEv @ 708 NONAME
	_ZN5ESock10TSigNumber19GetVDataTableStaticEv @ 709 NONAME
	_ZN5ESock11AApiExtBase17FetchExtInterfaceE21TSupportedCommsApiExt @ 710 NONAME
	_ZN5ESock11AApiExtBase18FetchExtInterfaceLE21TSupportedCommsApiExt @ 711 NONAME
	_ZN5ESock11AApiExtBase24DoFetchInterfaceControlLE21TSupportedCommsApiExt @ 712 NONAME
	_ZN5ESock11AApiExtBase25FetchExtInterfaceControlLE21TSupportedCommsApiExt @ 713 NONAME
	_ZN5ESock11ACFNodeBase10AddClientLERKNS_8TCommsIdERNS_18TCFNodeContextBaseEiPv @ 714 NONAME
	_ZN5ESock11ACFNodeBase10AddClientLERKNS_8TCommsIdEiPv @ 715 NONAME
	_ZN5ESock11ACFNodeBase10ConstructLEv @ 716 NONAME
	_ZN5ESock11ACFNodeBase12PostReceivedERNS_18TCFNodeContextBaseE @ 717 NONAME
	_ZN5ESock11ACFNodeBase12RemoveClientERKNS_8TCommsIdE @ 718 NONAME
	_ZN5ESock11ACFNodeBase12RemoveClientERKNS_8TCommsIdERNS_18TCFNodeContextBaseE @ 719 NONAME
	_ZN5ESock11ACFNodeBase19NewClientInterfaceLEiPv @ 720 NONAME
	_ZN5ESock11ACFNodeBase19ReturnInterfacePtrLERPS0_ @ 721 NONAME
	_ZN5ESock11ACFNodeBase24FindActivityOriginatedByERNS_13TCFNodePeerIdE @ 722 NONAME
	_ZN5ESock11ACFNodeBase24HandleMessageReturnValueERNS_18TCFNodeContextBaseE @ 723 NONAME
	_ZN5ESock11ACFNodeBase24HandlePassThroughMessageERNS_18TCFNodeContextBaseE @ 724 NONAME
	_ZN5ESock11ACFNodeBase27AbortActivitiesOriginatedByERNS_18TCFNodeContextBaseERKNS_8TCommsIdEi @ 725 NONAME
	_ZN5ESock11ACFNodeBase9ReceivedLEPKNS_17TCFNodeSignalBase10TMessageIdERNS_18TCFNodeContextBaseE @ 726 NONAME
	_ZN5ESock11ACFNodeBaseC1ERKNS_18TCFNodeActivityMapERNS_7MCFNodeE @ 727 NONAME
	_ZN5ESock11ACFNodeBaseC2ERKNS_18TCFNodeActivityMapERNS_7MCFNodeE @ 728 NONAME
	_ZN5ESock11ACFNodeBaseD1Ev @ 729 NONAME
	_ZN5ESock11ACFNodeBaseD2Ev @ 730 NONAME
	_ZN5ESock11TSigCommsId19GetVDataTableStaticEv @ 731 NONAME
	_ZN5ESock12CNetworkFlowC2ERNS_29CSubConnectionFlowFactoryBaseERKNS_8TCommsIdEPNS_17CProtocolIntfBaseE @ 732 NONAME
	_ZN5ESock12CNetworkFlowD0Ev @ 733 NONAME
	_ZN5ESock12CNetworkFlowD1Ev @ 734 NONAME
	_ZN5ESock12CNetworkFlowD2Ev @ 735 NONAME
	_ZN5ESock13AContextStore11LoadContextERNS_11ACFNodeBaseEPNS_19CCFNodeActivityBaseER5TDes8S6_ @ 736 NONAME
	_ZN5ESock13AContextStore12StoreContextERKNS_18TCFNodeContextBaseE @ 737 NONAME
	_ZN5ESock13AContextStore5RetryERNS_19CCFNodeActivityBaseERNS_18TCFNodeContextBaseE @ 738 NONAME
	_ZN5ESock13MLowerControl7ControlEjjR5TDes8 @ 739 NONAME
	_ZN5ESock13MLowerControl7GetNameER6TDes16 @ 740 NONAME
	_ZN5ESock13MLowerControl9BlockFlowENS0_12TBlockOptionE @ 741 NONAME
	_ZN5ESock13MLowerControl9GetConfigER13TBinderConfig @ 742 NONAME
	_ZN5ESock13TProviderInfo16NullProviderInfoEv @ 743 NONAME
	_ZN5ESock13TSigAnyNumber19GetVDataTableStaticEv @ 744 NONAME
	_ZN5ESock13TSigRMessage219GetVDataTableStaticEv @ 745 NONAME
	_ZN5ESock14AFactoryObject11DeleteMeNowEv @ 746 NONAME
	_ZN5ESock14AFactoryObject17MarkMeForDeletionEv @ 747 NONAME
	_ZN5ESock14AFactoryObjectC1ERNS_17CCommsFactoryBaseE @ 748 NONAME
	_ZN5ESock14AFactoryObjectC2ERNS_17CCommsFactoryBaseE @ 749 NONAME
	_ZN5ESock14AFactoryObjectD0Ev @ 750 NONAME
	_ZN5ESock14AFactoryObjectD1Ev @ 751 NONAME
	_ZN5ESock14AFactoryObjectD2Ev @ 752 NONAME
	_ZN5ESock14RNodeInterface4OpenERKNS_8TCommsIdEj @ 753 NONAME
	_ZN5ESock14RNodeInterface5CloseEv @ 754 NONAME
	_ZN5ESock14RNodeInterfaceC1Ev @ 755 NONAME
	_ZN5ESock14RNodeInterfaceC2Ev @ 756 NONAME
	_ZN5ESock14TSigAddrUpdate19GetVDataTableStaticEv @ 757 NONAME
	_ZN5ESock14TSigCommsIdAny19GetVDataTableStaticEv @ 758 NONAME
	_ZN5ESock14TSigErrContext19GetVDataTableStaticEv @ 759 NONAME
	_ZN5ESock15ACFMMNodeIdBase24HandlePassThroughMessageERNS_18TCFNodeContextBaseE @ 760 NONAME
	_ZN5ESock15ACFMMNodeIdBase26FetchNodeInterfaceControlLE21TSupportedCommsApiExt @ 761 NONAME
	_ZN5ESock15TClientIterBase4FindERiii @ 762 NONAME
	_ZN5ESock15TClientIterBaseixEi @ 763 NONAME
	_ZN5ESock15TSelectionPrefs19GetVDataTableStaticEv @ 764 NONAME
	_ZN5ESock15TSelectionPrefsC1ENS0_15TSelectionScopeE @ 765 NONAME
	_ZN5ESock15TSelectionPrefsC1ERK9TConnPref @ 766 NONAME
	_ZN5ESock15TSelectionPrefsC1Ev @ 767 NONAME
	_ZN5ESock15TSelectionPrefsC2ENS0_15TSelectionScopeE @ 768 NONAME
	_ZN5ESock15TSelectionPrefsC2ERK9TConnPref @ 769 NONAME
	_ZN5ESock15TSelectionPrefsC2Ev @ 770 NONAME
	_ZN5ESock15TSigCommsBinder19GetVDataTableStaticEv @ 771 NONAME
	_ZN5ESock15TSigErrResponse19GetVDataTableStaticEv @ 772 NONAME
	_ZN5ESock15TSigMetaDataPtr19GetVDataTableStaticEv @ 773 NONAME
	_ZN5ESock15TSigStateChange19GetVDataTableStaticEv @ 774 NONAME
	_ZN5ESock16CCommsDatIapView17GetTimeoutValuesLERmS1_S1_ @ 775 NONAME
	_ZN5ESock16CCommsDatIapView24GetTableCommonTextFieldLENS0_8TFieldIdERP7HBufC16 @ 776 NONAME
	_ZN5ESock16CCommsDatIapView4NewLEj @ 777 NONAME
	_ZN5ESock16CCommsDatIapView5IapIdEv @ 778 NONAME
	_ZN5ESock16CCommsDatIapView5NewLCEj @ 779 NONAME
	_ZN5ESock16CCommsDatIapView6GetIntEmRi @ 780 NONAME
	_ZN5ESock16CCommsDatIapView6GetIntEmRm @ 781 NONAME
	_ZN5ESock16CCommsDatIapView7GetBoolEmRi @ 782 NONAME
	_ZN5ESock16CCommsDatIapView7GetIntLEmRi @ 783 NONAME
	_ZN5ESock16CCommsDatIapView7GetIntLEmRm @ 784 NONAME
	_ZN5ESock16CCommsDatIapView7GetTextEmRP6HBufC8 @ 785 NONAME
	_ZN5ESock16CCommsDatIapView7GetTextEmRP7HBufC16 @ 786 NONAME
	_ZN5ESock16CCommsDatIapView8GetBoolLEmRi @ 787 NONAME
	_ZN5ESock16CCommsDatIapView8GetTextLEmRP6HBufC8 @ 788 NONAME
	_ZN5ESock16CCommsDatIapView8GetTextLEmRP7HBufC16 @ 789 NONAME
	_ZN5ESock16CCommsDatIapViewD0Ev @ 790 NONAME
	_ZN5ESock16CCommsDatIapViewD1Ev @ 791 NONAME
	_ZN5ESock16CCommsDatIapViewD2Ev @ 792 NONAME
	_ZN5ESock16CTierManagerBaseC2ERNS_23CTierManagerFactoryBaseERKNS_18TCFNodeActivityMapE @ 793 NONAME
	_ZN5ESock16CTierManagerBaseD0Ev @ 794 NONAME
	_ZN5ESock16CTierManagerBaseD1Ev @ 795 NONAME
	_ZN5ESock16CTierManagerBaseD2Ev @ 796 NONAME
	_ZN5ESock16TCFSignatureBase19GetVDataTableStaticEv @ 797 NONAME
	_ZN5ESock16TCFSignatureBase5ErrorEPvi @ 798 NONAME
	_ZN5ESock16TCFSignatureBase9DispatchLEPvR6TPtrC8 @ 799 NONAME
	_ZN5ESock16TCFSignatureBaseC1ERKNS_17TCFNodeSignalBase10TMessageIdERKNS_8TCommsIdEj @ 800 NONAME
	_ZN5ESock16TCFSignatureBaseC1Ev @ 801 NONAME
	_ZN5ESock16TCFSignatureBaseC2ERKNS_17TCFNodeSignalBase10TMessageIdERKNS_8TCommsIdEj @ 802 NONAME
	_ZN5ESock16TCFSignatureBaseC2Ev @ 803 NONAME
	_ZN5ESock16TSigNumberNumber19GetVDataTableStaticEv @ 804 NONAME
	_ZN5ESock16TierManagerUtils11MapTierIdsLE4TUidj @ 805 NONAME
	_ZN5ESock16TierManagerUtils11ReadTierIdLEjRN8CommsDat11CMDBSessionE @ 806 NONAME
	_ZN5ESock16TierManagerUtils12ReadMCprUidLEjRN8CommsDat11CMDBSessionE @ 807 NONAME
	_ZN5ESock16TierManagerUtils14LoadCprRecordLEjRN8CommsDat11CMDBSessionE @ 808 NONAME
	_ZN5ESock16TierManagerUtils14LoadIapRecordLEjRN8CommsDat11CMDBSessionE @ 809 NONAME
	_ZN5ESock16TierManagerUtils15LoadIapRecordsLERN8CommsDat11CMDBSessionE @ 810 NONAME
	_ZN5ESock16TierManagerUtils15LoadMCprRecordLE4TUidRN8CommsDat11CMDBSessionE @ 811 NONAME
	_ZN5ESock16TierManagerUtils15LoadMCprRecordLEjRN8CommsDat11CMDBSessionE @ 812 NONAME
	_ZN5ESock16TierManagerUtils15LoadSCprRecordLEjRN8CommsDat11CMDBSessionE @ 813 NONAME
	_ZN5ESock16TierManagerUtils15LoadTierRecordLE4TUidRN8CommsDat11CMDBSessionE @ 814 NONAME
	_ZN5ESock16TierManagerUtils18MapRankingToPrefsLEjR15TCommDbConnPrefRN8CommsDat11CMDBSessionE @ 815 NONAME
	_ZN5ESock16TierManagerUtils19LoadProtocolRecordLEjRN8CommsDat11CMDBSessionE @ 816 NONAME
	_ZN5ESock16TierManagerUtils22GetConnectionAttemptsLERN8CommsDat11CMDBSessionE @ 817 NONAME
	_ZN5ESock16TierManagerUtils22LoadAccessPointRecordLERKNS_13TProviderInfoERN8CommsDat11CMDBSessionE @ 818 NONAME
	_ZN5ESock16TierManagerUtils22LoadAccessPointRecordLEjRN8CommsDat11CMDBSessionE @ 819 NONAME
	_ZN5ESock16TierManagerUtils22ReadSelectionPolicyIdLEjRN8CommsDat11CMDBSessionE @ 820 NONAME
	_ZN5ESock16TierManagerUtils23BuildTierThreadMappingLERN8CommsDat11CMDBSessionE @ 821 NONAME
	_ZN5ESock16TierManagerUtils23LoadAccessPointRecordsLE4TUidRK6RArrayI16TAccessPointInfoERN8CommsDat11CMDBSessionE @ 822 NONAME
	_ZN5ESock16TierManagerUtils23LoadAccessPointRecordsLE4TUidRN8CommsDat11CMDBSessionE @ 823 NONAME
	_ZN5ESock16TierManagerUtils23ReadDefaultAccessPointLE4TUidRN8CommsDat11CMDBSessionE @ 824 NONAME
	_ZN5ESock16TierManagerUtils25LoadGlobalSettingsRecordLERN8CommsDat11CMDBSessionE @ 825 NONAME
	_ZN5ESock16TierManagerUtils28LoadConfigAccessPointRecordLEjRN8CommsDat11CMDBSessionE @ 826 NONAME
	_ZN5ESock16TierManagerUtils28ParseTLConfigAccessPointIdsLER6RArrayIjERK7TDesC16 @ 827 NONAME
	_ZN5ESock16TierManagerUtils30MapRankingAndDirectionToPrefsLEj26TCommDbConnectionDirectionR15TCommDbConnPrefRN8CommsDat11CMDBSessionE @ 828 NONAME
	_ZN5ESock16TierManagerUtils9FillListLER11TConnIdListjRN8CommsDat11CMDBSessionE @ 829 NONAME
	_ZN5ESock16XCommsDataObject19GetVDataTableStaticEv @ 830 NONAME
	_ZN5ESock17CCommsFactoryBase10ConstructLERK4TUid @ 831 NONAME
	_ZN5ESock17CCommsFactoryBase10ConstructLEv @ 832 NONAME
	_ZN5ESock17CCommsFactoryBase11SendMessageERN11NetMessages8CMessageE @ 833 NONAME
	_ZN5ESock17CCommsFactoryBase14SignalCreationERNS_14AFactoryObjectE @ 834 NONAME
	_ZN5ESock17CCommsFactoryBase14SignalDeletionERNS_14AFactoryObjectE @ 835 NONAME
	_ZN5ESock17CCommsFactoryBase16DoReceiveMessageERN11NetMessages8CMessageE @ 836 NONAME
	_ZN5ESock17CCommsFactoryBase17AddManagedObjectLERNS_14AFactoryObjectE @ 837 NONAME
	_ZN5ESock17CCommsFactoryBase17RegisterNotifierLERKNS_14IFactoryNotifyE @ 838 NONAME
	_ZN5ESock17CCommsFactoryBase18DeRegisterNotifierERKNS_14IFactoryNotifyE @ 839 NONAME
	_ZN5ESock17CCommsFactoryBase9ReceivedLERNS_16TCFSignatureBaseE @ 840 NONAME
	_ZN5ESock17CCommsFactoryBaseC1E4TUidRNS_22CCommsFactoryContainerE @ 841 NONAME
	_ZN5ESock17CCommsFactoryBaseC2E4TUidRNS_22CCommsFactoryContainerE @ 842 NONAME
	_ZN5ESock17CCommsFactoryBaseD0Ev @ 843 NONAME
	_ZN5ESock17CCommsFactoryBaseD1Ev @ 844 NONAME
	_ZN5ESock17CCommsFactoryBaseD2Ev @ 845 NONAME
	_ZN5ESock17CProtocolIntfBaseC2ERNS_24CProtocolIntfFactoryBaseERKNS_8TCommsIdE @ 846 NONAME
	_ZN5ESock17CProtocolIntfBaseD0Ev @ 847 NONAME
	_ZN5ESock17CProtocolIntfBaseD1Ev @ 848 NONAME
	_ZN5ESock17CProtocolIntfBaseD2Ev @ 849 NONAME
	_ZN5ESock17TCFNodeSignalBase19GetVDataTableStaticEv @ 850 NONAME
	_ZN5ESock17TSigCommsIdNumber19GetVDataTableStaticEv @ 851 NONAME
	_ZN5ESock17TSigSubConnParams19GetVDataTableStaticEv @ 852 NONAME
	_ZN5ESock18AActivitySemaphore15ParkTransitionLERKNS_18TCFNodeContextBaseE @ 853 NONAME
	_ZN5ESock18AActivitySemaphore4WaitEv @ 854 NONAME
	_ZN5ESock18AActivitySemaphore6SignalERNS_18TCFNodeContextBaseE @ 855 NONAME
	_ZN5ESock18AActivitySemaphore9ParkStateERKNS_18TCFNodeContextBaseE @ 856 NONAME
	_ZN5ESock18CAccessPointConfig19GetVDataTableStaticEv @ 857 NONAME
	_ZN5ESock18CAccessPointConfig4NewLERKNS_13TProviderInfoE @ 858 NONAME
	_ZN5ESock18CAccessPointConfigD0Ev @ 859 NONAME
	_ZN5ESock18CAccessPointConfigD1Ev @ 860 NONAME
	_ZN5ESock18CAccessPointConfigD2Ev @ 861 NONAME
	_ZN5ESock18CRefCountOwnerBase4OpenEv @ 862 NONAME
	_ZN5ESock18CRefCountOwnerBase5CloseEv @ 863 NONAME
	_ZN5ESock18CRefCountOwnerBase9ReceivedLERNS_16TCFSignatureBaseE @ 864 NONAME
	_ZN5ESock18CRefCountOwnerBaseC2EPKv @ 865 NONAME
	_ZN5ESock18CRefCountOwnerBaseD0Ev @ 866 NONAME
	_ZN5ESock18CRefCountOwnerBaseD1Ev @ 867 NONAME
	_ZN5ESock18CRefCountOwnerBaseD2Ev @ 868 NONAME
	_ZN5ESock18MFlowBinderControl10CloneFlowLEv @ 869 NONAME
	_ZN5ESock18MFlowBinderControl11GetControlLERK6TDesC8 @ 870 NONAME
	_ZN5ESock18MFlowBinderControl11GetControlLEiRNS_21MSessionControlNotifyE @ 871 NONAME
	_ZN5ESock18MFlowBinderControl5BindLERK6TDesC8PNS_18MUpperDataReceiverEPNS_13MUpperControlE @ 872 NONAME
	_ZN5ESock18MFlowBinderControl5BindLERNS_18MSessionDataNotifyE @ 873 NONAME
	_ZN5ESock18MFlowBinderControl6UnbindEPNS_18MUpperDataReceiverEPNS_13MUpperControlE @ 874 NONAME
	_ZN5ESock18MFlowBinderControl6UnbindEv @ 875 NONAME
	_ZN5ESock18TCFESockSignalBase19GetVDataTableStaticEv @ 876 NONAME
	_ZN5ESock18TCFESockSignalBase25FetchPlatsecApiInterfaceLEv @ 877 NONAME
	_ZN5ESock18TCFSigRMessage2Ext5ErrorEPvi @ 878 NONAME
	_ZN5ESock18TSigCommsIdCommsId19GetVDataTableStaticEv @ 879 NONAME
	_ZN5ESock18TSigConnectionInfo19GetVDataTableStaticEv @ 880 NONAME
	_ZN5ESock18TSigSelectComplete19GetVDataTableStaticEv @ 881 NONAME
	_ZN5ESock18TSigSelectionPrefs19GetVDataTableStaticEv @ 882 NONAME
	_ZN5ESock19CCFMessageHookEntry5MatchERKN7CommsFW13TCFSignalBaseERKNS1_7TCookieE @ 883 NONAME
	_ZN5ESock19CCFMessageHookEntryC1ERKNS_17TCFNodeSignalBase10TMessageIdEiRKNS_8TCommsIdES7_ @ 884 NONAME
	_ZN5ESock19CCFMessageHookEntryC2ERKNS_17TCFNodeSignalBase10TMessageIdEiRKNS_8TCommsIdES7_ @ 885 NONAME
	_ZN5ESock19CCFNodeActivityBase11SetPostedToERKNS_8TCommsIdE @ 886 NONAME
	_ZN5ESock19CCFNodeActivityBase13PostRequestToERKNS_8TCommsIdERKN7CommsFW13TCFSignalBaseE @ 887 NONAME
	_ZN5ESock19CCFNodeActivityBase13PostRequestToERNS_14RNodeInterfaceERKN7CommsFW13TCFSignalBaseE @ 888 NONAME
	_ZN5ESock19CCFNodeActivityBase14FindOriginatorERKNS_13TCFNodePeerIdE @ 889 NONAME
	_ZN5ESock19CCFNodeActivityBase14FindOriginatorERKNS_14RNodeInterfaceE @ 890 NONAME
	_ZN5ESock19CCFNodeActivityBase14FindOriginatorERKNS_8TCommsIdE @ 891 NONAME
	_ZN5ESock19CCFNodeActivityBase16RemoveOriginatorEi @ 892 NONAME
	_ZN5ESock19CCFNodeActivityBase17PostToOriginatorsERKNS_16TCFSignatureBaseE @ 893 NONAME
	_ZN5ESock19CCFNodeActivityBase24DoFetchInterfaceControlLE21TSupportedCommsApiExt @ 894 NONAME
	_ZN5ESock19CCFNodeActivityBase4NewLERKNS_15TCFNodeActivityERNS_11ACFNodeBaseE @ 895 NONAME
	_ZN5ESock19CCFNodeActivityBase4NextERNS_18TCFNodeContextBaseERKNS_13TCFNodePeerIdE @ 896 NONAME
	_ZN5ESock19CCFNodeActivityBase5AbortERNS_18TCFNodeContextBaseEi @ 897 NONAME
	_ZN5ESock19CCFNodeActivityBase6CancelERNS_18TCFNodeContextBaseE @ 898 NONAME
	_ZN5ESock19CCFNodeActivityBase6StartLERNS_18TCFNodeContextBaseERKNS_13XCFNodePeerIdERKN15NetStateMachine12TStateTripleE @ 899 NONAME
	_ZN5ESock19CCFNodeActivityBase7SetIdleEv @ 900 NONAME
	_ZN5ESock19CCFNodeActivityBaseC1ERKNS_15TCFNodeActivityERNS_11ACFNodeBaseE @ 901 NONAME
	_ZN5ESock19CCFNodeActivityBaseC2ERKNS_15TCFNodeActivityERNS_11ACFNodeBaseE @ 902 NONAME
	_ZN5ESock19CCFNodeActivityBaseD0Ev @ 903 NONAME
	_ZN5ESock19CCFNodeActivityBaseD1Ev @ 904 NONAME
	_ZN5ESock19CCFNodeActivityBaseD2Ev @ 905 NONAME
	_ZN5ESock19TGetOrSetParameters19GetVDataTableStaticEv @ 906 NONAME
	_ZN5ESock19TSigBundleRMessage219GetVDataTableStaticEv @ 907 NONAME
	_ZN5ESock19TSigMessageIdNumber19GetVDataTableStaticEv @ 908 NONAME
	_ZN5ESock19TSigNumberRMessage219GetVDataTableStaticEv @ 909 NONAME
	_ZN5ESock19TSigProvisionConfig19GetVDataTableStaticEv @ 910 NONAME
	_ZN5ESock19TTransportHookError19GetVDataTableStaticEv @ 911 NONAME
	_ZN5ESock20CCFNodeRetryActivity19ReturnInterfacePtrLERPNS_13AContextStoreE @ 912 NONAME
	_ZN5ESock20CCFNodeRetryActivity4NewLERKNS_15TCFNodeActivityERNS_11ACFNodeBaseE @ 913 NONAME
	_ZN5ESock20CCommsDataObjectBase4CopyEPKv @ 914 NONAME
	_ZN5ESock20CCommsDataObjectBase4LoadER6TPtrC8 @ 915 NONAME
	_ZN5ESock20CCommsDataObjectBase4NewLEPNS_16XCommsDataObjectE @ 916 NONAME
	_ZN5ESock20CCommsDataObjectBase5LoadLER6TPtrC8 @ 917 NONAME
	_ZN5ESock20CCommsDataObjectBaseC1EPNS_16XCommsDataObjectE @ 918 NONAME
	_ZN5ESock20CCommsDataObjectBaseC2EPNS_16XCommsDataObjectE @ 919 NONAME
	_ZN5ESock20CCommsDataObjectBaseD0Ev @ 920 NONAME
	_ZN5ESock20CCommsDataObjectBaseD1Ev @ 921 NONAME
	_ZN5ESock20CCommsDataObjectBaseD2Ev @ 922 NONAME
	_ZN5ESock20CExtItfMsgPluginInfo12NewInstanceLERKN4Meta7STypeIdE @ 923 NONAME
	_ZN5ESock20CExtItfMsgPluginInfoD0Ev @ 924 NONAME
	_ZN5ESock20CExtItfMsgPluginInfoD1Ev @ 925 NONAME
	_ZN5ESock20CExtItfMsgPluginInfoD2Ev @ 926 NONAME
	_ZN5ESock20CMMCommsProviderBase19ReturnInterfacePtrLERPNS_21MAccessPointConfigApiE @ 927 NONAME
	_ZN5ESock21CCommsApiExtResponder8CompleteERPS0_i @ 928 NONAME
	_ZN5ESock21CCommsApiExtResponderC2Ev @ 929 NONAME
	_ZN5ESock21CCommsApiExtResponderD0Ev @ 930 NONAME
	_ZN5ESock21CCommsApiExtResponderD1Ev @ 931 NONAME
	_ZN5ESock21CCommsApiExtResponderD2Ev @ 932 NONAME
	_ZN5ESock21CProtocolConfigLoader20ListImplementationsLER13RPointerArrayI26CImplementationInformationE @ 933 NONAME
	_ZN5ESock21CProtocolConfigLoader4NewLE4TUid @ 934 NONAME
	_ZN5ESock21CProtocolConfigLoader4NewLEPN8CommsDat11CMDBSessionE4TUid @ 935 NONAME
	_ZN5ESock21CProtocolConfigLoaderD0Ev @ 936 NONAME
	_ZN5ESock21CProtocolConfigLoaderD1Ev @ 937 NONAME
	_ZN5ESock21CProtocolConfigLoaderD2Ev @ 938 NONAME
	_ZN5ESock21RNodeChannelInterface11PostMessageERKNS_17TCFNodeSignalBaseE @ 939 NONAME
	_ZN5ESock21TConnProviderInfoPrefC1ERK17TConnProviderInfo @ 940 NONAME
	_ZN5ESock21TConnProviderInfoPrefC2ERK17TConnProviderInfo @ 941 NONAME
	_ZN5ESock21TSigCommsBinderNumber19GetVDataTableStaticEv @ 942 NONAME
	_ZN5ESock22CCommsFactoryContainer17RegisterNotifierLE4TUidRKNS_14IFactoryNotifyE @ 943 NONAME
	_ZN5ESock22CSubConnectionFlowBase14DeleteThisFlowEv @ 944 NONAME
	_ZN5ESock22CSubConnectionFlowBase17GetBinderControlLEv @ 945 NONAME
	_ZN5ESock22CSubConnectionFlowBase22SubConnectionGoingDownEv @ 946 NONAME
	_ZN5ESock22CSubConnectionFlowBase26FetchNodeInterfaceControlLE21TSupportedCommsApiExt @ 947 NONAME
	_ZN5ESock22CSubConnectionFlowBase9ReceivedLERNS_16TCFSignatureBaseE @ 948 NONAME
	_ZN5ESock22CSubConnectionFlowBaseC2ERNS_29CSubConnectionFlowFactoryBaseERKNS_8TCommsIdEPNS_17CProtocolIntfBaseE @ 949 NONAME
	_ZN5ESock22CSubConnectionFlowBaseD0Ev @ 950 NONAME
	_ZN5ESock22CSubConnectionFlowBaseD1Ev @ 951 NONAME
	_ZN5ESock22CSubConnectionFlowBaseD2Ev @ 952 NONAME
	_ZN5ESock22TCFRegisterMessageHook19GetVDataTableStaticEv @ 953 NONAME
	_ZN5ESock22TCFRegisterMessageHook5ErrorEPvi @ 954 NONAME
	_ZN5ESock22TCFRegisterMessageHookC1ERKNS_8TCommsIdEjRKNS_17TCFNodeSignalBase10TMessageIdE @ 955 NONAME
	_ZN5ESock22TCFRegisterMessageHookC2ERKNS_8TCommsIdEjRKNS_17TCFNodeSignalBase10TMessageIdE @ 956 NONAME
	_ZN5ESock22TSigAvailabilityStatus19GetVDataTableStaticEv @ 957 NONAME
	_ZN5ESock22TSigNumberNumberNumber19GetVDataTableStaticEv @ 958 NONAME
	_ZN5ESock22TSigSubConNotification19GetVDataTableStaticEv @ 959 NONAME
	_ZN5ESock22TSigSubConnClosedEvent19GetVDataTableStaticEv @ 960 NONAME
	_ZN5ESock22TSigSubConnOpenedEvent19GetVDataTableStaticEv @ 961 NONAME
	_ZN5ESock23ADataMonitoringProvider10ConstructLEv @ 962 NONAME
	_ZN5ESock23ADataMonitoringProvider17DataNotificationLERKNS_25TCFMessageSigNumberNumberILi71ELl270496898EEE @ 963 NONAME
	_ZN5ESock23ADataMonitoringProvider21DataSentNotificationLEm @ 964 NONAME
	_ZN5ESock23ADataMonitoringProvider22RequestDataTransferredERPNS_24CDataMonitoringResponderEj @ 965 NONAME
	_ZN5ESock23ADataMonitoringProvider25DataReceivedNotificationLEm @ 966 NONAME
	_ZN5ESock23ADataMonitoringProvider26CancelClientExtItfRequestsEj @ 967 NONAME
	_ZN5ESock23ADataMonitoringProvider27RequestDataSentNotificationERPNS_24CDataMonitoringResponderEmmj @ 968 NONAME
	_ZN5ESock23ADataMonitoringProvider28CancelDataTransferredRequestEj @ 969 NONAME
	_ZN5ESock23ADataMonitoringProvider31RequestDataReceivedNotificationERPNS_24CDataMonitoringResponderEmmj @ 970 NONAME
	_ZN5ESock23ADataMonitoringProvider33CancelDataSentNotificationRequestEj @ 971 NONAME
	_ZN5ESock23ADataMonitoringProvider37CancelDataReceivedNotificationRequestEj @ 972 NONAME
	_ZN5ESock23ADataMonitoringProviderC1Ev @ 973 NONAME
	_ZN5ESock23ADataMonitoringProviderC2Ev @ 974 NONAME
	_ZN5ESock23ADataMonitoringProviderD0Ev @ 975 NONAME
	_ZN5ESock23ADataMonitoringProviderD1Ev @ 976 NONAME
	_ZN5ESock23ADataMonitoringProviderD2Ev @ 977 NONAME
	_ZN5ESock23CConnectionProviderBaseC2ERNS_30CConnectionProviderFactoryBaseERKNS_18TCFNodeActivityMapE @ 978 NONAME
	_ZN5ESock23CConnectionProviderBaseD0Ev @ 979 NONAME
	_ZN5ESock23CConnectionProviderBaseD1Ev @ 980 NONAME
	_ZN5ESock23CConnectionProviderBaseD2Ev @ 981 NONAME
	_ZN5ESock23CTierManagerFactoryBase24FindOrCreateTierManagerLEv @ 982 NONAME
	_ZN5ESock23CTierManagerFactoryBaseC2E4TUidRNS_28CTierManagerFactoryContainerE @ 983 NONAME
	_ZN5ESock23CTierManagerFactoryBaseD0Ev @ 984 NONAME
	_ZN5ESock23CTierManagerFactoryBaseD1Ev @ 985 NONAME
	_ZN5ESock23CTierManagerFactoryBaseD2Ev @ 986 NONAME
	_ZN5ESock23TSafeMessageCarrierBase19GetVDataTableStaticEv @ 987 NONAME
	_ZN5ESock23TSafeMessageCarrierBase5ErrorEPvi @ 988 NONAME
	_ZN5ESock23TSafeRequestCarrierEast19GetVDataTableStaticEv @ 989 NONAME
	_ZN5ESock23TSafeRequestCarrierEast9DispatchLEPvR6TPtrC8 @ 990 NONAME
	_ZN5ESock23TSafeRequestCarrierEastC1ERKNS_16TCFSignatureBaseE @ 991 NONAME
	_ZN5ESock23TSafeRequestCarrierEastC2ERKNS_16TCFSignatureBaseE @ 992 NONAME
	_ZN5ESock23TSigCommsIdNumberNumber19GetVDataTableStaticEv @ 993 NONAME
	_ZN5ESock23TSigFactoryObjectParams19GetVDataTableStaticEv @ 994 NONAME
	_ZN5ESock23XConnectionFactoryQuery5MatchERNS_18TFactoryObjectInfoE @ 995 NONAME
	_ZN5ESock24ASubSessionPlatsecApiExtC1Ej @ 996 NONAME
	_ZN5ESock24ASubSessionPlatsecApiExtC2Ej @ 997 NONAME
	_ZN5ESock24CCommsApiExtIpcResponder10DoCompleteEi @ 998 NONAME
	_ZN5ESock24CCommsApiExtIpcResponder4NewLERK9RMessage2 @ 999 NONAME
	_ZN5ESock24CCommsApiExtIpcResponder4NewLERN8Elements12RResponseMsgE @ 1000 NONAME
	_ZN5ESock24CConfigAccessPointConfig11AppendSCprLERK4TUid @ 1001 NONAME
	_ZN5ESock24CConfigAccessPointConfig12AppendLayerLERKNS_23TConfigAccessPointLayerE @ 1002 NONAME
	_ZN5ESock24CConfigAccessPointConfig19GetVDataTableStaticEv @ 1003 NONAME
	_ZN5ESock24CConfigAccessPointConfig4NewLEv @ 1004 NONAME
	_ZN5ESock24CConfigAccessPointConfigD0Ev @ 1005 NONAME
	_ZN5ESock24CConfigAccessPointConfigD1Ev @ 1006 NONAME
	_ZN5ESock24CConfigAccessPointConfigD2Ev @ 1007 NONAME
	_ZN5ESock24CDataMonitoringResponder13CancelRequestERPS0_ @ 1008 NONAME
	_ZN5ESock24CDataMonitoringResponder15DataTransferredERPS0_mm @ 1009 NONAME
	_ZN5ESock24CDataMonitoringResponder20DataSentNotificationERPS0_m @ 1010 NONAME
	_ZN5ESock24CDataMonitoringResponder24DataReceivedNotificationERPS0_m @ 1011 NONAME
	_ZN5ESock24CDataMonitoringResponder4NewLERN8Elements12RResponseMsgE @ 1012 NONAME
	_ZN5ESock24CDataMonitoringResponder5ErrorERPS0_i @ 1013 NONAME
	_ZN5ESock24CProtocolIntfFactoryBase16FindProtocolIntfERNS_18MCommsFactoryQueryE @ 1014 NONAME
	_ZN5ESock24CProtocolIntfFactoryBase19CreateProtocolIntfLERKNS_8TCommsIdE @ 1015 NONAME
	_ZN5ESock24CProtocolIntfFactoryBase25FindOrCreateProtocolIntfLERNS_25XProtocolIntfFactoryQueryE @ 1016 NONAME
	_ZN5ESock24CProtocolIntfFactoryBaseC2E4TUidRNS_29CProtocolIntfFactoryContainerE @ 1017 NONAME
	_ZN5ESock24TCFDeregisterMessageHook19GetVDataTableStaticEv @ 1018 NONAME
	_ZN5ESock24TCFDeregisterMessageHookC1ERKNS_8TCommsIdERKNS_17TCFNodeSignalBase10TMessageIdE @ 1019 NONAME
	_ZN5ESock24TCFDeregisterMessageHookC2ERKNS_8TCommsIdERKNS_17TCFNodeSignalBase10TMessageIdE @ 1020 NONAME
	_ZN5ESock24TSafeResponseCarrierWest19GetVDataTableStaticEv @ 1021 NONAME
	_ZN5ESock24TSafeResponseCarrierWest9DispatchLEPvR6TPtrC8 @ 1022 NONAME
	_ZN5ESock24TSafeResponseCarrierWestC1ERKNS_16TCFSignatureBaseERKNS_8TCommsIdE @ 1023 NONAME
	_ZN5ESock24TSafeResponseCarrierWestC2ERKNS_16TCFSignatureBaseERKNS_8TCommsIdE @ 1024 NONAME
	_ZN5ESock24TSigCommsIdCommsIdNumber19GetVDataTableStaticEv @ 1025 NONAME
	_ZN5ESock25XProtocolIntfFactoryQuery5MatchERNS_18TFactoryObjectInfoE @ 1026 NONAME
	_ZN5ESock26CProtocolFamilyFactoryBase12FindProtocolEj @ 1027 NONAME
	_ZN5ESock26CProtocolFamilyFactoryBase4NewLERK6TDesC8RNS_31CProtocolFamilyFactoryContainerE @ 1028 NONAME
	_ZN5ESock26CProtocolFamilyFactoryBaseC1E4TUidRNS_31CProtocolFamilyFactoryContainerE @ 1029 NONAME
	_ZN5ESock26CProtocolFamilyFactoryBaseC2E4TUidRNS_31CProtocolFamilyFactoryContainerE @ 1030 NONAME
	_ZN5ESock26CSubConnectionProviderBase14NotifyClientsLERK24CSubConNotificationEvent @ 1031 NONAME
	_ZN5ESock26CSubConnectionProviderBase14SetParametersLER22CSubConParameterBundle @ 1032 NONAME
	_ZN5ESock26CSubConnectionProviderBaseC2ERNS_33CSubConnectionProviderFactoryBaseERKNS_18TCFNodeActivityMapE @ 1033 NONAME
	_ZN5ESock26CSubConnectionProviderBaseD0Ev @ 1034 NONAME
	_ZN5ESock26CSubConnectionProviderBaseD1Ev @ 1035 NONAME
	_ZN5ESock26CSubConnectionProviderBaseD2Ev @ 1036 NONAME
	_ZN5ESock26TDeferredSelectionPrefsExt19GetVDataTableStaticEv @ 1037 NONAME
	_ZN5ESock26TDeferredSelectionPrefsExtC1E4TUidRK9TConnPref @ 1038 NONAME
	_ZN5ESock26TDeferredSelectionPrefsExtC2E4TUidRK9TConnPref @ 1039 NONAME
	_ZN5ESock26XSubConnectionFactoryQuery5MatchERNS_18TFactoryObjectInfoE @ 1040 NONAME
	_ZN5ESock27CCFNodeParallelActivityBase21GetNextActivityCountLERKNS_15TCFNodeActivityERKNS_11ACFNodeBaseE @ 1041 NONAME
	_ZN5ESock27CCFNodeParallelActivityBase4NewLERKNS_15TCFNodeActivityERNS_11ACFNodeBaseE @ 1042 NONAME
	_ZN5ESock27CCFNodeParallelActivityBaseC1ERKNS_15TCFNodeActivityERNS_11ACFNodeBaseEj @ 1043 NONAME
	_ZN5ESock27CCFNodeParallelActivityBaseC2ERKNS_15TCFNodeActivityERNS_11ACFNodeBaseEj @ 1044 NONAME
	_ZN5ESock27CCFNodeSynchronisedActivity19ReturnInterfacePtrLERPNS_18AActivitySemaphoreE @ 1045 NONAME
	_ZN5ESock27CCFNodeSynchronisedActivity4NewLERKNS_15TCFNodeActivityERNS_11ACFNodeBaseE @ 1046 NONAME
	_ZN5ESock27CCFNodeSynchronisedActivity6SignalERNS_18TCFNodeContextBaseE @ 1047 NONAME
	_ZN5ESock27CCFNodeSynchronisedActivity7SetIdleEv @ 1048 NONAME
	_ZN5ESock27CCFNodeSynchronisedActivityC1ERKNS_15TCFNodeActivityERNS_11ACFNodeBaseE @ 1049 NONAME
	_ZN5ESock27CCFNodeSynchronisedActivityC2ERKNS_15TCFNodeActivityERNS_11ACFNodeBaseE @ 1050 NONAME
	_ZN5ESock27CConnectionFactoryContainer20FindOrCreateFactoryLE4TUid @ 1051 NONAME
	_ZN5ESock27CConnectionFactoryContainer4NewLEv @ 1052 NONAME
	_ZN5ESock27CMetaConnectionProviderBase10ConstructLEv @ 1053 NONAME
	_ZN5ESock27CMetaConnectionProviderBase15SetProviderInfoERKNS_13TProviderInfoE @ 1054 NONAME
	_ZN5ESock27CMetaConnectionProviderBase19FindServiceProviderEj @ 1055 NONAME
	_ZN5ESock27CMetaConnectionProviderBase19NewClientInterfaceLEiPv @ 1056 NONAME
	_ZN5ESock27CMetaConnectionProviderBaseC2ERNS_34CMetaConnectionProviderFactoryBaseERKNS_13TProviderInfoERKNS_18TCFNodeActivityMapE @ 1057 NONAME
	_ZN5ESock27CMetaConnectionProviderBaseD0Ev @ 1058 NONAME
	_ZN5ESock27CMetaConnectionProviderBaseD1Ev @ 1059 NONAME
	_ZN5ESock27CMetaConnectionProviderBaseD2Ev @ 1060 NONAME
	_ZN5ESock27TOverridenSelectionPrefsExt19GetVDataTableStaticEv @ 1061 NONAME
	_ZN5ESock27TOverridenSelectionPrefsExtC1E4TUidRKNS_15TSelectionPrefsE @ 1062 NONAME
	_ZN5ESock27TOverridenSelectionPrefsExtC2E4TUidRKNS_15TSelectionPrefsE @ 1063 NONAME
	_ZN5ESock27XMetaConnectionFactoryQuery5MatchERNS_18TFactoryObjectInfoE @ 1064 NONAME
	_ZN5ESock28AExtensionInterfaceThickBase22OpenExtensionInterfaceEjRKNS_8TCommsIdEPNS_21CCommsApiExtResponderE @ 1065 NONAME
	_ZN5ESock28AExtensionInterfaceThickBase23CloseExtensionInterfaceEj @ 1066 NONAME
	_ZN5ESock28AExtensionInterfaceThickBase24CancelExtensionInterfaceEj @ 1067 NONAME
	_ZN5ESock28AExtensionInterfaceThickBaseC1ERKN4Meta7STypeIdE @ 1068 NONAME
	_ZN5ESock28AExtensionInterfaceThickBaseC2ERKN4Meta7STypeIdE @ 1069 NONAME
	_ZN5ESock28AExtensionInterfaceThickBaseD0Ev @ 1070 NONAME
	_ZN5ESock28AExtensionInterfaceThickBaseD1Ev @ 1071 NONAME
	_ZN5ESock28AExtensionInterfaceThickBaseD2Ev @ 1072 NONAME
	_ZN5ESock28CCFNodeRetryParallelActivity19ReturnInterfacePtrLERPNS_13AContextStoreE @ 1073 NONAME
	_ZN5ESock28CCFNodeRetryParallelActivity4NewLERKNS_15TCFNodeActivityERNS_11ACFNodeBaseE @ 1074 NONAME
	_ZN5ESock28CCFNodeRetryParallelActivityC1ERKNS_15TCFNodeActivityERNS_11ACFNodeBaseEj @ 1075 NONAME
	_ZN5ESock28CCFNodeRetryParallelActivityC2ERKNS_15TCFNodeActivityERNS_11ACFNodeBaseEj @ 1076 NONAME
	_ZN5ESock28CCommsApiExtIpcOpenResponder10DoCompleteEi @ 1077 NONAME
	_ZN5ESock28CCommsApiExtIpcOpenResponder4NewLE21TSupportedCommsApiExtjRK9RMessage2 @ 1078 NONAME
	_ZN5ESock28CTierManagerFactoryContainer20FindOrCreateFactoryLE4TUid @ 1079 NONAME
	_ZN5ESock28TSigNumberNumberNumberNumber19GetVDataTableStaticEv @ 1080 NONAME
	_ZN5ESock29CCommsMobilitySrvIpcResponder18DoNewCarrierActiveE16TAccessPointInfoi @ 1081 NONAME
	_ZN5ESock29CCommsMobilitySrvIpcResponder27DoPreferredCarrierAvailableE16TAccessPointInfoS1_ii @ 1082 NONAME
	_ZN5ESock29CCommsMobilitySrvIpcResponder4NewLERN8Elements12RResponseMsgE @ 1083 NONAME
	_ZN5ESock29CProtocolIntfFactoryContainer17FindProtocolIntfLE4TUidRNS_18MCommsFactoryQueryE @ 1084 NONAME
	_ZN5ESock29CProtocolIntfFactoryContainer20FindOrCreateFactoryLE4TUid @ 1085 NONAME
	_ZN5ESock29CProtocolIntfFactoryContainer25FindOrCreateProtocolIntfLE4TUidRNS_25XProtocolIntfFactoryQueryE @ 1086 NONAME
	_ZN5ESock29CSubConnectionFlowFactoryBase13FindOrCreateLERNS_30XSubConnectionFlowFactoryQueryE @ 1087 NONAME
	_ZN5ESock29CSubConnectionFlowFactoryBase15DoFindOrCreateLERNS_30XSubConnectionFlowFactoryQueryE @ 1088 NONAME
	_ZN5ESock29CSubConnectionFlowFactoryBase26CreateProtocolIntfFactoryLERNS_29CProtocolIntfFactoryContainerE @ 1089 NONAME
	_ZN5ESock29CSubConnectionFlowFactoryBase4FindERNS_18MCommsFactoryQueryE @ 1090 NONAME
	_ZN5ESock29CSubConnectionFlowFactoryBase7CreateLERKNS_8TCommsIdES3_ @ 1091 NONAME
	_ZN5ESock29CSubConnectionFlowFactoryBaseC2E4TUidRNS_34CSubConnectionFlowFactoryContainerE @ 1092 NONAME
	_ZN5ESock29CSubConnectionFlowFactoryBaseD0Ev @ 1093 NONAME
	_ZN5ESock29CSubConnectionFlowFactoryBaseD1Ev @ 1094 NONAME
	_ZN5ESock29CSubConnectionFlowFactoryBaseD2Ev @ 1095 NONAME
	_ZN5ESock30CConnectionProviderFactoryBase13FindOrCreateLERNS_23XConnectionFactoryQueryE @ 1096 NONAME
	_ZN5ESock30CConnectionProviderFactoryBase4FindERNS_18MCommsFactoryQueryE @ 1097 NONAME
	_ZN5ESock30CConnectionProviderFactoryBase7CreateLEv @ 1098 NONAME
	_ZN5ESock30CConnectionProviderFactoryBaseC2E4TUidRNS_27CConnectionFactoryContainerE @ 1099 NONAME
	_ZN5ESock30CConnectionProviderFactoryBaseD0Ev @ 1100 NONAME
	_ZN5ESock30CConnectionProviderFactoryBaseD1Ev @ 1101 NONAME
	_ZN5ESock30CConnectionProviderFactoryBaseD2Ev @ 1102 NONAME
	_ZN5ESock30CLegacyDataMonitoringResponder4NewLERN8Elements12RResponseMsgE @ 1103 NONAME
	_ZN5ESock30CSubConnectionFactoryContainer20FindOrCreateFactoryLE4TUid @ 1104 NONAME
	_ZN5ESock30XSubConnectionFlowFactoryQuery5MatchERNS_18TFactoryObjectInfoE @ 1105 NONAME
	_ZN5ESock31CMetaConnectionFactoryContainer20FindOrCreateFactoryLE4TUid @ 1106 NONAME
	_ZN5ESock31CProtocolFamilyFactoryContainer13FindOrCreateLERK6TDesC84TUid @ 1107 NONAME
	_ZN5ESock32ALegacySubConnectionActiveApiExt24CancelExtensionInterfaceEj @ 1108 NONAME
	_ZN5ESock32ALegacySubConnectionActiveApiExtD0Ev @ 1109 NONAME
	_ZN5ESock32ALegacySubConnectionActiveApiExtD1Ev @ 1110 NONAME
	_ZN5ESock32ALegacySubConnectionActiveApiExtD2Ev @ 1111 NONAME
	_ZN5ESock32TSigCommsBinderMetaDataPtrNumber19GetVDataTableStaticEv @ 1112 NONAME
	_ZN5ESock33CSubConnectionProviderFactoryBase13FindOrCreateLERNS_26XSubConnectionFactoryQueryE @ 1113 NONAME
	_ZN5ESock33CSubConnectionProviderFactoryBase15DoFindOrCreateLERNS_26XSubConnectionFactoryQueryE @ 1114 NONAME
	_ZN5ESock33CSubConnectionProviderFactoryBase4FindERNS_18MCommsFactoryQueryE @ 1115 NONAME
	_ZN5ESock33CSubConnectionProviderFactoryBase7CreateLEN12TSubConnOpen12TSubConnTypeE @ 1116 NONAME
	_ZN5ESock33CSubConnectionProviderFactoryBaseC2E4TUidRNS_30CSubConnectionFactoryContainerE @ 1117 NONAME
	_ZN5ESock33CSubConnectionProviderFactoryBaseD0Ev @ 1118 NONAME
	_ZN5ESock33CSubConnectionProviderFactoryBaseD1Ev @ 1119 NONAME
	_ZN5ESock33CSubConnectionProviderFactoryBaseD2Ev @ 1120 NONAME
	_ZN5ESock34CMetaConnectionProviderFactoryBase13FindOrCreateLERNS_27XMetaConnectionFactoryQueryE @ 1121 NONAME
	_ZN5ESock34CMetaConnectionProviderFactoryBase4FindERNS_18MCommsFactoryQueryE @ 1122 NONAME
	_ZN5ESock34CMetaConnectionProviderFactoryBase7CreateLERKNS_13TProviderInfoE @ 1123 NONAME
	_ZN5ESock34CMetaConnectionProviderFactoryBaseC2E4TUidRNS_31CMetaConnectionFactoryContainerE @ 1124 NONAME
	_ZN5ESock34CMetaConnectionProviderFactoryBaseD0Ev @ 1125 NONAME
	_ZN5ESock34CMetaConnectionProviderFactoryBaseD1Ev @ 1126 NONAME
	_ZN5ESock34CMetaConnectionProviderFactoryBaseD2Ev @ 1127 NONAME
	_ZN5ESock34CSubConnectionFlowFactoryContainer20FindOrCreateFactoryLE4TUid @ 1128 NONAME
	_ZN5ESock34CSubConnectionFlowFactoryContainer9FindFlowLE4TUidRNS_30XSubConnectionFlowFactoryQueryE @ 1129 NONAME
	_ZN5ESock35CCFNodeSynchronisedParallelActivity19ReturnInterfacePtrLERPNS_18AActivitySemaphoreE @ 1130 NONAME
	_ZN5ESock35CCFNodeSynchronisedParallelActivity4NewLERKNS_15TCFNodeActivityERNS_11ACFNodeBaseE @ 1131 NONAME
	_ZN5ESock35CCFNodeSynchronisedParallelActivity6SignalERNS_18TCFNodeContextBaseE @ 1132 NONAME
	_ZN5ESock35CCFNodeSynchronisedParallelActivity7SetIdleEv @ 1133 NONAME
	_ZN5ESock35CCFNodeSynchronisedParallelActivityC1ERKNS_15TCFNodeActivityERNS_11ACFNodeBaseEj @ 1134 NONAME
	_ZN5ESock35CCFNodeSynchronisedParallelActivityC2ERKNS_15TCFNodeActivityERNS_11ACFNodeBaseEj @ 1135 NONAME
	_ZN5ESock35TDataMonitoringConnProvisioningInfo19GetVDataTableStaticEv @ 1136 NONAME
	_ZN5ESock35TDataMonitoringProvisioningInfoBase19GetVDataTableStaticEv @ 1137 NONAME
	_ZN5ESock35TSigAvailabilitySubscriptionOptions19GetVDataTableStaticEv @ 1138 NONAME
	_ZN5ESock38TDataMonitoringSubConnProvisioningInfo19GetVDataTableStaticEv @ 1139 NONAME
	_ZN5ESock39CLegacyEnumerateSubConnectionsResponder14CompleteClientERPS0_i @ 1140 NONAME
	_ZN5ESock40CCFNodeRetrySynchronisedParallelActivity19ReturnInterfacePtrLERPNS_13AContextStoreE @ 1141 NONAME
	_ZN5ESock40CCFNodeRetrySynchronisedParallelActivity4NewLERKNS_15TCFNodeActivityERNS_11ACFNodeBaseE @ 1142 NONAME
	_ZN5ESock40CCFNodeRetrySynchronisedParallelActivityC1ERKNS_15TCFNodeActivityERNS_11ACFNodeBaseEj @ 1143 NONAME
	_ZN5ESock40CCFNodeRetrySynchronisedParallelActivityC2ERKNS_15TCFNodeActivityERNS_11ACFNodeBaseEj @ 1144 NONAME
	_ZN5ESock7CSocket8SetStateENS0_12TSocketStateE @ 1145 NONAME
	_ZN5ESock7MCFNode19FetchNodeInterfaceLE21TSupportedCommsApiExt @ 1146 NONAME
	_ZN5ESock7MCFNode26FetchNodeInterfaceControlLE21TSupportedCommsApiExt @ 1147 NONAME
	_ZN5ESock7TSigAny19GetVDataTableStaticEv @ 1148 NONAME
	_ZN5ESock7TSigUid19GetVDataTableStaticEv @ 1149 NONAME
	_ZN5ESock8TCommsId11NullCommsIdEv @ 1150 NONAME
	_ZN5ESock9TCFItfExt15FetchInterfaceLERNS_7MCFNodeE21TSupportedCommsApiExt @ 1151 NONAME
	_ZN5ESock9TCFItfExt15ForwardMessageLERNS_18TCFESockSignalBaseERNS_7MCFNodeEii @ 1152 NONAME
	_ZN5ESock9TCFItfExt27FetchInterfaceOrForwardMsgLERNS_18TCFESockSignalBaseERNS_7MCFNodeE21TSupportedCommsApiExtii @ 1153 NONAME
	_ZN5ESock9TCFItfExt34FetchInterfaceControlOrForwardMsgLERNS_18TCFESockSignalBaseERNS_7MCFNodeE21TSupportedCommsApiExtii @ 1154 NONAME
	_ZN5ESock9TCommsOid14UnregisterSelfEv @ 1155 NONAME
	_ZN5ESock9TCommsOidC1EPv @ 1156 NONAME
	_ZN5ESock9TCommsOidC1ERNS_17CCommsFactoryBaseE @ 1157 NONAME
	_ZN5ESock9TCommsOidC1ERNS_22CCommsFactoryContainerE @ 1158 NONAME
	_ZN5ESock9TCommsOidC1ERNS_7MCFNodeE @ 1159 NONAME
	_ZN5ESock9TCommsOidC2EPv @ 1160 NONAME
	_ZN5ESock9TCommsOidC2ERNS_17CCommsFactoryBaseE @ 1161 NONAME
	_ZN5ESock9TCommsOidC2ERNS_22CCommsFactoryContainerE @ 1162 NONAME
	_ZN5ESock9TCommsOidC2ERNS_7MCFNodeE @ 1163 NONAME
	_ZN5ESock9TCommsOidD1Ev @ 1164 NONAME
	_ZN5ESock9TCommsOidD2Ev @ 1165 NONAME
	_ZN7RSocket10CancelReadEv @ 1166 NONAME
	_ZN7RSocket10CancelRecvEv @ 1167 NONAME
	_ZN7RSocket10CancelSendEv @ 1168 NONAME
	_ZN7RSocket10RemoteNameER9TSockAddr @ 1169 NONAME
	_ZN7RSocket11CancelIoctlEv @ 1170 NONAME
	_ZN7RSocket11CancelWriteEv @ 1171 NONAME
	_ZN7RSocket12CancelAcceptEv @ 1172 NONAME
	_ZN7RSocket12SetLocalPortEi @ 1173 NONAME
	_ZN7RSocket13CancelConnectEv @ 1174 NONAME
	_ZN7RSocket13RecvOneOrMoreER5TDes8jR14TRequestStatusR8TPckgBufIiE @ 1175 NONAME
	_ZN7RSocket17GetDisconnectDataER5TDes8 @ 1176 NONAME
	_ZN7RSocket4BindER9TSockAddr @ 1177 NONAME
	_ZN7RSocket4InfoER13TProtocolDesc @ 1178 NONAME
	_ZN7RSocket4NameER4TBufILi128EE @ 1179 NONAME
	_ZN7RSocket4OpenER11RSocketServ @ 1180 NONAME
	_ZN7RSocket4OpenER11RSocketServRK7TDesC16 @ 1181 NONAME
	_ZN7RSocket4OpenER11RSocketServjjj @ 1182 NONAME
	_ZN7RSocket4OpenER11RSocketServjjjR11RConnection @ 1183 NONAME
	_ZN7RSocket4OpenER11RSocketServjjjR14RSubConnection @ 1184 NONAME
	_ZN7RSocket4ReadER5TDes8R14TRequestStatus @ 1185 NONAME
	_ZN7RSocket4RecvER5TDes8jR14TRequestStatus @ 1186 NONAME
	_ZN7RSocket4RecvER5TDes8jR14TRequestStatusR8TPckgBufIiE @ 1187 NONAME
	_ZN7RSocket4SendERK6TDesC8jR14TRequestStatus @ 1188 NONAME
	_ZN7RSocket4SendERK6TDesC8jR14TRequestStatusR8TPckgBufIiE @ 1189 NONAME
	_ZN7RSocket5CloseEv @ 1190 NONAME
	_ZN7RSocket5IoctlEjR14TRequestStatusP5TDes8j @ 1191 NONAME
	_ZN7RSocket5WriteERK6TDesC8R14TRequestStatus @ 1192 NONAME
	_ZN7RSocket6AcceptERS_R14TRequestStatus @ 1193 NONAME
	_ZN7RSocket6AcceptERS_R5TDes8R14TRequestStatus @ 1194 NONAME
	_ZN7RSocket6GetOptEjjR5TDes8 @ 1195 NONAME
	_ZN7RSocket6GetOptEjjRi @ 1196 NONAME
	_ZN7RSocket6ListenEj @ 1197 NONAME
	_ZN7RSocket6ListenEjRK6TDesC8 @ 1198 NONAME
	_ZN7RSocket6SendToERK6TDesC8R9TSockAddrjR14TRequestStatus @ 1199 NONAME
	_ZN7RSocket6SendToERK6TDesC8R9TSockAddrjR14TRequestStatusR8TPckgBufIiE @ 1200 NONAME
	_ZN7RSocket6SetOptEjjRK6TDesC8 @ 1201 NONAME
	_ZN7RSocket6SetOptEjji @ 1202 NONAME
	_ZN7RSocket7ConnectER9TSockAddrR14TRequestStatus @ 1203 NONAME
	_ZN7RSocket7ConnectER9TSockAddrRK6TDesC8R5TDes8R14TRequestStatus @ 1204 NONAME
	_ZN7RSocket8RecvFromER5TDes8R9TSockAddrjR14TRequestStatus @ 1205 NONAME
	_ZN7RSocket8RecvFromER5TDes8R9TSockAddrjR14TRequestStatusR8TPckgBufIiE @ 1206 NONAME
	_ZN7RSocket8ShutdownENS_9TShutdownER14TRequestStatus @ 1207 NONAME
	_ZN7RSocket8ShutdownENS_9TShutdownERK6TDesC8R5TDes8R14TRequestStatus @ 1208 NONAME
	_ZN7RSocket8TransferER11RSocketServRK7TDesC16 @ 1209 NONAME
	_ZN7RSocket9CancelAllEv @ 1210 NONAME
	_ZN7RSocket9LocalNameER9TSockAddr @ 1211 NONAME
	_ZN7RSocket9LocalPortEv @ 1212 NONAME
	_ZN7RSocketC1Ev @ 1213 NONAME
	_ZN7RSocketC2Ev @ 1214 NONAME
	_ZN8PRStates12TSendStopped12GetVTablePtrER6TDesC8Pv @ 1215 NONAME
	_ZN8PRStates12TSendStopped3DoLEv @ 1216 NONAME
	_ZN8PRStates13TSendGoneDown12GetVTablePtrER6TDesC8Pv @ 1217 NONAME
	_ZN8PRStates13TSendGoneDown3DoLEv @ 1218 NONAME
	_ZN8PRStates14TSendProvision12GetVTablePtrER6TDesC8Pv @ 1219 NONAME
	_ZN8PRStates14TSendProvision3DoLEv @ 1220 NONAME
	_ZN8PRStates15TStoreProvision12GetVTablePtrER6TDesC8Pv @ 1221 NONAME
	_ZN8PRStates15TStoreProvision3DoLEv @ 1222 NONAME
	_ZN8PRStates17TCreateDataClient12GetVTablePtrER6TDesC8Pv @ 1223 NONAME
	_ZN8PRStates17TCreateDataClient3DoLEv @ 1224 NONAME
	_ZN8PRStates19TForwardStateChange12GetVTablePtrER6TDesC8Pv @ 1225 NONAME
	_ZN8PRStates19TForwardStateChange3DoLEv @ 1226 NONAME
	_ZN8PRStates22TReBindLeaveAndForward12GetVTablePtrER6TDesC8Pv @ 1227 NONAME
	_ZN8PRStates22TReBindLeaveAndForward3DoLEv @ 1228 NONAME
	_ZN8PRStates22TSendDataClientStarted12GetVTablePtrER6TDesC8Pv @ 1229 NONAME
	_ZN8PRStates22TSendDataClientStarted3DoLEv @ 1230 NONAME
	_ZN8PRStates22TSendDataClientStopped12GetVTablePtrER6TDesC8Pv @ 1231 NONAME
	_ZN8PRStates22TSendDataClientStopped3DoLEv @ 1232 NONAME
	_ZN8PRStates23TSendStoppedAndGoneDown12GetVTablePtrER6TDesC8Pv @ 1233 NONAME
	_ZN8PRStates23TSendStoppedAndGoneDown3DoLEv @ 1234 NONAME
	_ZN8PRStates23TStartDefaultDataClient12GetVTablePtrER6TDesC8Pv @ 1235 NONAME
	_ZN8PRStates23TStartDefaultDataClient3DoLEv @ 1236 NONAME
	_ZN8PRStates27TDestroyOrphanedDataClients12GetVTablePtrER6TDesC8Pv @ 1237 NONAME
	_ZN8PRStates27TDestroyOrphanedDataClients3DoLEv @ 1238 NONAME
	_ZN8PRStates27THandleProviderStatusChange12GetVTablePtrER6TDesC8Pv @ 1239 NONAME
	_ZN8PRStates27THandleProviderStatusChange3DoLEv @ 1240 NONAME
	_ZN9BigEndian5Get16EPKh @ 1241 NONAME
	_ZN9BigEndian5Get32EPKh @ 1242 NONAME
	_ZN9BigEndian5Put16EPht @ 1243 NONAME
	_ZN9BigEndian5Put32EPhm @ 1244 NONAME
	_ZN9ByteOrder6Swap16Et @ 1245 NONAME
	_ZN9ByteOrder6Swap32Em @ 1246 NONAME
	_ZN9TConnPref10GetUserLenEv @ 1247 NONAME
	_ZN9TConnPref10SetUserLenEi @ 1248 NONAME
	_ZN9TConnPref14SetExtensionIdEi @ 1249 NONAME
	_ZN9TConnPrefC1Ei @ 1250 NONAME
	_ZN9TConnPrefC1Ev @ 1251 NONAME
	_ZN9TConnPrefC2Ei @ 1252 NONAME
	_ZN9TConnPrefC2Ev @ 1253 NONAME
	_ZN9TSockAddr10GetUserLenEv @ 1254 NONAME
	_ZN9TSockAddr10SetUserLenEi @ 1255 NONAME
	_ZN9TSockAddr7SetPortEj @ 1256 NONAME
	_ZN9TSockAddr9SetFamilyEj @ 1257 NONAME
	_ZN9TSockAddrC1Ej @ 1258 NONAME
	_ZN9TSockAddrC1Ev @ 1259 NONAME
	_ZN9TSockAddrC2Ej @ 1260 NONAME
	_ZN9TSockAddrC2Ev @ 1261 NONAME
	_ZNK11RSocketServ18__DbgCheckFailNextEv @ 1262 NONAME
	_ZNK11RSocketServ7VersionEv @ 1263 NONAME
	_ZNK11TConnIdList3GetEi @ 1264 NONAME
	_ZNK11TConnIdList5CountEv @ 1265 NONAME
	_ZNK12CSockManData10SelfWorkerEv @ 1266 NONAME
	_ZNK12PRActivities20CCommsBinderActivity6BinderEv @ 1267 NONAME
	_ZNK13CESockIniData7FindVarERK7TDesC16R7TPtrC16 @ 1268 NONAME
	_ZNK13CESockIniData7FindVarERK7TDesC16Ri @ 1269 NONAME
	_ZNK13CESockIniData7FindVarERK7TDesC16S2_R7TPtrC16 @ 1270 NONAME
	_ZNK13CESockIniData7FindVarERK7TDesC16S2_Ri @ 1271 NONAME
	_ZNK13TConnSnapPref4SnapEv @ 1272 NONAME
	_ZNK14ConnectionServ30CConnectionServParameterBundle16FindGenericQueryEv @ 1273 NONAME
	_ZNK14ConnectionServ30CConnectionServParameterBundle25GetParameterSetsToReturnLEv @ 1274 NONAME
	_ZNK15CSockSubSession12GetOwnerInfoER10TProcessIdR8TUidTypeR9TThreadId @ 1275 NONAME
	_ZNK17CServProviderBase8SockTypeEv @ 1276 NONAME
	_ZNK19CProtocolFamilyBase21QueryVersionSupportedERK8TVersion @ 1277 NONAME
	_ZNK19TSubConnectionEvent6CloneLEv @ 1278 NONAME
	_ZNK19TSubConnectionEvent6LengthEv @ 1279 NONAME
	_ZNK20CConnectionProvdBase2IdEv @ 1280 NONAME
	_ZNK20CParameterBundleBase5StoreER5TDes8 @ 1281 NONAME
	_ZNK20CParameterBundleBase6LengthEv @ 1282 NONAME
	_ZNK21TNotificationEventBuf2IdEv @ 1283 NONAME
	_ZNK21TNotificationEventBuf7GroupIdEv @ 1284 NONAME
	_ZNK21TNotificationEventBuf9IsGenericEv @ 1285 NONAME
	_ZNK22CParameterSetContainer5StoreER5TDes8 @ 1286 NONAME
	_ZNK22CParameterSetContainer6LengthEv @ 1287 NONAME
	_ZNK22CSubConParameterBundle5StoreER5TDes8 @ 1288 NONAME
	_ZNK22CSubConParameterBundle6LengthEv @ 1289 NONAME
	_ZNK22CSubConParameterFamily5StoreER5TDes8 @ 1290 NONAME
	_ZNK22CSubConParameterFamily6LengthEv @ 1291 NONAME
	_ZNK22RSubConParameterBundle5StoreER5TDes8 @ 1292 NONAME
	_ZNK22RSubConParameterBundle6LengthEv @ 1293 NONAME
	_ZNK24CSubConNotificationEvent2IdEv @ 1294 NONAME
	_ZNK24CSubConNotificationEvent7GroupIdEv @ 1295 NONAME
	_ZNK24CSubConNotificationEvent9IsGenericEv @ 1296 NONAME
	_ZNK5ESock10TSigBundle12GetAttribPtrEi @ 1297 NONAME
	_ZNK5ESock10TSigBundle13GetVDataTableEv @ 1298 NONAME
	_ZNK5ESock10TSigNumber12GetAttribPtrEi @ 1299 NONAME
	_ZNK5ESock10TSigNumber13GetVDataTableEv @ 1300 NONAME
	_ZNK5ESock11AApiExtBase20SupportsExtInterfaceE21TSupportedCommsApiExt @ 1301 NONAME
	_ZNK5ESock11ACFNodeBase10AssignPeerERNS_16TCFSignatureBaseE @ 1302 NONAME
	_ZNK5ESock11ACFNodeBase10FindClientERKNS_8TCommsIdE @ 1303 NONAME
	_ZNK5ESock11ACFNodeBase11FindClientLERKNS_8TCommsIdE @ 1304 NONAME
	_ZNK5ESock11ACFNodeBase12CountClientsERNS_15TClientIterBaseE @ 1305 NONAME
	_ZNK5ESock11ACFNodeBase13PostToClientsERNS_15TClientIterBaseERKNS_18TCFESockSignalBaseE @ 1306 NONAME
	_ZNK5ESock11ACFNodeBase15CountActivitiesEh @ 1307 NONAME
	_ZNK5ESock11ACFNodeBase16FindActivityByIdEj @ 1308 NONAME
	_ZNK5ESock11ACFNodeBase18CountAllActivitiesEh @ 1309 NONAME
	_ZNK5ESock11ACFNodeBase18CountAllActivitiesEv @ 1310 NONAME
	_ZNK5ESock11ACFNodeBase21FindAddressedActivityERKNS_16TCFSignatureBaseE @ 1311 NONAME
	_ZNK5ESock11TSigCommsId12GetAttribPtrEi @ 1312 NONAME
	_ZNK5ESock11TSigCommsId13GetVDataTableEv @ 1313 NONAME
	_ZNK5ESock13ACFNodeIdBase6NodeIdEv @ 1314 NONAME
	_ZNK5ESock13AContextStore20RetryingForMessageIdEv @ 1315 NONAME
	_ZNK5ESock13AContextStore8IsStoredEv @ 1316 NONAME
	_ZNK5ESock13TSigAnyNumber12GetAttribPtrEi @ 1317 NONAME
	_ZNK5ESock13TSigAnyNumber13GetVDataTableEv @ 1318 NONAME
	_ZNK5ESock13TSigRMessage212GetAttribPtrEi @ 1319 NONAME
	_ZNK5ESock13TSigRMessage213GetVDataTableEv @ 1320 NONAME
	_ZNK5ESock14AIPCClientInfo13ClientUidTypeEjR8TUidType @ 1321 NONAME
	_ZNK5ESock14AIPCClientInfo17OpenClientProcessEjR8RProcess @ 1322 NONAME
	_ZNK5ESock14AIPCClientInfo9ClientSidEjR9TSecureId @ 1323 NONAME
	_ZNK5ESock14RNodeInterface11PostMessageERKNS_18TCFESockSignalBaseE @ 1324 NONAME
	_ZNK5ESock14RNodeInterface11RecipientIdEv @ 1325 NONAME
	_ZNK5ESock14RNodeInterface16PostMessageBlobLERKNS_18TCFESockSignalBaseE @ 1326 NONAME
	_ZNK5ESock14TSigAddrUpdate12GetAttribPtrEi @ 1327 NONAME
	_ZNK5ESock14TSigAddrUpdate13GetVDataTableEv @ 1328 NONAME
	_ZNK5ESock14TSigCommsIdAny12GetAttribPtrEi @ 1329 NONAME
	_ZNK5ESock14TSigCommsIdAny13GetVDataTableEv @ 1330 NONAME
	_ZNK5ESock14TSigErrContext12GetAttribPtrEi @ 1331 NONAME
	_ZNK5ESock14TSigErrContext13GetVDataTableEv @ 1332 NONAME
	_ZNK5ESock15ACFMMNodeIdBase6NodeIdEv @ 1333 NONAME
	_ZNK5ESock15TSelectionPrefs12GetAttribPtrEi @ 1334 NONAME
	_ZNK5ESock15TSelectionPrefs13GetVDataTableEv @ 1335 NONAME
	_ZNK5ESock15TSigCommsBinder12GetAttribPtrEi @ 1336 NONAME
	_ZNK5ESock15TSigCommsBinder13GetVDataTableEv @ 1337 NONAME
	_ZNK5ESock15TSigErrResponse12GetAttribPtrEi @ 1338 NONAME
	_ZNK5ESock15TSigErrResponse13GetVDataTableEv @ 1339 NONAME
	_ZNK5ESock15TSigMetaDataPtr12GetAttribPtrEi @ 1340 NONAME
	_ZNK5ESock15TSigMetaDataPtr13GetVDataTableEv @ 1341 NONAME
	_ZNK5ESock15TSigStateChange12GetAttribPtrEi @ 1342 NONAME
	_ZNK5ESock15TSigStateChange13GetVDataTableEv @ 1343 NONAME
	_ZNK5ESock16CCommsDatIapView18GetBearerTableTypeEv @ 1344 NONAME
	_ZNK5ESock16CCommsDatIapView19GetServiceTableTypeEv @ 1345 NONAME
	_ZNK5ESock16TCFSignatureBase12GetAttribPtrEi @ 1346 NONAME
	_ZNK5ESock16TCFSignatureBase12PostToSenderERKS0_ @ 1347 NONAME
	_ZNK5ESock16TCFSignatureBase13GetVDataTableEv @ 1348 NONAME
	_ZNK5ESock16TSigNumberNumber12GetAttribPtrEi @ 1349 NONAME
	_ZNK5ESock16TSigNumberNumber13GetVDataTableEv @ 1350 NONAME
	_ZNK5ESock16XCommsDataObject12GetAttribPtrEi @ 1351 NONAME
	_ZNK5ESock16XCommsDataObject13GetVDataTableEv @ 1352 NONAME
	_ZNK5ESock17CCommsFactoryBase10FindObjectERNS_18MCommsFactoryQueryE @ 1353 NONAME
	_ZNK5ESock17CCommsFactoryBase3UidEv @ 1354 NONAME
	_ZNK5ESock17TCFNodeSignalBase12GetAttribPtrEi @ 1355 NONAME
	_ZNK5ESock17TCFNodeSignalBase13GetVDataTableEv @ 1356 NONAME
	_ZNK5ESock17TCFNodeSignalBase6PostToERKNS_8TCommsIdE @ 1357 NONAME
	_ZNK5ESock17TSigCommsIdNumber12GetAttribPtrEi @ 1358 NONAME
	_ZNK5ESock17TSigCommsIdNumber13GetVDataTableEv @ 1359 NONAME
	_ZNK5ESock17TSigSubConnParams12GetAttribPtrEi @ 1360 NONAME
	_ZNK5ESock17TSigSubConnParams13GetVDataTableEv @ 1361 NONAME
	_ZNK5ESock18CAccessPointConfig12GetAttribPtrEi @ 1362 NONAME
	_ZNK5ESock18CAccessPointConfig13FindExtensionERKN4Meta7STypeIdE @ 1363 NONAME
	_ZNK5ESock18CAccessPointConfig13GetVDataTableEv @ 1364 NONAME
	_ZNK5ESock18CAccessPointConfig14FindExtensionLERKN4Meta7STypeIdE @ 1365 NONAME
	_ZNK5ESock18CAccessPointConfig15RemoveExtensionERKN4Meta7STypeIdE @ 1366 NONAME
	_ZNK5ESock18CAccessPointConfig16AppendExtensionLEPKN4Meta9SMetaDataE @ 1367 NONAME
	_ZNK5ESock18CAccessPointConfig25RemoveAndDestroyExtensionERKN4Meta7STypeIdE @ 1368 NONAME
	_ZNK5ESock18CCommsProviderBase17AccessPointConfigEv @ 1369 NONAME
	_ZNK5ESock18TCFESockSignalBase12GetAttribPtrEi @ 1370 NONAME
	_ZNK5ESock18TCFESockSignalBase12PostToSenderERKS0_ @ 1371 NONAME
	_ZNK5ESock18TCFESockSignalBase13GetVDataTableEv @ 1372 NONAME
	_ZNK5ESock18TCFESockSignalBase6PostToERKNS_8TCommsIdE @ 1373 NONAME
	_ZNK5ESock18TCFNodeContextBase10ActivityIdEv @ 1374 NONAME
	_ZNK5ESock18TSigCommsIdCommsId12GetAttribPtrEi @ 1375 NONAME
	_ZNK5ESock18TSigCommsIdCommsId13GetVDataTableEv @ 1376 NONAME
	_ZNK5ESock18TSigConnectionInfo12GetAttribPtrEi @ 1377 NONAME
	_ZNK5ESock18TSigConnectionInfo13GetVDataTableEv @ 1378 NONAME
	_ZNK5ESock18TSigSelectComplete12GetAttribPtrEi @ 1379 NONAME
	_ZNK5ESock18TSigSelectComplete13GetVDataTableEv @ 1380 NONAME
	_ZNK5ESock18TSigSelectionPrefs12GetAttribPtrEi @ 1381 NONAME
	_ZNK5ESock18TSigSelectionPrefs13GetVDataTableEv @ 1382 NONAME
	_ZNK5ESock19CCFMessageHookEntry5MatchERKN7CommsFW23TCFDeregisterHookSignalE @ 1383 NONAME
	_ZNK5ESock19CCFMessageHookEntry6NotifyERKN7CommsFW13TCFSignalBaseE @ 1384 NONAME
	_ZNK5ESock19CCFNodeActivityBase10ActivityIdEv @ 1385 NONAME
	_ZNK5ESock19CCFNodeActivityBase6IsIdleEv @ 1386 NONAME
	_ZNK5ESock19TGetOrSetParameters12GetAttribPtrEi @ 1387 NONAME
	_ZNK5ESock19TGetOrSetParameters13GetVDataTableEv @ 1388 NONAME
	_ZNK5ESock19TSigBundleRMessage212GetAttribPtrEi @ 1389 NONAME
	_ZNK5ESock19TSigBundleRMessage213GetVDataTableEv @ 1390 NONAME
	_ZNK5ESock19TSigMessageIdNumber12GetAttribPtrEi @ 1391 NONAME
	_ZNK5ESock19TSigMessageIdNumber13GetVDataTableEv @ 1392 NONAME
	_ZNK5ESock19TSigNumberRMessage212GetAttribPtrEi @ 1393 NONAME
	_ZNK5ESock19TSigNumberRMessage213GetVDataTableEv @ 1394 NONAME
	_ZNK5ESock19TSigProvisionConfig12GetAttribPtrEi @ 1395 NONAME
	_ZNK5ESock19TSigProvisionConfig13GetVDataTableEv @ 1396 NONAME
	_ZNK5ESock19TTransportHookError12GetAttribPtrEi @ 1397 NONAME
	_ZNK5ESock19TTransportHookError13GetVDataTableEv @ 1398 NONAME
	_ZNK5ESock20CCommsDataObjectBase5StoreER5TDes8 @ 1399 NONAME
	_ZNK5ESock20CCommsDataObjectBase6LengthEv @ 1400 NONAME
	_ZNK5ESock20CMMCommsProviderBase20GetAccessPointConfigEv @ 1401 NONAME
	_ZNK5ESock21AIPCClientPlatsecInfo11CheckPolicyEjRK15TSecurityPolicy @ 1402 NONAME
	_ZNK5ESock21AIPCClientPlatsecInfo14HasCapabilityLEj11TCapability @ 1403 NONAME
	_ZNK5ESock21AIPCClientPlatsecInfo8SecureIdEjR9TSecureId @ 1404 NONAME
	_ZNK5ESock21AIPCClientPlatsecInfo8VendorIdEjR9TVendorId @ 1405 NONAME
	_ZNK5ESock21RNodeChannelInterface18RecipientChannelIdEv @ 1406 NONAME
	_ZNK5ESock21TConnProviderInfoPref4InfoEv @ 1407 NONAME
	_ZNK5ESock21TSigCommsBinderNumber12GetAttribPtrEi @ 1408 NONAME
	_ZNK5ESock21TSigCommsBinderNumber13GetVDataTableEv @ 1409 NONAME
	_ZNK5ESock22CSubConnectionFlowBase12ProtocolIntfEv @ 1410 NONAME
	_ZNK5ESock22TCFRegisterMessageHook12GetAttribPtrEi @ 1411 NONAME
	_ZNK5ESock22TCFRegisterMessageHook13GetVDataTableEv @ 1412 NONAME
	_ZNK5ESock22TCFRegisterMessageHook13NewHookEntryLEv @ 1413 NONAME
	_ZNK5ESock22TSigAvailabilityStatus12GetAttribPtrEi @ 1414 NONAME
	_ZNK5ESock22TSigAvailabilityStatus13GetVDataTableEv @ 1415 NONAME
	_ZNK5ESock22TSigNumberNumberNumber12GetAttribPtrEi @ 1416 NONAME
	_ZNK5ESock22TSigNumberNumberNumber13GetVDataTableEv @ 1417 NONAME
	_ZNK5ESock22TSigSubConNotification12GetAttribPtrEi @ 1418 NONAME
	_ZNK5ESock22TSigSubConNotification13GetVDataTableEv @ 1419 NONAME
	_ZNK5ESock22TSigSubConnClosedEvent12GetAttribPtrEi @ 1420 NONAME
	_ZNK5ESock22TSigSubConnClosedEvent13GetVDataTableEv @ 1421 NONAME
	_ZNK5ESock22TSigSubConnOpenedEvent12GetAttribPtrEi @ 1422 NONAME
	_ZNK5ESock22TSigSubConnOpenedEvent13GetVDataTableEv @ 1423 NONAME
	_ZNK5ESock23TSafeMessageCarrierBase12GetAttribPtrEi @ 1424 NONAME
	_ZNK5ESock23TSafeMessageCarrierBase13GetVDataTableEv @ 1425 NONAME
	_ZNK5ESock23TSafeRequestCarrierEast12GetAttribPtrEi @ 1426 NONAME
	_ZNK5ESock23TSafeRequestCarrierEast13GetVDataTableEv @ 1427 NONAME
	_ZNK5ESock23TSigCommsIdNumberNumber12GetAttribPtrEi @ 1428 NONAME
	_ZNK5ESock23TSigCommsIdNumberNumber13GetVDataTableEv @ 1429 NONAME
	_ZNK5ESock23TSigFactoryObjectParams12GetAttribPtrEi @ 1430 NONAME
	_ZNK5ESock23TSigFactoryObjectParams13GetVDataTableEv @ 1431 NONAME
	_ZNK5ESock24ASubSessionPlatsecApiExt11CheckPolicyERK15TSecurityPolicy @ 1432 NONAME
	_ZNK5ESock24ASubSessionPlatsecApiExt14HasCapabilityLE11TCapability @ 1433 NONAME
	_ZNK5ESock24ASubSessionPlatsecApiExt8SecureIdER9TSecureId @ 1434 NONAME
	_ZNK5ESock24ASubSessionPlatsecApiExt8VendorIdER9TVendorId @ 1435 NONAME
	_ZNK5ESock24CConfigAccessPointConfig11LayerExistsERKNS_23TConfigAccessPointLayerE @ 1436 NONAME
	_ZNK5ESock24CConfigAccessPointConfig12GetAttribPtrEi @ 1437 NONAME
	_ZNK5ESock24CConfigAccessPointConfig13GetLayerCountEv @ 1438 NONAME
	_ZNK5ESock24CConfigAccessPointConfig13GetTopLayersLE4TUidR13RPointerArrayINS_23TConfigAccessPointLayerEE @ 1439 NONAME
	_ZNK5ESock24CConfigAccessPointConfig13GetVDataTableEv @ 1440 NONAME
	_ZNK5ESock24CConfigAccessPointConfig5SCprsEv @ 1441 NONAME
	_ZNK5ESock24CConfigAccessPointConfig9GetLayerLEj @ 1442 NONAME
	_ZNK5ESock24TCFDeregisterMessageHook12GetAttribPtrEi @ 1443 NONAME
	_ZNK5ESock24TCFDeregisterMessageHook13GetVDataTableEv @ 1444 NONAME
	_ZNK5ESock24TSafeResponseCarrierWest12GetAttribPtrEi @ 1445 NONAME
	_ZNK5ESock24TSafeResponseCarrierWest13GetVDataTableEv @ 1446 NONAME
	_ZNK5ESock24TSigCommsIdCommsIdNumber12GetAttribPtrEi @ 1447 NONAME
	_ZNK5ESock24TSigCommsIdCommsIdNumber13GetVDataTableEv @ 1448 NONAME
	_ZNK5ESock25TCFSigRMessage2PlatsecExt11CheckPolicyERK15TSecurityPolicy @ 1449 NONAME
	_ZNK5ESock25TCFSigRMessage2PlatsecExt14HasCapabilityLE11TCapability @ 1450 NONAME
	_ZNK5ESock25TCFSigRMessage2PlatsecExt8SecureIdER9TSecureId @ 1451 NONAME
	_ZNK5ESock25TCFSigRMessage2PlatsecExt8VendorIdER9TVendorId @ 1452 NONAME
	_ZNK5ESock26TDeferredSelectionPrefsExt12GetAttribPtrEi @ 1453 NONAME
	_ZNK5ESock26TDeferredSelectionPrefsExt13GetVDataTableEv @ 1454 NONAME
	_ZNK5ESock27CCFNodeParallelActivityBase10ActivityIdEv @ 1455 NONAME
	_ZNK5ESock27CCFNodeSynchronisedActivity6IsIdleEv @ 1456 NONAME
	_ZNK5ESock27CConnectionFactoryContainer11FindFactoryE4TUid @ 1457 NONAME
	_ZNK5ESock27CMetaConnectionProviderBase12ProviderInfoEv @ 1458 NONAME
	_ZNK5ESock27TOverridenSelectionPrefsExt12GetAttribPtrEi @ 1459 NONAME
	_ZNK5ESock27TOverridenSelectionPrefsExt13GetVDataTableEv @ 1460 NONAME
	_ZNK5ESock28TSigNumberNumberNumberNumber12GetAttribPtrEi @ 1461 NONAME
	_ZNK5ESock28TSigNumberNumberNumberNumber13GetVDataTableEv @ 1462 NONAME
	_ZNK5ESock29CProtocolIntfFactoryContainer11FindFactoryE4TUid @ 1463 NONAME
	_ZNK5ESock30CSubConnectionFactoryContainer11FindFactoryE4TUid @ 1464 NONAME
	_ZNK5ESock31CMetaConnectionFactoryContainer11FindFactoryE4TUid @ 1465 NONAME
	_ZNK5ESock32TSigCommsBinderMetaDataPtrNumber12GetAttribPtrEi @ 1466 NONAME
	_ZNK5ESock32TSigCommsBinderMetaDataPtrNumber13GetVDataTableEv @ 1467 NONAME
	_ZNK5ESock34CSubConnectionFlowFactoryContainer11FindFactoryE4TUid @ 1468 NONAME
	_ZNK5ESock35CCFNodeSynchronisedParallelActivity6IsIdleEv @ 1469 NONAME
	_ZNK5ESock35TDataMonitoringConnProvisioningInfo12GetAttribPtrEi @ 1470 NONAME
	_ZNK5ESock35TDataMonitoringConnProvisioningInfo13GetVDataTableEv @ 1471 NONAME
	_ZNK5ESock35TDataMonitoringProvisioningInfoBase12GetAttribPtrEi @ 1472 NONAME
	_ZNK5ESock35TDataMonitoringProvisioningInfoBase13GetVDataTableEv @ 1473 NONAME
	_ZNK5ESock35TSigAvailabilitySubscriptionOptions12GetAttribPtrEi @ 1474 NONAME
	_ZNK5ESock35TSigAvailabilitySubscriptionOptions13GetVDataTableEv @ 1475 NONAME
	_ZNK5ESock38TDataMonitoringSubConnProvisioningInfo12GetAttribPtrEi @ 1476 NONAME
	_ZNK5ESock38TDataMonitoringSubConnProvisioningInfo13GetVDataTableEv @ 1477 NONAME
	_ZNK5ESock7TSigAny12GetAttribPtrEi @ 1478 NONAME
	_ZNK5ESock7TSigAny13GetVDataTableEv @ 1479 NONAME
	_ZNK5ESock7TSigUid12GetAttribPtrEi @ 1480 NONAME
	_ZNK5ESock7TSigUid13GetVDataTableEv @ 1481 NONAME
	_ZNK7CPlayer10SubSessionERKj @ 1482 NONAME
	_ZNK9TConnPref11ExtensionIdEv @ 1483 NONAME
	_ZNK9TSockAddr4PortEv @ 1484 NONAME
	_ZNK9TSockAddr6FamilyEv @ 1485 NONAME
	_ZNK9TSockAddr7CmpPortERKS_ @ 1486 NONAME
	_ZTI11RConnection @ 1487 NONAME
	_ZTI12CSockManData @ 1488 NONAME
	_ZTI13CESockIniData @ 1489 NONAME
	_ZTI13CProtocolBase @ 1490 NONAME
	_ZTI13XParameterSet @ 1491 NONAME
	_ZTI14TBinderConfig4 @ 1492 NONAME
	_ZTI14TBinderConfig6 @ 1493 NONAME
	_ZTI17CServProviderBase @ 1494 NONAME
	_ZTI18CResolverProvdBase @ 1495 NONAME
	_ZTI18CSocketServExtBase @ 1496 NONAME
	_ZTI18TCommsApiExtReqMsg @ 1497 NONAME
	_ZTI19CProtocolFamilyBase @ 1498 NONAME
	_ZTI19CSubConParameterSet @ 1499 NONAME
	_ZTI20CConnectionProvdBase @ 1500 NONAME
	_ZTI20CDefaultProtocolIntf @ 1501 NONAME
	_ZTI20CHostResolvProvdBase @ 1502 NONAME
	_ZTI20CParameterBundleBase @ 1503 NONAME
	_ZTI21CCommsMobilitySrvResp @ 1504 NONAME
	_ZTI22CParameterSetContainer @ 1505 NONAME
	_ZTI22CSubConParameterBundle @ 1506 NONAME
	_ZTI22CSubConParameterFamily @ 1507 NONAME
	_ZTI24XTierManagerFactoryQuery @ 1508 NONAME
	_ZTI26CActiveCommsMobilityApiExt @ 1509 NONAME
	_ZTI26CSubConGenericParameterSet @ 1510 NONAME
	_ZTI27CCommsSessionApiExtProvider @ 1511 NONAME
	_ZTI27CDefaultProtocolIntfFactory @ 1512 NONAME
	_ZTI28CSubConExtensionParameterSet @ 1513 NONAME
	_ZTI30CCommsSubSessionApiExtProvider @ 1514 NONAME
	_ZTIN10CoreStates10TDoNothingE @ 1515 NONAME
	_ZTIN10CoreStates11TClearErrorE @ 1516 NONAME
	_ZTIN10CoreStates11TStoreErrorE @ 1517 NONAME
	_ZTIN10CoreStates12TNeverAcceptE @ 1518 NONAME
	_ZTIN10CoreStates12TPeerPresentE @ 1519 NONAME
	_ZTIN10CoreStates13TAlwaysAcceptE @ 1520 NONAME
	_ZTIN10CoreStates13TAwaitingNULLE @ 1521 NONAME
	_ZTIN10CoreStates13TRemoveClientE @ 1522 NONAME
	_ZTIN10CoreStates14TNoTagBackwardE @ 1523 NONAME
	_ZTIN10CoreStates14TNoTagOrNoPeerE @ 1524 NONAME
	_ZTIN10CoreStates15TAwaitingCancelE @ 1525 NONAME
	_ZTIN10CoreStates16TAwaitingDestroyE @ 1526 NONAME
	_ZTIN10CoreStates16TNoTagOrErrorTagE @ 1527 NONAME
	_ZTIN10CoreStates17TNoTagOrNoClientsE @ 1528 NONAME
	_ZTIN10CoreStates18TPostToOriginatorsE @ 1529 NONAME
	_ZTIN10CoreStates19TAbortAllActivitiesE @ 1530 NONAME
	_ZTIN10CoreStates19TRaiseActivityErrorE @ 1531 NONAME
	_ZTIN10CoreStates20TAwaitingClientLeaveE @ 1532 NONAME
	_ZTIN10CoreStates20TAwaitingStateChangeE @ 1533 NONAME
	_ZTIN10CoreStates21TAwaitingJoinCompleteE @ 1534 NONAME
	_ZTIN10CoreStates21TSetIdleIfMoreClientsE @ 1535 NONAME
	_ZTIN10CoreStates22TAwaitingLeaveCompleteE @ 1536 NONAME ABSENT
	_ZTIN10CoreStates25TRetryOrIgnoreOrPropagateE @ 1537 NONAME
	_ZTIN10CoreStates27TRaiseAndClearActivityErrorE @ 1538 NONAME
	_ZTIN10CoreStates31TAbortAllActivitiesNodeDeletionE @ 1539 NONAME
	_ZTIN10CoreStates37TAwaitingErrorRecoveryResponseOrErrorE @ 1540 NONAME
	_ZTIN10CoreStates37TNoTagOrRecoverableErrorTagOrErrorTagE @ 1541 NONAME
	_ZTIN10CoreStates6TPanicE @ 1542 NONAME
	_ZTIN10CoreStates8TSetIdleE @ 1543 NONAME
	_ZTIN10CoreStates9TErrorTagE @ 1544 NONAME
	_ZTIN12PRActivities14CStartActivity38TAwaitingBindToRequestCompleteOrCancelE @ 1545 NONAME
	_ZTIN12PRActivities14CStartActivityE @ 1546 NONAME
	_ZTIN12PRActivities17CGoneDownActivityE @ 1547 NONAME
	_ZTIN12PRActivities20CCommsBinderActivity19TNoTagOrUseExistingE @ 1548 NONAME
	_ZTIN12PRActivities20CCommsBinderActivity19TSendBinderResponseE @ 1549 NONAME
	_ZTIN12PRActivities20CCommsBinderActivity19TStorePendingBinderE @ 1550 NONAME
	_ZTIN12PRActivities20CCommsBinderActivity23TAwaitingBindToCompleteE @ 1551 NONAME
	_ZTIN12PRActivities20CCommsBinderActivity36TNoTagOrWaitForIncomingOrUseExistingE @ 1552 NONAME
	_ZTIN12PRActivities20CCommsBinderActivity43TNoTagOrWaitForIncomingOrUseExistingDefaultE @ 1553 NONAME
	_ZTIN12PRActivities22CBindToRequestActivity17TCreateDataClientE @ 1554 NONAME
	_ZTIN12PRActivities22CBindToRequestActivity18TSendBindToRequestE @ 1555 NONAME
	_ZTIN12PRActivities22CBindToRequestActivity19TNoTagOrBearerReadyE @ 1556 NONAME
	_ZTIN12PRActivities22CBindToRequestActivity26TSendBindToRequestCompleteE @ 1557 NONAME
	_ZTIN12PRActivities22CBindToRequestActivity39TNoTagOrDataClientReadyOrBindToCompleteE @ 1558 NONAME
	_ZTIN12PRActivities22CBindToRequestActivityE @ 1559 NONAME
	_ZTIN12PRActivities24CBuildLowerLayerActivityE @ 1560 NONAME
	_ZTIN12PRActivities25CRejoinDataClientActivity12TApplyRejoinE @ 1561 NONAME
	_ZTIN12PRActivities25CRejoinDataClientActivity14TRejoinLoopTagE @ 1562 NONAME
	_ZTIN12PRActivities25CRejoinDataClientActivity17TRejoinDataClientE @ 1563 NONAME
	_ZTIN12PRActivities25CRejoinDataClientActivity21TAwaitingJoinCompleteE @ 1564 NONAME
	_ZTIN12PRActivities25CRejoinDataClientActivityE @ 1565 NONAME
	_ZTIN12PRActivities9CNoBearer19TRequestCommsBinderE @ 1566 NONAME
	_ZTIN12PRActivities9CNoBearer26TNoTagOrDataClientsToStartE @ 1567 NONAME
	_ZTIN12PRActivities9CNoBearer27TStartOriginatingDataClientE @ 1568 NONAME
	_ZTIN13CoreNetStates10TStartSelfE @ 1569 NONAME
	_ZTIN13CoreNetStates12TBearerReadyE @ 1570 NONAME
	_ZTIN13CoreNetStates12TSendStartedE @ 1571 NONAME
	_ZTIN13CoreNetStates13TAddAuxClientE @ 1572 NONAME
	_ZTIN13CoreNetStates13TAwaitingStopE @ 1573 NONAME
	_ZTIN13CoreNetStates13TNoTagOnEventE @ 1574 NONAME
	_ZTIN13CoreNetStates13TSendNoBearerE @ 1575 NONAME
	_ZTIN13CoreNetStates14TAddDataClientE @ 1576 NONAME
	_ZTIN13CoreNetStates14TAwaitingStartE @ 1577 NONAME
	_ZTIN13CoreNetStates14TBearerPresentE @ 1578 NONAME
	_ZTIN13CoreNetStates15TAwaitingBindToE @ 1579 NONAME
	_ZTIN13CoreNetStates15TLayerCompletedE @ 1580 NONAME
	_ZTIN13CoreNetStates16TAwaitingStartedE @ 1581 NONAME
	_ZTIN13CoreNetStates16TAwaitingStoppedE @ 1582 NONAME
	_ZTIN13CoreNetStates16TNoTagOrNoBearerE @ 1583 NONAME
	_ZTIN13CoreNetStates16TRemoveAuxClientE @ 1584 NONAME
	_ZTIN13CoreNetStates17TAwaitingGoneDownE @ 1585 NONAME
	_ZTIN13CoreNetStates17TAwaitingNoBearerE @ 1586 NONAME
	_ZTIN13CoreNetStates17TSendApplyRequestE @ 1587 NONAME
	_ZTIN13CoreNetStates18TAwaitingProvisionE @ 1588 NONAME
	_ZTIN13CoreNetStates18TDataClientPresentE @ 1589 NONAME
	_ZTIN13CoreNetStates18TNoTagOrNonDefaultE @ 1590 NONAME
	_ZTIN13CoreNetStates19TRequestCommsBinderE @ 1591 NONAME
	_ZTIN13CoreNetStates19TSendBindToCompleteE @ 1592 NONAME
	_ZTIN13CoreNetStates19TSendBindToResponseE @ 1593 NONAME
	_ZTIN13CoreNetStates19TSendDataClientIdleE @ 1594 NONAME
	_ZTIN13CoreNetStates19TSendRejoinCompleteE @ 1595 NONAME
	_ZTIN13CoreNetStates20TAwaitingReBindLayerE @ 1596 NONAME
	_ZTIN13CoreNetStates20TAwaitingSubConEventE @ 1597 NONAME
	_ZTIN13CoreNetStates20TNoTagOrUnbindOnStopE @ 1598 NONAME
	_ZTIN13CoreNetStates21THandleDataClientIdleE @ 1599 NONAME
	_ZTIN13CoreNetStates21TNoTagOrBearerPresentE @ 1600 NONAME
	_ZTIN13CoreNetStates21TNoTagOrNoDataClientsE @ 1601 NONAME
	_ZTIN13CoreNetStates21TSendDataClientActiveE @ 1602 NONAME
	_ZTIN13CoreNetStates21TStartServiceProviderE @ 1603 NONAME
	_ZTIN13CoreNetStates22TAwaitingApplyResponseE @ 1604 NONAME
	_ZTIN13CoreNetStates22TAwaitingBindToRequestE @ 1605 NONAME
	_ZTIN13CoreNetStates22TAwaitingBinderRequestE @ 1606 NONAME
	_ZTIN13CoreNetStates22TAwaitingParamResponseE @ 1607 NONAME
	_ZTIN13CoreNetStates22TCancelDataClientStartE @ 1608 NONAME
	_ZTIN13CoreNetStates23TAwaitingBindToCompleteE @ 1609 NONAME
	_ZTIN13CoreNetStates23TAwaitingBindToOrCancelE @ 1610 NONAME
	_ZTIN13CoreNetStates23TAwaitingBinderResponseE @ 1611 NONAME
	_ZTIN13CoreNetStates23TAwaitingDataClientIdleE @ 1612 NONAME
	_ZTIN13CoreNetStates23TAwaitingDataClientJoinE @ 1613 NONAME
	_ZTIN13CoreNetStates23TAwaitingDataClientStopE @ 1614 NONAME
	_ZTIN13CoreNetStates23TSendLowerLayerCompleteE @ 1615 NONAME
	_ZTIN13CoreNetStates24TAddDataClientAndRespondE @ 1616 NONAME
	_ZTIN13CoreNetStates24TAwaitingBuildLowerLayerE @ 1617 NONAME
	_ZTIN13CoreNetStates24TAwaitingDataClientStartE @ 1618 NONAME
	_ZTIN13CoreNetStates24TBindSelfToPresentBearerE @ 1619 NONAME
	_ZTIN13CoreNetStates24TForwardToControlClientsE @ 1620 NONAME
	_ZTIN13CoreNetStates25TAwaitingDataClientActiveE @ 1621 NONAME
	_ZTIN13CoreNetStates25TAwaitingDataClientRejoinE @ 1622 NONAME
	_ZTIN13CoreNetStates25TForwardToControlProviderE @ 1623 NONAME
	_ZTIN13CoreNetStates25TNoTagOrDataClientPresentE @ 1624 NONAME
	_ZTIN13CoreNetStates25TNoTagOrDataClientsToStopE @ 1625 NONAME
	_ZTIN13CoreNetStates26TAwaitingControlClientJoinE @ 1626 NONAME
	_ZTIN13CoreNetStates26TAwaitingDataClientStartedE @ 1627 NONAME
	_ZTIN13CoreNetStates26TAwaitingDataClientStoppedE @ 1628 NONAME
	_ZTIN13CoreNetStates27TAwaitingDataClientGoneDownE @ 1629 NONAME
	_ZTIN13CoreNetStates27TAwaitingDataClientsStoppedE @ 1630 NONAME
	_ZTIN13CoreNetStates27TAwaitingLowerLayerCompleteE @ 1631 NONAME
	_ZTIN13CoreNetStates27TNoTagOrNoDataClientsToStopE @ 1632 NONAME
	_ZTIN13CoreNetStates27TSendLeaveCompleteIfRequestE @ 1633 NONAME
	_ZTIN13CoreNetStates28TSetIdleIfNoServiceProvidersE @ 1634 NONAME
	_ZTIN13CoreNetStates29TAwaitingProviderStatusChangeE @ 1635 NONAME
	_ZTIN13CoreNetStates29TSendControlClientJoinRequestE @ 1636 NONAME
	_ZTIN13CoreNetStates30TAwaitingBindToRequestCompleteE @ 1637 NONAME
	_ZTIN13CoreNetStates30TAwaitingDataClientJoinRequestE @ 1638 NONAME
	_ZTIN13CoreNetStates30TSendDataClientIdleIfNoClientsE @ 1639 NONAME
	_ZTIN13CoreNetStates31TNoTagOrBearerPresentOrErrorTagE @ 1640 NONAME
	_ZTIN13CoreNetStates32TNoTagBackwardsOrProviderStoppedE @ 1641 NONAME
	_ZTIN13CoreNetStates33TAwaitingReJoinDataClientCompleteE @ 1642 NONAME
	_ZTIN13CoreNetStates40TAwaitingDataClientRejoinOrApplyOrCancelE @ 1643 NONAME
	_ZTIN13CoreNetStates42TSendClientLeavingAndRemoveControlProviderE @ 1644 NONAME
	_ZTIN13CoreNetStates42TSendClientLeavingAndRemoveServiceProviderE @ 1645 NONAME
	_ZTIN13CoreNetStates42TSendClientLeavingRequestToServiceProviderE @ 1646 NONAME
	_ZTIN13CoreNetStates43TSendClientLeavingRequestToServiceProvidersE @ 1647 NONAME
	_ZTIN13CoreNetStates45TAddControlClientAndSendJoinCompleteIfRequestE @ 1648 NONAME
	_ZTIN13CoreNetStates62TSendClientLeavingAndRemoveControlProviderIfNoServiceProvidersE @ 1649 NONAME
	_ZTIN13CoreNetStates9TBindSelfE @ 1650 NONAME
	_ZTIN13CoreNetStates9TSendStopE @ 1651 NONAME
	_ZTIN13CoreNetStates9TStopSelfE @ 1652 NONAME
	_ZTIN14ConnActivities20CStartAttachActivityE @ 1653 NONAME
	_ZTIN14ConnectionServ19CConnectionServImplE @ 1654 NONAME
	_ZTIN14ConnectionServ25CAccessPointStatusRequestE @ 1655 NONAME
	_ZTIN14ConnectionServ31CAccessPointNotificationRequestE @ 1656 NONAME
	_ZTIN14CoreActivities14CErrorActivity14TAwaitingErrorE @ 1657 NONAME
	_ZTIN14CoreActivities14CErrorActivity16TDoErrorRecoveryE @ 1658 NONAME
	_ZTIN14CoreActivities14CErrorActivity21TSendErrorRecoveryReqE @ 1659 NONAME
	_ZTIN14CoreActivities14CErrorActivityE @ 1660 NONAME
	_ZTIN14CoreActivities16ABindingActivity19TSendBindToCompleteE @ 1661 NONAME
	_ZTIN14CoreActivities16ABindingActivity29TSendBindToCompleteIfExpectedE @ 1662 NONAME
	_ZTIN14CoreActivities16ABindingActivityE @ 1663 NONAME
	_ZTIN14CoreActivities16CDestroyActivity22TNoTagOrNoTagBackwardsE @ 1664 NONAME
	_ZTIN14CoreActivities16CDestroyActivity37TMakeClientsLeaveOrProcessClientLeaveE @ 1665 NONAME
	_ZTIN14CoreActivities16CDestroyActivityE @ 1666 NONAME
	_ZTIN14CoreActivities18ACountLoopActivity22TNoTagOrNoTagBackwardsE @ 1667 NONAME
	_ZTIN14CoreActivities18ACountLoopActivityE @ 1668 NONAME
	_ZTIN14CoreActivities22CCountLoopActivityBaseE @ 1669 NONAME
	_ZTIN17SubConnActivities14CSetParametersE @ 1670 NONAME
	_ZTIN17SubConnActivities18CEventNotificationE @ 1671 NONAME
	_ZTIN17SubConnActivities7CCreateE @ 1672 NONAME
	_ZTIN17SubConnActivities7CReJoinE @ 1673 NONAME
	_ZTIN17SubSessActivities14CCloseActivityE @ 1674 NONAME
	_ZTIN17SubSessActivities24CESockClientActivityBaseE @ 1675 NONAME
	_ZTIN24PRDataClientStopActivity23TNoTagOrProviderStoppedE @ 1676 NONAME
	_ZTIN4Meta11TMetaObjectIN5ESock15TSelectionPrefsEEE @ 1677 NONAME
	_ZTIN4Meta18RMetaDataContainerIN5ESock20XConnectionQueryBaseEEE @ 1678 NONAME
	_ZTIN4Meta18RMetaDataContainerINS_13SMetaDataEComEEE @ 1679 NONAME
	_ZTIN4Meta5TMetaI12TNifProgressEE @ 1680 NONAME
	_ZTIN4Meta5TMetaI15TConnectionInfoEE @ 1681 NONAME
	_ZTIN4Meta5TMetaI21TSupportedCommsApiExtEE @ 1682 NONAME
	_ZTIN4Meta5TMetaI25TSubConnectionClosedEventEE @ 1683 NONAME
	_ZTIN4Meta5TMetaI25TSubConnectionOpenedEventEE @ 1684 NONAME
	_ZTIN4Meta5TMetaI4TUidEE @ 1685 NONAME
	_ZTIN4Meta5TMetaI5TBuf8ILi124EEEE @ 1686 NONAME
	_ZTIN4Meta5TMetaI9RMessage2EE @ 1687 NONAME
	_ZTIN4Meta5TMetaI9TConnPrefEE @ 1688 NONAME
	_ZTIN4Meta5TMetaIN5ESock11TAddrUpdateEEE @ 1689 NONAME
	_ZTIN4Meta5TMetaIN5ESock11TErrContextEEE @ 1690 NONAME
	_ZTIN4Meta5TMetaIN5ESock12TCommsBinderEEE @ 1691 NONAME
	_ZTIN4Meta5TMetaIN5ESock12TErrResponseEEE @ 1692 NONAME
	_ZTIN4Meta5TMetaIN5ESock13TProviderInfoEEE @ 1693 NONAME
	_ZTIN4Meta5TMetaIN5ESock14RNodeInterfaceEEE @ 1694 NONAME
	_ZTIN4Meta5TMetaIN5ESock17TCFNodeSignalBase10TMessageIdEEE @ 1695 NONAME
	_ZTIN4Meta5TMetaIN5ESock19TAvailabilityStatusEEE @ 1696 NONAME
	_ZTIN4Meta5TMetaIN5ESock20TFactoryObjectParamsEEE @ 1697 NONAME
	_ZTIN4Meta5TMetaIN5ESock24TCprGetConnectionSetting22TConnectionSettingTypeEEE @ 1698 NONAME
	_ZTIN4Meta5TMetaIN5ESock24TDataMonitoringDirectionEEE @ 1699 NONAME
	_ZTIN4Meta5TMetaIN5ESock32TAvailabilitySubscriptionOptionsEEE @ 1700 NONAME
	_ZTIN4Meta5TMetaIN5ESock8TCommsIdEEE @ 1701 NONAME
	_ZTIN4Meta5TMetaIN8Elements12RResponseMsgEEE @ 1702 NONAME
	_ZTIN4Meta5TMetaIP13RPointerArrayI15TConnectionInfoEEE @ 1703 NONAME
	_ZTIN4Meta5TMetaIP22CSubConParameterBundleEE @ 1704 NONAME
	_ZTIN4Meta5TMetaIP9RMessage2EE @ 1705 NONAME
	_ZTIN4Meta5TMetaIPKNS_9SMetaDataEEE @ 1706 NONAME
	_ZTIN4Meta5TMetaIPN5ESock14CRefCountOwnerIK24CSubConNotificationEventEEEE @ 1707 NONAME
	_ZTIN4Meta5TMetaIPN5ESock35TDataMonitoringProvisioningInfoBaseEEE @ 1708 NONAME
	_ZTIN4Meta5TMetaIPNS_9SMetaDataEEE @ 1709 NONAME
	_ZTIN4Meta5TMetaIPPN5ESock16XCommsDataObjectEEE @ 1710 NONAME
	_ZTIN4Meta5TMetaIPvEE @ 1711 NONAME
	_ZTIN4Meta5TMetaIiEE @ 1712 NONAME
	_ZTIN4Meta5TMetaIjEE @ 1713 NONAME
	_ZTIN5ESock10TSigBundleE @ 1714 NONAME
	_ZTIN5ESock10TSigNumberE @ 1715 NONAME
	_ZTIN5ESock11AApiExtBaseE @ 1716 NONAME
	_ZTIN5ESock11ACFNodeBaseE @ 1717 NONAME
	_ZTIN5ESock11TSigCommsIdE @ 1718 NONAME
	_ZTIN5ESock12CNetworkFlowE @ 1719 NONAME
	_ZTIN5ESock13ACFNodeIdBaseE @ 1720 NONAME
	_ZTIN5ESock13MLowerControlE @ 1721 NONAME
	_ZTIN5ESock13TCprSendIoctlE @ 1722 NONAME
	_ZTIN5ESock13TSigAnyNumberE @ 1723 NONAME
	_ZTIN5ESock13TSigRMessage2E @ 1724 NONAME
	_ZTIN5ESock14AFactoryObjectE @ 1725 NONAME
	_ZTIN5ESock14TSigAddrUpdateE @ 1726 NONAME
	_ZTIN5ESock14TSigCommsIdAnyE @ 1727 NONAME
	_ZTIN5ESock14TSigErrContextE @ 1728 NONAME
	_ZTIN5ESock15ACFMMNodeIdBaseE @ 1729 NONAME
	_ZTIN5ESock15CCFMessageHooksE @ 1730 NONAME
	_ZTIN5ESock15CConnectionInfoE @ 1731 NONAME
	_ZTIN5ESock15TCprCancelIoctlE @ 1732 NONAME
	_ZTIN5ESock15TSelectionPrefsE @ 1733 NONAME
	_ZTIN5ESock15TSigCommsBinderE @ 1734 NONAME
	_ZTIN5ESock15TSigErrResponseE @ 1735 NONAME
	_ZTIN5ESock15TSigMetaDataPtrE @ 1736 NONAME
	_ZTIN5ESock15TSigStateChangeE @ 1737 NONAME
	_ZTIN5ESock16CCommsDatIapViewE @ 1738 NONAME
	_ZTIN5ESock16CTierManagerBaseE @ 1739 NONAME
	_ZTIN5ESock16TCFSignatureBaseE @ 1740 NONAME
	_ZTIN5ESock16TSigNumberNumberE @ 1741 NONAME
	_ZTIN5ESock16XCommsDataObjectE @ 1742 NONAME
	_ZTIN5ESock17CCommsFactoryBaseE @ 1743 NONAME
	_ZTIN5ESock17CMMSockSubSessionE @ 1744 NONAME
	_ZTIN5ESock17CProtocolIntfBaseE @ 1745 NONAME
	_ZTIN5ESock17CSelectionRequestE @ 1746 NONAME
	_ZTIN5ESock17TCFNodeSignalBaseE @ 1747 NONAME
	_ZTIN5ESock17TSigCommsIdNumberE @ 1748 NONAME
	_ZTIN5ESock17TSigSubConnParamsE @ 1749 NONAME
	_ZTIN5ESock18CAccessPointConfigE @ 1750 NONAME
	_ZTIN5ESock18CRefCountOwnerBaseE @ 1751 NONAME
	_ZTIN5ESock18CTransportFlowShimE @ 1752 NONAME
	_ZTIN5ESock18MFlowBinderControlE @ 1753 NONAME
	_ZTIN5ESock18TCFESockSignalBaseE @ 1754 NONAME
	_ZTIN5ESock18TCFFlowRequestBaseE @ 1755 NONAME
	_ZTIN5ESock18TCFSigRMessage2ExtE @ 1756 NONAME
	_ZTIN5ESock18TSigCommsIdCommsIdE @ 1757 NONAME
	_ZTIN5ESock18TSigConnectionInfoE @ 1758 NONAME
	_ZTIN5ESock18TSigSelectCompleteE @ 1759 NONAME
	_ZTIN5ESock18TSigSelectionPrefsE @ 1760 NONAME
	_ZTIN5ESock19CCFMessageHookEntryE @ 1761 NONAME
	_ZTIN5ESock19CCFNodeActivityBaseE @ 1762 NONAME
	_ZTIN5ESock19TGetOrSetParametersE @ 1763 NONAME
	_ZTIN5ESock19TSigBundleRMessage2E @ 1764 NONAME
	_ZTIN5ESock19TSigMessageIdNumberE @ 1765 NONAME
	_ZTIN5ESock19TSigNumberRMessage2E @ 1766 NONAME
	_ZTIN5ESock19TSigProvisionConfigE @ 1767 NONAME
	_ZTIN5ESock19TTransportHookErrorE @ 1768 NONAME
	_ZTIN5ESock20CCommsDataObjectBaseE @ 1769 NONAME
	_ZTIN5ESock20CExtItfMsgPluginInfoE @ 1770 NONAME
	_ZTIN5ESock20CMMCommsProviderBaseE @ 1771 NONAME
	_ZTIN5ESock20TApiExtMsgDispatcherE @ 1772 NONAME
	_ZTIN5ESock20TCprRetrieveProgressE @ 1773 NONAME
	_ZTIN5ESock21CCommsApiExtResponderE @ 1774 NONAME
	_ZTIN5ESock21CProtocolConfigLoaderE @ 1775 NONAME
	_ZTIN5ESock21TLegacyControlMessageE @ 1776 NONAME
	_ZTIN5ESock21TSigCommsBinderNumberE @ 1777 NONAME
	_ZTIN5ESock22CSubConnectionFlowBaseE @ 1778 NONAME
	_ZTIN5ESock22TCFRegisterMessageHookE @ 1779 NONAME
	_ZTIN5ESock22TSigAvailabilityStatusE @ 1780 NONAME
	_ZTIN5ESock22TSigNumberNumberNumberE @ 1781 NONAME
	_ZTIN5ESock22TSigSubConNotificationE @ 1782 NONAME
	_ZTIN5ESock22TSigSubConnClosedEventE @ 1783 NONAME
	_ZTIN5ESock22TSigSubConnOpenedEventE @ 1784 NONAME
	_ZTIN5ESock23ADataMonitoringProviderE @ 1785 NONAME
	_ZTIN5ESock23CConnectionProviderBaseE @ 1786 NONAME
	_ZTIN5ESock23CTierManagerFactoryBaseE @ 1787 NONAME
	_ZTIN5ESock23TOpenExtensionInterfaceE @ 1788 NONAME
	_ZTIN5ESock23TSafeMessageCarrierBaseE @ 1789 NONAME
	_ZTIN5ESock23TSafeRequestCarrierEastE @ 1790 NONAME
	_ZTIN5ESock23TSigCommsIdNumberNumberE @ 1791 NONAME
	_ZTIN5ESock23TSigFactoryObjectParamsE @ 1792 NONAME
	_ZTIN5ESock23XConnectionFactoryQueryE @ 1793 NONAME
	_ZTIN5ESock24ASubSessionPlatsecApiExtE @ 1794 NONAME
	_ZTIN5ESock24CCommsApiExtIpcResponderE @ 1795 NONAME
	_ZTIN5ESock24CConfigAccessPointConfigE @ 1796 NONAME
	_ZTIN5ESock24CDataMonitoringResponderE @ 1797 NONAME
	_ZTIN5ESock24TCFDeregisterMessageHookE @ 1798 NONAME
	_ZTIN5ESock24TCloseExtensionInterfaceE @ 1799 NONAME
	_ZTIN5ESock24TConnFlowRequest_TplSpecE @ 1800 NONAME
	_ZTIN5ESock24TCprGetConnectionSettingE @ 1801 NONAME
	_ZTIN5ESock24TSafeResponseCarrierWestE @ 1802 NONAME
	_ZTIN5ESock24TSigCommsIdCommsIdNumberE @ 1803 NONAME
	_ZTIN5ESock25CTransportFlowShimFactoryE @ 1804 NONAME
	_ZTIN5ESock25TCFSigRMessage2PlatsecExtE @ 1805 NONAME
	_ZTIN5ESock25XConnectionFactoryAPQueryE @ 1806 NONAME
	_ZTIN5ESock25XProtocolIntfFactoryQueryE @ 1807 NONAME
	_ZTIN5ESock26CSubConnectionProviderBaseE @ 1808 NONAME
	_ZTIN5ESock26TDeferredSelectionPrefsExtE @ 1809 NONAME
	_ZTIN5ESock26XSubConnectionFactoryQueryE @ 1810 NONAME
	_ZTIN5ESock27CCFNodeParallelActivityBaseE @ 1811 NONAME
	_ZTIN5ESock27CCFNodeSynchronisedActivityE @ 1812 NONAME
	_ZTIN5ESock27CConnectionFactoryContainerE @ 1813 NONAME
	_ZTIN5ESock27CMetaConnectionProviderBaseE @ 1814 NONAME
	_ZTIN5ESock27TCprEnumerateSubConnectionsE @ 1815 NONAME
	_ZTIN5ESock27TOverridenSelectionPrefsExtE @ 1816 NONAME
	_ZTIN5ESock27TSubConnFlowRequest_TplSpecE @ 1817 NONAME
	_ZTIN5ESock27XMetaConnectionFactoryQueryE @ 1818 NONAME
	_ZTIN5ESock28AExtensionInterfaceThickBaseE @ 1819 NONAME
	_ZTIN5ESock28CCommsApiExtIpcOpenResponderE @ 1820 NONAME
	_ZTIN5ESock28CTierManagerFactoryContainerE @ 1821 NONAME
	_ZTIN5ESock28TCprFactEnumerateConnectionsE @ 1822 NONAME
	_ZTIN5ESock28TImplicitFlowRequest_TplSpecE @ 1823 NONAME
	_ZTIN5ESock28TSigNumberNumberNumberNumberE @ 1824 NONAME
	_ZTIN5ESock29CCommsMobilitySrvIpcResponderE @ 1825 NONAME
	_ZTIN5ESock29CProtocolIntfFactoryContainerE @ 1826 NONAME
	_ZTIN5ESock29CSubConnectionFlowFactoryBaseE @ 1827 NONAME
	_ZTIN5ESock29TCprCancelServiceNotificationE @ 1828 NONAME
	_ZTIN5ESock29TCprRetrieveLastProgressErrorE @ 1829 NONAME
	_ZTIN5ESock29XProviderFactoryQueryProviderE @ 1830 NONAME
	_ZTIN5ESock30CConnectionProviderFactoryBaseE @ 1831 NONAME
	_ZTIN5ESock30CLegacyDataMonitoringResponderE @ 1832 NONAME
	_ZTIN5ESock30CSubConnectionFactoryContainerE @ 1833 NONAME
	_ZTIN5ESock30TCancelAndCloseAllClientExtItfE @ 1834 NONAME
	_ZTIN5ESock30TCprRequestServiceNotificationE @ 1835 NONAME
	_ZTIN5ESock30TLegacyEnumerateSubConnectionsE @ 1836 NONAME
	_ZTIN5ESock30XSubConnectionFlowFactoryQueryE @ 1837 NONAME
	_ZTIN5ESock31CProtocolFamilyFactoryContainerE @ 1838 NONAME
	_ZTIN5ESock32ALegacySubConnectionActiveApiExtE @ 1839 NONAME
	_ZTIN5ESock32TSigCommsBinderMetaDataPtrNumberE @ 1840 NONAME
	_ZTIN5ESock33CSubConnectionProviderFactoryBaseE @ 1841 NONAME
	_ZTIN5ESock33TDataClientJoiningRequest_TplSpecE @ 1842 NONAME
	_ZTIN5ESock34CMetaConnectionProviderFactoryBaseE @ 1843 NONAME
	_ZTIN5ESock34CSubConnectionFlowFactoryContainerE @ 1844 NONAME
	_ZTIN5ESock35CCFNodeSynchronisedParallelActivityE @ 1845 NONAME
	_ZTIN5ESock35TDataMonitoringConnProvisioningInfoE @ 1846 NONAME
	_ZTIN5ESock35TDataMonitoringProvisioningInfoBaseE @ 1847 NONAME
	_ZTIN5ESock35TSigAvailabilitySubscriptionOptionsE @ 1848 NONAME
	_ZTIN5ESock38TCprAllSubConnectionNotificationEnableE @ 1849 NONAME
	_ZTIN5ESock38TDataMonitoringSubConnProvisioningInfoE @ 1850 NONAME
	_ZTIN5ESock39TLegacyDataMonitoringNotificationCancelE @ 1851 NONAME
	_ZTIN5ESock39TLegacyDataMonitoringTransferredRequestE @ 1852 NONAME
	_ZTIN5ESock40TLegacyDataMonitoringNotificationRequestE @ 1853 NONAME
	_ZTIN5ESock7MCFNodeE @ 1854 NONAME
	_ZTIN5ESock7TSigAnyE @ 1855 NONAME
	_ZTIN5ESock7TSigUidE @ 1856 NONAME
	_ZTIN8PRStates12TSendStoppedE @ 1857 NONAME
	_ZTIN8PRStates13TSendGoneDownE @ 1858 NONAME
	_ZTIN8PRStates14TSendProvisionE @ 1859 NONAME
	_ZTIN8PRStates15TStoreProvisionE @ 1860 NONAME
	_ZTIN8PRStates17TCreateDataClientE @ 1861 NONAME
	_ZTIN8PRStates19TForwardStateChangeE @ 1862 NONAME
	_ZTIN8PRStates22TReBindLeaveAndForwardE @ 1863 NONAME
	_ZTIN8PRStates22TSendDataClientStartedE @ 1864 NONAME
	_ZTIN8PRStates22TSendDataClientStoppedE @ 1865 NONAME
	_ZTIN8PRStates23TSendStoppedAndGoneDownE @ 1866 NONAME
	_ZTIN8PRStates23TStartDefaultDataClientE @ 1867 NONAME
	_ZTIN8PRStates27TDestroyOrphanedDataClientsE @ 1868 NONAME
	_ZTIN8PRStates27THandleProviderStatusChangeE @ 1869 NONAME
	_ZTV11RConnection @ 1870 NONAME
	_ZTV12CSockManData @ 1871 NONAME
	_ZTV13CESockIniData @ 1872 NONAME
	_ZTV13CProtocolBase @ 1873 NONAME
	_ZTV13XParameterSet @ 1874 NONAME
	_ZTV14TBinderConfig4 @ 1875 NONAME
	_ZTV14TBinderConfig6 @ 1876 NONAME
	_ZTV17CServProviderBase @ 1877 NONAME
	_ZTV18CResolverProvdBase @ 1878 NONAME
	_ZTV18CSocketServExtBase @ 1879 NONAME
	_ZTV18TCommsApiExtReqMsg @ 1880 NONAME
	_ZTV19CProtocolFamilyBase @ 1881 NONAME
	_ZTV19CSubConParameterSet @ 1882 NONAME
	_ZTV20CConnectionProvdBase @ 1883 NONAME
	_ZTV20CDefaultProtocolIntf @ 1884 NONAME
	_ZTV20CHostResolvProvdBase @ 1885 NONAME
	_ZTV20CParameterBundleBase @ 1886 NONAME
	_ZTV21CCommsMobilitySrvResp @ 1887 NONAME
	_ZTV22CParameterSetContainer @ 1888 NONAME
	_ZTV22CSubConParameterBundle @ 1889 NONAME
	_ZTV22CSubConParameterFamily @ 1890 NONAME
	_ZTV24XTierManagerFactoryQuery @ 1891 NONAME
	_ZTV26CActiveCommsMobilityApiExt @ 1892 NONAME
	_ZTV26CSubConGenericParameterSet @ 1893 NONAME
	_ZTV27CCommsSessionApiExtProvider @ 1894 NONAME
	_ZTV27CDefaultProtocolIntfFactory @ 1895 NONAME
	_ZTV28CSubConExtensionParameterSet @ 1896 NONAME
	_ZTV30CCommsSubSessionApiExtProvider @ 1897 NONAME
	_ZTVN10CoreStates10TDoNothingE @ 1898 NONAME
	_ZTVN10CoreStates11TClearErrorE @ 1899 NONAME
	_ZTVN10CoreStates11TStoreErrorE @ 1900 NONAME
	_ZTVN10CoreStates12TNeverAcceptE @ 1901 NONAME
	_ZTVN10CoreStates12TPeerPresentE @ 1902 NONAME
	_ZTVN10CoreStates13TAlwaysAcceptE @ 1903 NONAME
	_ZTVN10CoreStates13TAwaitingNULLE @ 1904 NONAME
	_ZTVN10CoreStates13TRemoveClientE @ 1905 NONAME
	_ZTVN10CoreStates14TNoTagBackwardE @ 1906 NONAME
	_ZTVN10CoreStates14TNoTagOrNoPeerE @ 1907 NONAME
	_ZTVN10CoreStates15TAwaitingCancelE @ 1908 NONAME
	_ZTVN10CoreStates16TAwaitingDestroyE @ 1909 NONAME
	_ZTVN10CoreStates16TNoTagOrErrorTagE @ 1910 NONAME
	_ZTVN10CoreStates17TNoTagOrNoClientsE @ 1911 NONAME
	_ZTVN10CoreStates18TPostToOriginatorsE @ 1912 NONAME
	_ZTVN10CoreStates19TAbortAllActivitiesE @ 1913 NONAME
	_ZTVN10CoreStates19TRaiseActivityErrorE @ 1914 NONAME
	_ZTVN10CoreStates20TAwaitingClientLeaveE @ 1915 NONAME
	_ZTVN10CoreStates20TAwaitingStateChangeE @ 1916 NONAME
	_ZTVN10CoreStates21TAwaitingJoinCompleteE @ 1917 NONAME
	_ZTVN10CoreStates21TSetIdleIfMoreClientsE @ 1918 NONAME
	_ZTVN10CoreStates22TAwaitingLeaveCompleteE @ 1919 NONAME ABSENT
	_ZTVN10CoreStates25TRetryOrIgnoreOrPropagateE @ 1920 NONAME
	_ZTVN10CoreStates27TRaiseAndClearActivityErrorE @ 1921 NONAME
	_ZTVN10CoreStates31TAbortAllActivitiesNodeDeletionE @ 1922 NONAME
	_ZTVN10CoreStates37TAwaitingErrorRecoveryResponseOrErrorE @ 1923 NONAME
	_ZTVN10CoreStates37TNoTagOrRecoverableErrorTagOrErrorTagE @ 1924 NONAME
	_ZTVN10CoreStates6TPanicE @ 1925 NONAME
	_ZTVN10CoreStates8TSetIdleE @ 1926 NONAME
	_ZTVN10CoreStates9TErrorTagE @ 1927 NONAME
	_ZTVN12PRActivities14CStartActivity38TAwaitingBindToRequestCompleteOrCancelE @ 1928 NONAME
	_ZTVN12PRActivities14CStartActivityE @ 1929 NONAME
	_ZTVN12PRActivities17CGoneDownActivityE @ 1930 NONAME
	_ZTVN12PRActivities20CCommsBinderActivity19TNoTagOrUseExistingE @ 1931 NONAME
	_ZTVN12PRActivities20CCommsBinderActivity19TSendBinderResponseE @ 1932 NONAME
	_ZTVN12PRActivities20CCommsBinderActivity19TStorePendingBinderE @ 1933 NONAME
	_ZTVN12PRActivities20CCommsBinderActivity23TAwaitingBindToCompleteE @ 1934 NONAME
	_ZTVN12PRActivities20CCommsBinderActivity36TNoTagOrWaitForIncomingOrUseExistingE @ 1935 NONAME
	_ZTVN12PRActivities20CCommsBinderActivity43TNoTagOrWaitForIncomingOrUseExistingDefaultE @ 1936 NONAME
	_ZTVN12PRActivities22CBindToRequestActivity17TCreateDataClientE @ 1937 NONAME
	_ZTVN12PRActivities22CBindToRequestActivity18TSendBindToRequestE @ 1938 NONAME
	_ZTVN12PRActivities22CBindToRequestActivity19TNoTagOrBearerReadyE @ 1939 NONAME
	_ZTVN12PRActivities22CBindToRequestActivity26TSendBindToRequestCompleteE @ 1940 NONAME
	_ZTVN12PRActivities22CBindToRequestActivity39TNoTagOrDataClientReadyOrBindToCompleteE @ 1941 NONAME
	_ZTVN12PRActivities22CBindToRequestActivityE @ 1942 NONAME
	_ZTVN12PRActivities24CBuildLowerLayerActivityE @ 1943 NONAME
	_ZTVN12PRActivities25CRejoinDataClientActivity12TApplyRejoinE @ 1944 NONAME
	_ZTVN12PRActivities25CRejoinDataClientActivity14TRejoinLoopTagE @ 1945 NONAME
	_ZTVN12PRActivities25CRejoinDataClientActivity17TRejoinDataClientE @ 1946 NONAME
	_ZTVN12PRActivities25CRejoinDataClientActivity21TAwaitingJoinCompleteE @ 1947 NONAME
	_ZTVN12PRActivities25CRejoinDataClientActivityE @ 1948 NONAME
	_ZTVN12PRActivities9CNoBearer19TRequestCommsBinderE @ 1949 NONAME
	_ZTVN12PRActivities9CNoBearer26TNoTagOrDataClientsToStartE @ 1950 NONAME
	_ZTVN12PRActivities9CNoBearer27TStartOriginatingDataClientE @ 1951 NONAME
	_ZTVN13CoreNetStates10TStartSelfE @ 1952 NONAME
	_ZTVN13CoreNetStates12TBearerReadyE @ 1953 NONAME
	_ZTVN13CoreNetStates12TSendStartedE @ 1954 NONAME
	_ZTVN13CoreNetStates13TAddAuxClientE @ 1955 NONAME
	_ZTVN13CoreNetStates13TAwaitingStopE @ 1956 NONAME
	_ZTVN13CoreNetStates13TNoTagOnEventE @ 1957 NONAME
	_ZTVN13CoreNetStates13TSendNoBearerE @ 1958 NONAME
	_ZTVN13CoreNetStates14TAddDataClientE @ 1959 NONAME
	_ZTVN13CoreNetStates14TAwaitingStartE @ 1960 NONAME
	_ZTVN13CoreNetStates14TBearerPresentE @ 1961 NONAME
	_ZTVN13CoreNetStates15TAwaitingBindToE @ 1962 NONAME
	_ZTVN13CoreNetStates15TLayerCompletedE @ 1963 NONAME
	_ZTVN13CoreNetStates16TAwaitingStartedE @ 1964 NONAME
	_ZTVN13CoreNetStates16TAwaitingStoppedE @ 1965 NONAME
	_ZTVN13CoreNetStates16TNoTagOrNoBearerE @ 1966 NONAME
	_ZTVN13CoreNetStates16TRemoveAuxClientE @ 1967 NONAME
	_ZTVN13CoreNetStates17TAwaitingGoneDownE @ 1968 NONAME
	_ZTVN13CoreNetStates17TAwaitingNoBearerE @ 1969 NONAME
	_ZTVN13CoreNetStates17TSendApplyRequestE @ 1970 NONAME
	_ZTVN13CoreNetStates18TAwaitingProvisionE @ 1971 NONAME
	_ZTVN13CoreNetStates18TDataClientPresentE @ 1972 NONAME
	_ZTVN13CoreNetStates18TNoTagOrNonDefaultE @ 1973 NONAME
	_ZTVN13CoreNetStates19TRequestCommsBinderE @ 1974 NONAME
	_ZTVN13CoreNetStates19TSendBindToCompleteE @ 1975 NONAME
	_ZTVN13CoreNetStates19TSendBindToResponseE @ 1976 NONAME
	_ZTVN13CoreNetStates19TSendDataClientIdleE @ 1977 NONAME
	_ZTVN13CoreNetStates19TSendRejoinCompleteE @ 1978 NONAME
	_ZTVN13CoreNetStates20TAwaitingReBindLayerE @ 1979 NONAME
	_ZTVN13CoreNetStates20TAwaitingSubConEventE @ 1980 NONAME
	_ZTVN13CoreNetStates20TNoTagOrUnbindOnStopE @ 1981 NONAME
	_ZTVN13CoreNetStates21THandleDataClientIdleE @ 1982 NONAME
	_ZTVN13CoreNetStates21TNoTagOrBearerPresentE @ 1983 NONAME
	_ZTVN13CoreNetStates21TNoTagOrNoDataClientsE @ 1984 NONAME
	_ZTVN13CoreNetStates21TSendDataClientActiveE @ 1985 NONAME
	_ZTVN13CoreNetStates21TStartServiceProviderE @ 1986 NONAME
	_ZTVN13CoreNetStates22TAwaitingApplyResponseE @ 1987 NONAME
	_ZTVN13CoreNetStates22TAwaitingBindToRequestE @ 1988 NONAME
	_ZTVN13CoreNetStates22TAwaitingBinderRequestE @ 1989 NONAME
	_ZTVN13CoreNetStates22TAwaitingParamResponseE @ 1990 NONAME
	_ZTVN13CoreNetStates22TCancelDataClientStartE @ 1991 NONAME
	_ZTVN13CoreNetStates23TAwaitingBindToCompleteE @ 1992 NONAME
	_ZTVN13CoreNetStates23TAwaitingBindToOrCancelE @ 1993 NONAME
	_ZTVN13CoreNetStates23TAwaitingBinderResponseE @ 1994 NONAME
	_ZTVN13CoreNetStates23TAwaitingDataClientIdleE @ 1995 NONAME
	_ZTVN13CoreNetStates23TAwaitingDataClientJoinE @ 1996 NONAME
	_ZTVN13CoreNetStates23TAwaitingDataClientStopE @ 1997 NONAME
	_ZTVN13CoreNetStates23TSendLowerLayerCompleteE @ 1998 NONAME
	_ZTVN13CoreNetStates24TAddDataClientAndRespondE @ 1999 NONAME
	_ZTVN13CoreNetStates24TAwaitingBuildLowerLayerE @ 2000 NONAME
	_ZTVN13CoreNetStates24TAwaitingDataClientStartE @ 2001 NONAME
	_ZTVN13CoreNetStates24TBindSelfToPresentBearerE @ 2002 NONAME
	_ZTVN13CoreNetStates24TForwardToControlClientsE @ 2003 NONAME
	_ZTVN13CoreNetStates25TAwaitingDataClientActiveE @ 2004 NONAME
	_ZTVN13CoreNetStates25TAwaitingDataClientRejoinE @ 2005 NONAME
	_ZTVN13CoreNetStates25TForwardToControlProviderE @ 2006 NONAME
	_ZTVN13CoreNetStates25TNoTagOrDataClientPresentE @ 2007 NONAME
	_ZTVN13CoreNetStates25TNoTagOrDataClientsToStopE @ 2008 NONAME
	_ZTVN13CoreNetStates26TAwaitingControlClientJoinE @ 2009 NONAME
	_ZTVN13CoreNetStates26TAwaitingDataClientStartedE @ 2010 NONAME
	_ZTVN13CoreNetStates26TAwaitingDataClientStoppedE @ 2011 NONAME
	_ZTVN13CoreNetStates27TAwaitingDataClientGoneDownE @ 2012 NONAME
	_ZTVN13CoreNetStates27TAwaitingDataClientsStoppedE @ 2013 NONAME
	_ZTVN13CoreNetStates27TAwaitingLowerLayerCompleteE @ 2014 NONAME
	_ZTVN13CoreNetStates27TNoTagOrNoDataClientsToStopE @ 2015 NONAME
	_ZTVN13CoreNetStates27TSendLeaveCompleteIfRequestE @ 2016 NONAME
	_ZTVN13CoreNetStates28TSetIdleIfNoServiceProvidersE @ 2017 NONAME
	_ZTVN13CoreNetStates29TAwaitingProviderStatusChangeE @ 2018 NONAME
	_ZTVN13CoreNetStates29TSendControlClientJoinRequestE @ 2019 NONAME
	_ZTVN13CoreNetStates30TAwaitingBindToRequestCompleteE @ 2020 NONAME
	_ZTVN13CoreNetStates30TAwaitingDataClientJoinRequestE @ 2021 NONAME
	_ZTVN13CoreNetStates30TSendDataClientIdleIfNoClientsE @ 2022 NONAME
	_ZTVN13CoreNetStates31TNoTagOrBearerPresentOrErrorTagE @ 2023 NONAME
	_ZTVN13CoreNetStates32TNoTagBackwardsOrProviderStoppedE @ 2024 NONAME
	_ZTVN13CoreNetStates33TAwaitingReJoinDataClientCompleteE @ 2025 NONAME
	_ZTVN13CoreNetStates40TAwaitingDataClientRejoinOrApplyOrCancelE @ 2026 NONAME
	_ZTVN13CoreNetStates42TSendClientLeavingAndRemoveControlProviderE @ 2027 NONAME
	_ZTVN13CoreNetStates42TSendClientLeavingAndRemoveServiceProviderE @ 2028 NONAME
	_ZTVN13CoreNetStates42TSendClientLeavingRequestToServiceProviderE @ 2029 NONAME
	_ZTVN13CoreNetStates43TSendClientLeavingRequestToServiceProvidersE @ 2030 NONAME
	_ZTVN13CoreNetStates45TAddControlClientAndSendJoinCompleteIfRequestE @ 2031 NONAME
	_ZTVN13CoreNetStates62TSendClientLeavingAndRemoveControlProviderIfNoServiceProvidersE @ 2032 NONAME
	_ZTVN13CoreNetStates9TBindSelfE @ 2033 NONAME
	_ZTVN13CoreNetStates9TSendStopE @ 2034 NONAME
	_ZTVN13CoreNetStates9TStopSelfE @ 2035 NONAME
	_ZTVN14ConnActivities20CStartAttachActivityE @ 2036 NONAME
	_ZTVN14ConnectionServ19CConnectionServImplE @ 2037 NONAME
	_ZTVN14ConnectionServ25CAccessPointStatusRequestE @ 2038 NONAME
	_ZTVN14ConnectionServ31CAccessPointNotificationRequestE @ 2039 NONAME
	_ZTVN14CoreActivities14CErrorActivity14TAwaitingErrorE @ 2040 NONAME
	_ZTVN14CoreActivities14CErrorActivity16TDoErrorRecoveryE @ 2041 NONAME
	_ZTVN14CoreActivities14CErrorActivity21TSendErrorRecoveryReqE @ 2042 NONAME
	_ZTVN14CoreActivities14CErrorActivityE @ 2043 NONAME
	_ZTVN14CoreActivities16ABindingActivity19TSendBindToCompleteE @ 2044 NONAME
	_ZTVN14CoreActivities16ABindingActivity29TSendBindToCompleteIfExpectedE @ 2045 NONAME
	_ZTVN14CoreActivities16ABindingActivityE @ 2046 NONAME
	_ZTVN14CoreActivities16CDestroyActivity22TNoTagOrNoTagBackwardsE @ 2047 NONAME
	_ZTVN14CoreActivities16CDestroyActivity37TMakeClientsLeaveOrProcessClientLeaveE @ 2048 NONAME
	_ZTVN14CoreActivities16CDestroyActivityE @ 2049 NONAME
	_ZTVN14CoreActivities18ACountLoopActivity22TNoTagOrNoTagBackwardsE @ 2050 NONAME
	_ZTVN14CoreActivities18ACountLoopActivityE @ 2051 NONAME
	_ZTVN14CoreActivities22CCountLoopActivityBaseE @ 2052 NONAME
	_ZTVN17SubConnActivities14CSetParametersE @ 2053 NONAME
	_ZTVN17SubConnActivities18CEventNotificationE @ 2054 NONAME
	_ZTVN17SubConnActivities7CCreateE @ 2055 NONAME
	_ZTVN17SubConnActivities7CReJoinE @ 2056 NONAME
	_ZTVN17SubSessActivities14CCloseActivityE @ 2057 NONAME
	_ZTVN17SubSessActivities24CESockClientActivityBaseE @ 2058 NONAME
	_ZTVN24PRDataClientStopActivity23TNoTagOrProviderStoppedE @ 2059 NONAME
	_ZTVN4Meta11TMetaObjectIN5ESock15TSelectionPrefsEEE @ 2060 NONAME
	_ZTVN4Meta18RMetaDataContainerIN5ESock20XConnectionQueryBaseEEE @ 2061 NONAME
	_ZTVN4Meta18RMetaDataContainerINS_13SMetaDataEComEEE @ 2062 NONAME
	_ZTVN4Meta5TMetaI12TNifProgressEE @ 2063 NONAME
	_ZTVN4Meta5TMetaI15TConnectionInfoEE @ 2064 NONAME
	_ZTVN4Meta5TMetaI21TSupportedCommsApiExtEE @ 2065 NONAME
	_ZTVN4Meta5TMetaI25TSubConnectionClosedEventEE @ 2066 NONAME
	_ZTVN4Meta5TMetaI25TSubConnectionOpenedEventEE @ 2067 NONAME
	_ZTVN4Meta5TMetaI4TUidEE @ 2068 NONAME
	_ZTVN4Meta5TMetaI5TBuf8ILi124EEEE @ 2069 NONAME
	_ZTVN4Meta5TMetaI9RMessage2EE @ 2070 NONAME
	_ZTVN4Meta5TMetaI9TConnPrefEE @ 2071 NONAME
	_ZTVN4Meta5TMetaIN5ESock11TAddrUpdateEEE @ 2072 NONAME
	_ZTVN4Meta5TMetaIN5ESock11TErrContextEEE @ 2073 NONAME
	_ZTVN4Meta5TMetaIN5ESock12TCommsBinderEEE @ 2074 NONAME
	_ZTVN4Meta5TMetaIN5ESock12TErrResponseEEE @ 2075 NONAME
	_ZTVN4Meta5TMetaIN5ESock13TProviderInfoEEE @ 2076 NONAME
	_ZTVN4Meta5TMetaIN5ESock14RNodeInterfaceEEE @ 2077 NONAME
	_ZTVN4Meta5TMetaIN5ESock17TCFNodeSignalBase10TMessageIdEEE @ 2078 NONAME
	_ZTVN4Meta5TMetaIN5ESock19TAvailabilityStatusEEE @ 2079 NONAME
	_ZTVN4Meta5TMetaIN5ESock20TFactoryObjectParamsEEE @ 2080 NONAME
	_ZTVN4Meta5TMetaIN5ESock24TCprGetConnectionSetting22TConnectionSettingTypeEEE @ 2081 NONAME
	_ZTVN4Meta5TMetaIN5ESock24TDataMonitoringDirectionEEE @ 2082 NONAME
	_ZTVN4Meta5TMetaIN5ESock32TAvailabilitySubscriptionOptionsEEE @ 2083 NONAME
	_ZTVN4Meta5TMetaIN5ESock8TCommsIdEEE @ 2084 NONAME
	_ZTVN4Meta5TMetaIN8Elements12RResponseMsgEEE @ 2085 NONAME
	_ZTVN4Meta5TMetaIP13RPointerArrayI15TConnectionInfoEEE @ 2086 NONAME
	_ZTVN4Meta5TMetaIP22CSubConParameterBundleEE @ 2087 NONAME
	_ZTVN4Meta5TMetaIP9RMessage2EE @ 2088 NONAME
	_ZTVN4Meta5TMetaIPKNS_9SMetaDataEEE @ 2089 NONAME
	_ZTVN4Meta5TMetaIPN5ESock14CRefCountOwnerIK24CSubConNotificationEventEEEE @ 2090 NONAME
	_ZTVN4Meta5TMetaIPN5ESock35TDataMonitoringProvisioningInfoBaseEEE @ 2091 NONAME
	_ZTVN4Meta5TMetaIPNS_9SMetaDataEEE @ 2092 NONAME
	_ZTVN4Meta5TMetaIPPN5ESock16XCommsDataObjectEEE @ 2093 NONAME
	_ZTVN4Meta5TMetaIPvEE @ 2094 NONAME
	_ZTVN4Meta5TMetaIiEE @ 2095 NONAME
	_ZTVN4Meta5TMetaIjEE @ 2096 NONAME
	_ZTVN5ESock10TSigBundleE @ 2097 NONAME
	_ZTVN5ESock10TSigNumberE @ 2098 NONAME
	_ZTVN5ESock11AApiExtBaseE @ 2099 NONAME
	_ZTVN5ESock11ACFNodeBaseE @ 2100 NONAME
	_ZTVN5ESock11TSigCommsIdE @ 2101 NONAME
	_ZTVN5ESock12CNetworkFlowE @ 2102 NONAME
	_ZTVN5ESock13ACFNodeIdBaseE @ 2103 NONAME
	_ZTVN5ESock13MLowerControlE @ 2104 NONAME
	_ZTVN5ESock13TCprSendIoctlE @ 2105 NONAME
	_ZTVN5ESock13TSigAnyNumberE @ 2106 NONAME
	_ZTVN5ESock13TSigRMessage2E @ 2107 NONAME
	_ZTVN5ESock14AFactoryObjectE @ 2108 NONAME
	_ZTVN5ESock14TSigAddrUpdateE @ 2109 NONAME
	_ZTVN5ESock14TSigCommsIdAnyE @ 2110 NONAME
	_ZTVN5ESock14TSigErrContextE @ 2111 NONAME
	_ZTVN5ESock15ACFMMNodeIdBaseE @ 2112 NONAME
	_ZTVN5ESock15CCFMessageHooksE @ 2113 NONAME
	_ZTVN5ESock15CConnectionInfoE @ 2114 NONAME
	_ZTVN5ESock15TCprCancelIoctlE @ 2115 NONAME
	_ZTVN5ESock15TSelectionPrefsE @ 2116 NONAME
	_ZTVN5ESock15TSigCommsBinderE @ 2117 NONAME
	_ZTVN5ESock15TSigErrResponseE @ 2118 NONAME
	_ZTVN5ESock15TSigMetaDataPtrE @ 2119 NONAME
	_ZTVN5ESock15TSigStateChangeE @ 2120 NONAME
	_ZTVN5ESock16CCommsDatIapViewE @ 2121 NONAME
	_ZTVN5ESock16CTierManagerBaseE @ 2122 NONAME
	_ZTVN5ESock16TCFSignatureBaseE @ 2123 NONAME
	_ZTVN5ESock16TSigNumberNumberE @ 2124 NONAME
	_ZTVN5ESock16XCommsDataObjectE @ 2125 NONAME
	_ZTVN5ESock17CCommsFactoryBaseE @ 2126 NONAME
	_ZTVN5ESock17CMMSockSubSessionE @ 2127 NONAME
	_ZTVN5ESock17CProtocolIntfBaseE @ 2128 NONAME
	_ZTVN5ESock17CSelectionRequestE @ 2129 NONAME
	_ZTVN5ESock17TCFNodeSignalBaseE @ 2130 NONAME
	_ZTVN5ESock17TSigCommsIdNumberE @ 2131 NONAME
	_ZTVN5ESock17TSigSubConnParamsE @ 2132 NONAME
	_ZTVN5ESock18CAccessPointConfigE @ 2133 NONAME
	_ZTVN5ESock18CRefCountOwnerBaseE @ 2134 NONAME
	_ZTVN5ESock18CTransportFlowShimE @ 2135 NONAME
	_ZTVN5ESock18MFlowBinderControlE @ 2136 NONAME
	_ZTVN5ESock18TCFESockSignalBaseE @ 2137 NONAME
	_ZTVN5ESock18TCFFlowRequestBaseE @ 2138 NONAME
	_ZTVN5ESock18TCFSigRMessage2ExtE @ 2139 NONAME
	_ZTVN5ESock18TSigCommsIdCommsIdE @ 2140 NONAME
	_ZTVN5ESock18TSigConnectionInfoE @ 2141 NONAME
	_ZTVN5ESock18TSigSelectCompleteE @ 2142 NONAME
	_ZTVN5ESock18TSigSelectionPrefsE @ 2143 NONAME
	_ZTVN5ESock19CCFMessageHookEntryE @ 2144 NONAME
	_ZTVN5ESock19CCFNodeActivityBaseE @ 2145 NONAME
	_ZTVN5ESock19TGetOrSetParametersE @ 2146 NONAME
	_ZTVN5ESock19TSigBundleRMessage2E @ 2147 NONAME
	_ZTVN5ESock19TSigMessageIdNumberE @ 2148 NONAME
	_ZTVN5ESock19TSigNumberRMessage2E @ 2149 NONAME
	_ZTVN5ESock19TSigProvisionConfigE @ 2150 NONAME
	_ZTVN5ESock19TTransportHookErrorE @ 2151 NONAME
	_ZTVN5ESock20CCommsDataObjectBaseE @ 2152 NONAME
	_ZTVN5ESock20CExtItfMsgPluginInfoE @ 2153 NONAME
	_ZTVN5ESock20CMMCommsProviderBaseE @ 2154 NONAME
	_ZTVN5ESock20TApiExtMsgDispatcherE @ 2155 NONAME
	_ZTVN5ESock20TCprRetrieveProgressE @ 2156 NONAME
	_ZTVN5ESock21CCommsApiExtResponderE @ 2157 NONAME
	_ZTVN5ESock21CProtocolConfigLoaderE @ 2158 NONAME
	_ZTVN5ESock21TLegacyControlMessageE @ 2159 NONAME
	_ZTVN5ESock21TSigCommsBinderNumberE @ 2160 NONAME
	_ZTVN5ESock22CSubConnectionFlowBaseE @ 2161 NONAME
	_ZTVN5ESock22TCFRegisterMessageHookE @ 2162 NONAME
	_ZTVN5ESock22TSigAvailabilityStatusE @ 2163 NONAME
	_ZTVN5ESock22TSigNumberNumberNumberE @ 2164 NONAME
	_ZTVN5ESock22TSigSubConNotificationE @ 2165 NONAME
	_ZTVN5ESock22TSigSubConnClosedEventE @ 2166 NONAME
	_ZTVN5ESock22TSigSubConnOpenedEventE @ 2167 NONAME
	_ZTVN5ESock23ADataMonitoringProviderE @ 2168 NONAME
	_ZTVN5ESock23CConnectionProviderBaseE @ 2169 NONAME
	_ZTVN5ESock23CTierManagerFactoryBaseE @ 2170 NONAME
	_ZTVN5ESock23TOpenExtensionInterfaceE @ 2171 NONAME
	_ZTVN5ESock23TSafeMessageCarrierBaseE @ 2172 NONAME
	_ZTVN5ESock23TSafeRequestCarrierEastE @ 2173 NONAME
	_ZTVN5ESock23TSigCommsIdNumberNumberE @ 2174 NONAME
	_ZTVN5ESock23TSigFactoryObjectParamsE @ 2175 NONAME
	_ZTVN5ESock23XConnectionFactoryQueryE @ 2176 NONAME
	_ZTVN5ESock24ASubSessionPlatsecApiExtE @ 2177 NONAME
	_ZTVN5ESock24CCommsApiExtIpcResponderE @ 2178 NONAME
	_ZTVN5ESock24CConfigAccessPointConfigE @ 2179 NONAME
	_ZTVN5ESock24CDataMonitoringResponderE @ 2180 NONAME
	_ZTVN5ESock24TCFDeregisterMessageHookE @ 2181 NONAME
	_ZTVN5ESock24TCloseExtensionInterfaceE @ 2182 NONAME
	_ZTVN5ESock24TConnFlowRequest_TplSpecE @ 2183 NONAME
	_ZTVN5ESock24TCprGetConnectionSettingE @ 2184 NONAME
	_ZTVN5ESock24TSafeResponseCarrierWestE @ 2185 NONAME
	_ZTVN5ESock24TSigCommsIdCommsIdNumberE @ 2186 NONAME
	_ZTVN5ESock25CTransportFlowShimFactoryE @ 2187 NONAME
	_ZTVN5ESock25TCFSigRMessage2PlatsecExtE @ 2188 NONAME
	_ZTVN5ESock25XConnectionFactoryAPQueryE @ 2189 NONAME
	_ZTVN5ESock25XProtocolIntfFactoryQueryE @ 2190 NONAME
	_ZTVN5ESock26CSubConnectionProviderBaseE @ 2191 NONAME
	_ZTVN5ESock26TDeferredSelectionPrefsExtE @ 2192 NONAME
	_ZTVN5ESock26XSubConnectionFactoryQueryE @ 2193 NONAME
	_ZTVN5ESock27CCFNodeParallelActivityBaseE @ 2194 NONAME
	_ZTVN5ESock27CCFNodeSynchronisedActivityE @ 2195 NONAME
	_ZTVN5ESock27CConnectionFactoryContainerE @ 2196 NONAME
	_ZTVN5ESock27CMetaConnectionProviderBaseE @ 2197 NONAME
	_ZTVN5ESock27TCprEnumerateSubConnectionsE @ 2198 NONAME
	_ZTVN5ESock27TOverridenSelectionPrefsExtE @ 2199 NONAME
	_ZTVN5ESock27TSubConnFlowRequest_TplSpecE @ 2200 NONAME
	_ZTVN5ESock27XMetaConnectionFactoryQueryE @ 2201 NONAME
	_ZTVN5ESock28AExtensionInterfaceThickBaseE @ 2202 NONAME
	_ZTVN5ESock28CCommsApiExtIpcOpenResponderE @ 2203 NONAME
	_ZTVN5ESock28CTierManagerFactoryContainerE @ 2204 NONAME
	_ZTVN5ESock28TCprFactEnumerateConnectionsE @ 2205 NONAME
	_ZTVN5ESock28TImplicitFlowRequest_TplSpecE @ 2206 NONAME
	_ZTVN5ESock28TSigNumberNumberNumberNumberE @ 2207 NONAME
	_ZTVN5ESock29CCommsMobilitySrvIpcResponderE @ 2208 NONAME
	_ZTVN5ESock29CProtocolIntfFactoryContainerE @ 2209 NONAME
	_ZTVN5ESock29CSubConnectionFlowFactoryBaseE @ 2210 NONAME
	_ZTVN5ESock29TCprCancelServiceNotificationE @ 2211 NONAME
	_ZTVN5ESock29TCprRetrieveLastProgressErrorE @ 2212 NONAME
	_ZTVN5ESock29XProviderFactoryQueryProviderE @ 2213 NONAME
	_ZTVN5ESock30CConnectionProviderFactoryBaseE @ 2214 NONAME
	_ZTVN5ESock30CLegacyDataMonitoringResponderE @ 2215 NONAME
	_ZTVN5ESock30CSubConnectionFactoryContainerE @ 2216 NONAME
	_ZTVN5ESock30TCancelAndCloseAllClientExtItfE @ 2217 NONAME
	_ZTVN5ESock30TCprRequestServiceNotificationE @ 2218 NONAME
	_ZTVN5ESock30TLegacyEnumerateSubConnectionsE @ 2219 NONAME
	_ZTVN5ESock30XSubConnectionFlowFactoryQueryE @ 2220 NONAME
	_ZTVN5ESock31CProtocolFamilyFactoryContainerE @ 2221 NONAME
	_ZTVN5ESock32ALegacySubConnectionActiveApiExtE @ 2222 NONAME
	_ZTVN5ESock32TSigCommsBinderMetaDataPtrNumberE @ 2223 NONAME
	_ZTVN5ESock33CSubConnectionProviderFactoryBaseE @ 2224 NONAME
	_ZTVN5ESock33TDataClientJoiningRequest_TplSpecE @ 2225 NONAME
	_ZTVN5ESock34CMetaConnectionProviderFactoryBaseE @ 2226 NONAME
	_ZTVN5ESock34CSubConnectionFlowFactoryContainerE @ 2227 NONAME
	_ZTVN5ESock35CCFNodeSynchronisedParallelActivityE @ 2228 NONAME
	_ZTVN5ESock35TDataMonitoringConnProvisioningInfoE @ 2229 NONAME
	_ZTVN5ESock35TDataMonitoringProvisioningInfoBaseE @ 2230 NONAME
	_ZTVN5ESock35TSigAvailabilitySubscriptionOptionsE @ 2231 NONAME
	_ZTVN5ESock38TCprAllSubConnectionNotificationEnableE @ 2232 NONAME
	_ZTVN5ESock38TDataMonitoringSubConnProvisioningInfoE @ 2233 NONAME
	_ZTVN5ESock39TLegacyDataMonitoringNotificationCancelE @ 2234 NONAME
	_ZTVN5ESock39TLegacyDataMonitoringTransferredRequestE @ 2235 NONAME
	_ZTVN5ESock40TLegacyDataMonitoringNotificationRequestE @ 2236 NONAME
	_ZTVN5ESock7MCFNodeE @ 2237 NONAME
	_ZTVN5ESock7TSigAnyE @ 2238 NONAME
	_ZTVN5ESock7TSigUidE @ 2239 NONAME
	_ZTVN8PRStates12TSendStoppedE @ 2240 NONAME
	_ZTVN8PRStates13TSendGoneDownE @ 2241 NONAME
	_ZTVN8PRStates14TSendProvisionE @ 2242 NONAME
	_ZTVN8PRStates15TStoreProvisionE @ 2243 NONAME
	_ZTVN8PRStates17TCreateDataClientE @ 2244 NONAME
	_ZTVN8PRStates19TForwardStateChangeE @ 2245 NONAME
	_ZTVN8PRStates22TReBindLeaveAndForwardE @ 2246 NONAME
	_ZTVN8PRStates22TSendDataClientStartedE @ 2247 NONAME
	_ZTVN8PRStates22TSendDataClientStoppedE @ 2248 NONAME
	_ZTVN8PRStates23TSendStoppedAndGoneDownE @ 2249 NONAME
	_ZTVN8PRStates23TStartDefaultDataClientE @ 2250 NONAME
	_ZTVN8PRStates27TDestroyOrphanedDataClientsE @ 2251 NONAME
	_ZTVN8PRStates27THandleProviderStatusChangeE @ 2252 NONAME
	_ZThn12_N5ESock12CNetworkFlowD0Ev @ 2253 NONAME
	_ZThn12_N5ESock12CNetworkFlowD1Ev @ 2254 NONAME
	_ZThn12_N5ESock22CSubConnectionFlowBaseD0Ev @ 2255 NONAME
	_ZThn12_N5ESock22CSubConnectionFlowBaseD1Ev @ 2256 NONAME
	_ZThn12_N5ESock23CConnectionProviderBaseD0Ev @ 2257 NONAME
	_ZThn12_N5ESock23CConnectionProviderBaseD1Ev @ 2258 NONAME
	_ZThn12_N5ESock26CSubConnectionProviderBaseD0Ev @ 2259 NONAME
	_ZThn12_N5ESock26CSubConnectionProviderBaseD1Ev @ 2260 NONAME
	_ZThn12_N5ESock27CMetaConnectionProviderBaseD0Ev @ 2261 NONAME
	_ZThn12_N5ESock27CMetaConnectionProviderBaseD1Ev @ 2262 NONAME
	_ZThn20_N5ESock22CSubConnectionFlowBase26FetchNodeInterfaceControlLE21TSupportedCommsApiExt @ 2263 NONAME
	_ZThn20_N5ESock22CSubConnectionFlowBase9ReceivedLERNS_16TCFSignatureBaseE @ 2264 NONAME
	_ZThn24_N5ESock27CMetaConnectionProviderBase19NewClientInterfaceLEiPv @ 2265 NONAME
	_ZThn4_N22CParameterSetContainer4LoadER6TPtrC8 @ 2266 NONAME
	_ZThn4_N5ESock15ACFMMNodeIdBase24HandlePassThroughMessageERNS_18TCFNodeContextBaseE @ 2267 NONAME
	_ZThn4_N5ESock16CTierManagerBaseD0Ev @ 2268 NONAME
	_ZThn4_N5ESock16CTierManagerBaseD1Ev @ 2269 NONAME
	_ZThn4_N5ESock17CProtocolIntfBaseD0Ev @ 2270 NONAME
	_ZThn4_N5ESock17CProtocolIntfBaseD1Ev @ 2271 NONAME
	_ZThn4_N5ESock18CRefCountOwnerBase9ReceivedLERNS_16TCFSignatureBaseE @ 2272 NONAME
	_ZThn4_N5ESock19CCFNodeActivityBase24DoFetchInterfaceControlLE21TSupportedCommsApiExt @ 2273 NONAME
	_ZThn4_N5ESock20CCommsDataObjectBase4CopyEPKv @ 2274 NONAME
	_ZThn4_N5ESock20CCommsDataObjectBase4LoadER6TPtrC8 @ 2275 NONAME
	_ZThn4_N5ESock24CConfigAccessPointConfigD0Ev @ 2276 NONAME
	_ZThn4_N5ESock24CConfigAccessPointConfigD1Ev @ 2277 NONAME
	_ZThn4_NK22CParameterSetContainer5StoreER5TDes8 @ 2278 NONAME
	_ZThn4_NK22CParameterSetContainer6LengthEv @ 2279 NONAME
	_ZThn4_NK5ESock20CCommsDataObjectBase5StoreER5TDes8 @ 2280 NONAME
	_ZThn4_NK5ESock20CCommsDataObjectBase6LengthEv @ 2281 NONAME
	_ZThn4_NK5ESock24CConfigAccessPointConfig12GetAttribPtrEi @ 2282 NONAME
	_ZThn4_NK5ESock24CConfigAccessPointConfig13GetVDataTableEv @ 2283 NONAME
	_ZThn52_NK5ESock25TCFSigRMessage2PlatsecExt11CheckPolicyERK15TSecurityPolicy @ 2284 NONAME
	_ZThn52_NK5ESock25TCFSigRMessage2PlatsecExt14HasCapabilityLE11TCapability @ 2285 NONAME
	_ZThn52_NK5ESock25TCFSigRMessage2PlatsecExt8SecureIdER9TSecureId @ 2286 NONAME
	_ZThn52_NK5ESock25TCFSigRMessage2PlatsecExt8VendorIdER9TVendorId @ 2287 NONAME
	_ZThn72_N14CoreActivities22CCountLoopActivityBaseD0Ev @ 2288 NONAME
	_ZThn72_N14CoreActivities22CCountLoopActivityBaseD1Ev @ 2289 NONAME
	_ZThn8_N5ESock17CCommsFactoryBase9ReceivedLERNS_16TCFSignatureBaseE @ 2290 NONAME
	_ZThn8_N5ESock19CCFNodeActivityBase7SetIdleEv @ 2291 NONAME
	_ZThn8_N5ESock27CCFNodeSynchronisedActivity7SetIdleEv @ 2292 NONAME
	_ZThn8_N5ESock35CCFNodeSynchronisedParallelActivity7SetIdleEv @ 2293 NONAME
	_ZThn8_NK5ESock19CCFNodeActivityBase6IsIdleEv @ 2294 NONAME
	_ZThn8_NK5ESock27CCFNodeSynchronisedActivity6IsIdleEv @ 2295 NONAME
	_ZThn8_NK5ESock35CCFNodeSynchronisedParallelActivity6IsIdleEv @ 2296 NONAME
	_ZThn96_N12PRActivities14CStartActivityD0Ev @ 2297 NONAME
	_ZThn96_N12PRActivities14CStartActivityD1Ev @ 2298 NONAME
	_ZThn96_NK5ESock20CMMCommsProviderBase20GetAccessPointConfigEv @ 2299 NONAME
	_ZN24CUPSAccessPointConfigExt19GetVDataTableStaticEv @ 2300 NONAME
	_ZN5ESock17TSigUpsParameters19GetVDataTableStaticEv @ 2301 NONAME
	_ZN5ESock27CMetaConnectionProviderBase22ShowAccessPointRecordLEPN8CommsDat11CMDBSessionEPNS1_20CCDAccessPointRecordE @ 2302 NONAME
	_ZNK5ESock17TSigUpsParameters12GetAttribPtrEi @ 2303 NONAME
	_ZNK5ESock17TSigUpsParameters13GetVDataTableEv @ 2304 NONAME
	_ZNK5ESock21AIPCClientPlatsecInfo21GetProcessAndThreadIdEjR10TProcessIdR9TThreadId @ 2305 NONAME
	_ZNK5ESock24ASubSessionPlatsecApiExt21GetProcessAndThreadIdER10TProcessIdR9TThreadId @ 2306 NONAME
	_ZTI24CUPSAccessPointConfigExt @ 2307 NONAME
	_ZTIN4Meta5TMetaIN5ESock25TPolicyCheckRequestParamsEEE @ 2308 NONAME
	_ZTIN5ESock17TSigUpsParametersE @ 2309 NONAME
	_ZTV24CUPSAccessPointConfigExt @ 2310 NONAME
	_ZTVN4Meta5TMetaIN5ESock25TPolicyCheckRequestParamsEEE @ 2311 NONAME
	_ZTVN5ESock17TSigUpsParametersE @ 2312 NONAME

