EXPORTS
	Install @ 1 NONAME
	MCommReplacementImport1 @ 2 NONAME
	MCommReplacementImport2 @ 3 NONAME
	MCommReplacementImport3 @ 4 NONAME
	MTimerReplacementImport1 @ 5 NONAME
	MTimerReplacementImport2 @ 6 NONAME
	MTimerReplacementImport3 @ 7 NONAME
	NonExistentImport1 @ 8 NONAME
	_Z18ClientStubOrdinal1v @ 9 NONAME
	_Z18ClientStubOrdinal2v @ 10 NONAME
	_Z18ClientStubOrdinal3v @ 11 NONAME
	_Z18ClientStubOrdinal4v @ 12 NONAME
	_Z18ClientStubOrdinal5v @ 13 NONAME
	_Z18ClientStubOrdinal6v @ 14 NONAME
	_Z18ClientStubOrdinal7v @ 15 NONAME
	_Z18ClientStubOrdinal8v @ 16 NONAME
	_Z18ClientStubOrdinal9v @ 17 NONAME
	_Z19ClientStubOrdinal10v @ 18 NONAME
	_Z19ClientStubOrdinal11v @ 19 NONAME
	_Z19ClientStubOrdinal12v @ 20 NONAME
	_Z19ClientStubOrdinal13v @ 21 NONAME
	_Z19ClientStubOrdinal14v @ 22 NONAME
	_Z19ClientStubOrdinal15v @ 23 NONAME
	_Z19ClientStubOrdinal16v @ 24 NONAME
	_Z19ClientStubOrdinal17v @ 25 NONAME
	_Z19ClientStubOrdinal18v @ 26 NONAME
	_Z19ClientStubOrdinal19v @ 27 NONAME
	_Z19ClientStubOrdinal20v @ 28 NONAME
	_Z19ClientStubOrdinal21v @ 29 NONAME
	_Z19ClientStubOrdinal22v @ 30 NONAME
	_Z19ClientStubOrdinal23v @ 31 NONAME
	_Z19ClientStubOrdinal24v @ 32 NONAME
	_Z19ClientStubOrdinal25v @ 33 NONAME
	_Z19ClientStubOrdinal26v @ 34 NONAME
	_Z19ClientStubOrdinal27v @ 35 NONAME
	_Z19ClientStubOrdinal28v @ 36 NONAME
	_Z19ClientStubOrdinal29v @ 37 NONAME
	_Z19ClientStubOrdinal30v @ 38 NONAME
	_Z19ClientStubOrdinal31v @ 39 NONAME
	_Z19ClientStubOrdinal32v @ 40 NONAME
	_Z19ClientStubOrdinal33v @ 41 NONAME
	_Z19ClientStubOrdinal34v @ 42 NONAME
	_Z19ClientStubOrdinal35v @ 43 NONAME
	_Z19ClientStubOrdinal36v @ 44 NONAME
	_ZN10CAgentBase10ConstructLEv @ 45 NONAME
	_ZN10CAgentBase10DoReadBoolERK7TDesC16RiPK12RMessagePtr2 @ 46 NONAME
	_ZN10CAgentBase10DoWriteDesERK7TDesC16RK6TDesC8PK12RMessagePtr2 @ 47 NONAME
	_ZN10CAgentBase10DoWriteDesERK7TDesC16S2_PK12RMessagePtr2 @ 48 NONAME
	_ZN10CAgentBase10DoWriteIntERK7TDesC16mPK12RMessagePtr2 @ 49 NONAME
	_ZN10CAgentBase10OverridesLEv @ 50 NONAME
	_ZN10CAgentBase11DoWriteBoolERK7TDesC16iPK12RMessagePtr2 @ 51 NONAME
	_ZN10CAgentBase12AuthenticateER6TDes16S1_ @ 52 NONAME
	_ZN10CAgentBase13SetOverridesLEP26CStoreableOverrideSettings @ 53 NONAME
	_ZN10CAgentBase14SelectCompleteERK7TDesC16 @ 54 NONAME
	_ZN10CAgentBase14SelectCompleteEi @ 55 NONAME
	_ZN10CAgentBase15CancelReconnectEv @ 56 NONAME
	_ZN10CAgentBase15DoReadLongDesLCERK7TDesC16PK12RMessagePtr2 @ 57 NONAME
	_ZN10CAgentBase17ReconnectCompleteEi @ 58 NONAME
	_ZN10CAgentBase18CancelAuthenticateEv @ 59 NONAME
	_ZN10CAgentBase19ConnectionSettingsLEv @ 60 NONAME
	_ZN10CAgentBase21DoCheckReadCapabilityERK7TDesC16PK12RMessagePtr2 @ 61 NONAME
	_ZN10CAgentBase22DoCheckWriteCapabilityERK7TDesC16PK12RMessagePtr2 @ 62 NONAME
	_ZN10CAgentBase22SetConnectionSettingsLERK19TConnectionSettings @ 63 NONAME
	_ZN10CAgentBase24MDPOAuthenticateCompleteEi @ 64 NONAME
	_ZN10CAgentBase25ServiceChangeNotificationEmRK7TDesC16 @ 65 NONAME
	_ZN10CAgentBase35RequestNotificationOfServiceChangeLEP19MAgentSessionNotify @ 66 NONAME
	_ZN10CAgentBase40CancelRequestNotificationOfServiceChangeEP19MAgentSessionNotify @ 67 NONAME
	_ZN10CAgentBase9DoReadDesERK7TDesC16R5TDes8PK12RMessagePtr2 @ 68 NONAME
	_ZN10CAgentBase9DoReadDesERK7TDesC16R6TDes16PK12RMessagePtr2 @ 69 NONAME
	_ZN10CAgentBase9DoReadIntERK7TDesC16RmPK12RMessagePtr2 @ 70 NONAME
	_ZN10CAgentBase9ReconnectEv @ 71 NONAME
	_ZN10CAgentBaseC2Ev @ 72 NONAME
	_ZN10CAgentBaseD0Ev @ 73 NONAME
	_ZN10CAgentBaseD1Ev @ 74 NONAME
	_ZN10CAgentBaseD2Ev @ 75 NONAME
	_ZN10CNifIfBase4OpenEv @ 76 NONAME
	_ZN10CNifIfBase5BindLEPv @ 77 NONAME
	_ZN10CNifIfBase5CloseEv @ 78 NONAME
	_ZN10CNifIfBase5StateEv @ 79 NONAME
	_ZN10CNifIfBase7CleanupEPv @ 80 NONAME
	_ZN10CNifIfBase7ControlEjjR5TDes8Pv @ 81 NONAME
	_ZN10CNifIfBaseC2ER10CNifIfLink @ 82 NONAME
	_ZN10CNifIfBaseC2ER13CNifIfFactory @ 83 NONAME
	_ZN10CNifIfBaseC2Ev @ 84 NONAME
	_ZN10CNifIfBaseD0Ev @ 85 NONAME
	_ZN10CNifIfBaseD1Ev @ 86 NONAME
	_ZN10CNifIfBaseD2Ev @ 87 NONAME
	_ZN10CNifIfLink20AuthenticateCompleteEi @ 88 NONAME
	_ZN10CNifIfLink7RestartEP10CNifIfBase @ 89 NONAME
	_ZN10CNifIfLinkC2ER13CNifIfFactory @ 90 NONAME
	_ZN11CBearerBase10ConstructLEv @ 91 NONAME
	_ZN11CBearerBase12RemoveAgentLEP13CNifAgentBase @ 92 NONAME
	_ZN11CBearerBase14UpdateObserverEv @ 93 NONAME
	_ZN11CBearerBase18AnyBearerAvailableERi @ 94 NONAME
	_ZN11CBearerBase23SecondPhaseAvailabilityEv @ 95 NONAME
	_ZN11CBearerBase9AddAgentLEP13CNifAgentBase @ 96 NONAME
	_ZN11CBearerBaseC2EP15MBearerObserver @ 97 NONAME
	_ZN11CBearerBaseD0Ev @ 98 NONAME
	_ZN11CBearerBaseD1Ev @ 99 NONAME
	_ZN11CBearerBaseD2Ev @ 100 NONAME
	_ZN11CNifFactory16ControlledDeleteEPv @ 101 NONAME
	_ZN11CNifFactory4OpenEv @ 102 NONAME
	_ZN11CNifFactory5CloseEv @ 103 NONAME
	_ZN11CNifFactory5InitLER8RLibraryR10CObjectCon @ 104 NONAME
	_ZN11CNifFactory7CleanupEPv @ 105 NONAME
	_ZN11CNifFactoryC2Ev @ 106 NONAME
	_ZN11CNifFactoryD0Ev @ 107 NONAME
	_ZN11CNifFactoryD1Ev @ 108 NONAME
	_ZN11CNifFactoryD2Ev @ 109 NONAME
	_ZN12CAgentSMBase12GetLastErrorERi @ 110 NONAME
	_ZN12CAgentSMBase12NotificationE20TAgentToNifEventTypePv @ 111 NONAME
	_ZN12CAgentSMBase13CompleteStateEi @ 112 NONAME
	_ZN12CAgentSMBase14ServiceStartedEv @ 113 NONAME
	_ZN12CAgentSMBase14UpdateProgressEii @ 114 NONAME
	_ZN12CAgentSMBase18ConnectionCompleteEi @ 115 NONAME
	_ZN12CAgentSMBase18ConnectionCompleteEii @ 116 NONAME
	_ZN12CAgentSMBase18DisconnectCompleteEv @ 117 NONAME
	_ZN12CAgentSMBase22ConnectionContinuationENS_22TSMContinueConnectTypeE @ 118 NONAME
	_ZN12CAgentSMBase24PreventConnectionRetriesEv @ 119 NONAME
	_ZN12CAgentSMBase26IncomingConnectionReceivedEv @ 120 NONAME
	_ZN12CAgentSMBase2DbEv @ 121 NONAME
	_ZN12CAgentSMBase4RunLEv @ 122 NONAME
	_ZN12CAgentSMBase6DlgPrcEv @ 123 NONAME
	_ZN12CAgentSMBase8DoCancelEv @ 124 NONAME
	_ZN12CAgentSMBaseC2ER12MAgentNotifyP16CDialogProcessorR14CCommsDbAccess @ 125 NONAME
	_ZN12CAgentSMBaseD0Ev @ 126 NONAME
	_ZN12CAgentSMBaseD1Ev @ 127 NONAME
	_ZN12CAgentSMBaseD2Ev @ 128 NONAME
	_ZN12CEventLogger10LogCallEndER14TRequestStatus @ 129 NONAME
	_ZN12CEventLogger12LogCallStartERK7TDesC16iS2_4TUidR14TRequestStatus @ 130 NONAME
	_ZN12CEventLogger15LogDataAddEventEiRK7TDesC16iS2_4TUid @ 131 NONAME
	_ZN12CEventLogger18LogDataTransferredExx4TUidR14TRequestStatus @ 132 NONAME
	_ZN12CEventLogger18LogDataUpdateEventEiRK4TUid @ 133 NONAME
	_ZN12CEventLogger18LogDataUpdateEventEiRK4TUidRKxS4_ @ 134 NONAME
	_ZN12CEventLogger28LogDataNotifyLastEventUpdateEP14TRequestStatus @ 135 NONAME
	_ZN12CEventLogger4NewLEv @ 136 NONAME
	_ZN12CEventLogger6CancelEv @ 137 NONAME
	_ZN12CEventLoggerD0Ev @ 138 NONAME
	_ZN12CEventLoggerD1Ev @ 139 NONAME
	_ZN12CEventLoggerD2Ev @ 140 NONAME
	_ZN12MNifIfNotify7ReadDesERK7TDesC16R5TDes8 @ 141 NONAME
	_ZN12MNifIfNotify7ReadDesERK7TDesC16R5TDes8PK12RMessagePtr2 @ 142 NONAME
	_ZN12MNifIfNotify7ReadDesERK7TDesC16R6TDes16 @ 143 NONAME
	_ZN12MNifIfNotify7ReadDesERK7TDesC16R6TDes16PK12RMessagePtr2 @ 144 NONAME
	_ZN12MNifIfNotify7ReadIntERK7TDesC16Rm @ 145 NONAME
	_ZN12MNifIfNotify7ReadIntERK7TDesC16RmPK12RMessagePtr2 @ 146 NONAME
	_ZN12MNifIfNotify8ReadBoolERK7TDesC16Ri @ 147 NONAME
	_ZN12MNifIfNotify8ReadBoolERK7TDesC16RiPK12RMessagePtr2 @ 148 NONAME
	_ZN12MNifIfNotify8WriteDesERK7TDesC16RK6TDesC8 @ 149 NONAME
	_ZN12MNifIfNotify8WriteDesERK7TDesC16RK6TDesC8PK12RMessagePtr2 @ 150 NONAME
	_ZN12MNifIfNotify8WriteDesERK7TDesC16S2_ @ 151 NONAME
	_ZN12MNifIfNotify8WriteDesERK7TDesC16S2_PK12RMessagePtr2 @ 152 NONAME
	_ZN12MNifIfNotify8WriteIntERK7TDesC16m @ 153 NONAME
	_ZN12MNifIfNotify8WriteIntERK7TDesC16mPK12RMessagePtr2 @ 154 NONAME
	_ZN12MNifIfNotify9WriteBoolERK7TDesC16i @ 155 NONAME
	_ZN12MNifIfNotify9WriteBoolERK7TDesC16iPK12RMessagePtr2 @ 156 NONAME
	_ZN13CNifAgentBase13ReadLongDesLCERK7TDesC16 @ 157 NONAME
	_ZN13CNifAgentBase13ReadLongDesLCERK7TDesC16PK12RMessagePtr2 @ 158 NONAME
	_ZN13CNifAgentBase19CheckReadCapabilityERK7TDesC16PK12RMessagePtr2 @ 159 NONAME
	_ZN13CNifAgentBase20CheckWriteCapabilityERK7TDesC16PK12RMessagePtr2 @ 160 NONAME
	_ZN13CNifAgentBase21DoCheckReadCapabilityERK7TDesC16PK12RMessagePtr2 @ 161 NONAME
	_ZN13CNifAgentBase22DoCheckWriteCapabilityERK7TDesC16PK12RMessagePtr2 @ 162 NONAME
	_ZN13CNifAgentBase7ControlEjjR5TDes8 @ 163 NONAME
	_ZN13CNifAgentBase7ControlEjjR5TDes8RK8RProcess @ 164 NONAME
	_ZN13CNifAgentBase7ReadDesERK7TDesC16R5TDes8 @ 165 NONAME
	_ZN13CNifAgentBase7ReadDesERK7TDesC16R5TDes8PK12RMessagePtr2 @ 166 NONAME
	_ZN13CNifAgentBase7ReadDesERK7TDesC16R6TDes16 @ 167 NONAME
	_ZN13CNifAgentBase7ReadDesERK7TDesC16R6TDes16PK12RMessagePtr2 @ 168 NONAME
	_ZN13CNifAgentBase7ReadIntERK7TDesC16Rm @ 169 NONAME
	_ZN13CNifAgentBase7ReadIntERK7TDesC16RmPK12RMessagePtr2 @ 170 NONAME
	_ZN13CNifAgentBase8ReadBoolERK7TDesC16Ri @ 171 NONAME
	_ZN13CNifAgentBase8ReadBoolERK7TDesC16RiPK12RMessagePtr2 @ 172 NONAME
	_ZN13CNifAgentBase8WriteDesERK7TDesC16RK6TDesC8 @ 173 NONAME
	_ZN13CNifAgentBase8WriteDesERK7TDesC16RK6TDesC8PK12RMessagePtr2 @ 174 NONAME
	_ZN13CNifAgentBase8WriteDesERK7TDesC16S2_ @ 175 NONAME
	_ZN13CNifAgentBase8WriteDesERK7TDesC16S2_PK12RMessagePtr2 @ 176 NONAME
	_ZN13CNifAgentBase8WriteIntERK7TDesC16m @ 177 NONAME
	_ZN13CNifAgentBase8WriteIntERK7TDesC16mPK12RMessagePtr2 @ 178 NONAME
	_ZN13CNifAgentBase9WriteBoolERK7TDesC16i @ 179 NONAME
	_ZN13CNifAgentBase9WriteBoolERK7TDesC16iPK12RMessagePtr2 @ 180 NONAME
	_ZN13CNifAgentBaseC2Ev @ 181 NONAME
	_ZN13CNifIfFactory13NewInterfaceLERK7TDesC16P12MNifIfNotify @ 182 NONAME
	_ZN14CCommsDbAccess10GetGlobalLERK7TDesC16Rm @ 183 NONAME
	_ZN14CCommsDbAccess10ModemTableEv @ 184 NONAME
	_ZN14CCommsDbAccess11GetTsyNameLER6TDes16 @ 185 NONAME
	_ZN14CCommsDbAccess12GetLongDesLCERK7TDesC16S2_ @ 186 NONAME
	_ZN14CCommsDbAccess12SetCommPortLERKN5RCall9TCommPortE @ 187 NONAME
	_ZN14CCommsDbAccess13DoesIapExistLEm @ 188 NONAME
	_ZN14CCommsDbAccess13ReadLongDesLCERK7TDesC16 @ 189 NONAME
	_ZN14CCommsDbAccess13SetOverridesLEP23CCommDbOverrideSettings @ 190 NONAME
	_ZN14CCommsDbAccess14SetNetworkModeEN12RMobilePhone23TMobilePhoneNetworkModeE @ 191 NONAME
	_ZN14CCommsDbAccess15GetPreferedIapLERm26TCommDbConnectionDirectionm @ 192 NONAME
	_ZN14CCommsDbAccess15GetServiceTypeLER6TDes16 @ 193 NONAME
	_ZN14CCommsDbAccess15SetPreferedIapLERm26TCommDbConnectionDirectionm @ 194 NONAME
	_ZN14CCommsDbAccess17GetFirstValidIapLERm @ 195 NONAME
	_ZN14CCommsDbAccess19CheckReadCapabilityERK7TDesC16PK12RMessagePtr2 @ 196 NONAME
	_ZN14CCommsDbAccess19GetCurrentSettingsLER19TConnectionSettings26TCommDbConnectionDirectionm @ 197 NONAME
	_ZN14CCommsDbAccess19GetLengthOfLongDesLERK7TDesC16S2_ @ 198 NONAME
	_ZN14CCommsDbAccess19GetServiceSettingsLER19TConnectionSettings @ 199 NONAME
	_ZN14CCommsDbAccess19SetCurrentSettingsLERK19TConnectionSettings @ 200 NONAME
	_ZN14CCommsDbAccess20CheckWriteCapabilityERK7TDesC16PK12RMessagePtr2 @ 201 NONAME
	_ZN14CCommsDbAccess20SetModemAndLocationLERK19TConnectionSettings @ 202 NONAME
	_ZN14CCommsDbAccess21GetConnectionAttemptsEv @ 203 NONAME
	_ZN14CCommsDbAccess22IsShowingHiddenRecordsEv @ 204 NONAME
	_ZN14CCommsDbAccess29GetBearerAvailabilityTsyNameLER6TDes16 @ 205 NONAME
	_ZN14CCommsDbAccess35IsTelNumLengthZeroForRasConnectionLER19TConnectionSettings @ 206 NONAME
	_ZN14CCommsDbAccess35RequestNotificationOfServiceChangeLEP22MServiceChangeObserver @ 207 NONAME
	_ZN14CCommsDbAccess40CancelRequestNotificationOfServiceChangeEP22MServiceChangeObserver @ 208 NONAME
	_ZN14CCommsDbAccess4NewLEP14MCommsDbAccess @ 209 NONAME
	_ZN14CCommsDbAccess4NewLEi @ 210 NONAME
	_ZN14CCommsDbAccess4NewLEv @ 211 NONAME
	_ZN14CCommsDbAccess5CloseEv @ 212 NONAME
	_ZN14CCommsDbAccess7GetDesLERK7TDesC16S2_R5TDes8 @ 213 NONAME
	_ZN14CCommsDbAccess7GetDesLERK7TDesC16S2_R6TDes16 @ 214 NONAME
	_ZN14CCommsDbAccess7GetIntLERK7TDesC16S2_Rm @ 215 NONAME
	_ZN14CCommsDbAccess7ReadDesERK7TDesC16R5TDes8 @ 216 NONAME
	_ZN14CCommsDbAccess7ReadDesERK7TDesC16R6TDes16 @ 217 NONAME
	_ZN14CCommsDbAccess7ReadIntERK7TDesC16Rm @ 218 NONAME
	_ZN14CCommsDbAccess8GetBoolLERK7TDesC16S2_Ri @ 219 NONAME
	_ZN14CCommsDbAccess8ReadBoolERK7TDesC16Ri @ 220 NONAME
	_ZN14CCommsDbAccess8WriteDesERK7TDesC16RK6TDesC8 @ 221 NONAME
	_ZN14CCommsDbAccess8WriteDesERK7TDesC16S2_ @ 222 NONAME
	_ZN14CCommsDbAccess8WriteIntERK7TDesC16m @ 223 NONAME
	_ZN14CCommsDbAccess9WriteBoolERK7TDesC16i @ 224 NONAME
	_ZN14CCommsDbAccessD0Ev @ 225 NONAME
	_ZN14CCommsDbAccessD1Ev @ 226 NONAME
	_ZN14CCommsDbAccessD2Ev @ 227 NONAME
	_ZN14MCommsDbAccess19CheckReadCapabilityERK7TDesC16PK12RMessagePtr2 @ 228 NONAME
	_ZN14MCommsDbAccess20CheckWriteCapabilityERK7TDesC16PK12RMessagePtr2 @ 229 NONAME
	_ZN14MCommsDbAccessD0Ev @ 230 NONAME
	_ZN14MCommsDbAccessD1Ev @ 231 NONAME
	_ZN14MCommsDbAccessD2Ev @ 232 NONAME
	_ZN15CAgentStateBase10JumpToRunlEi @ 233 NONAME
	_ZN15CAgentStateBaseC2ER21MAgentStateMachineEnv @ 234 NONAME
	_ZN15CAgentStateBaseD0Ev @ 235 NONAME
	_ZN15CAgentStateBaseD1Ev @ 236 NONAME
	_ZN15CAgentStateBaseD2Ev @ 237 NONAME
	_ZN16CDialogProcessor10QoSWarningER24MDialogProcessorObserver @ 238 NONAME
	_ZN16CDialogProcessor12AuthenticateER24MDialogProcessorObserverR6TDes16S3_i @ 239 NONAME
	_ZN16CDialogProcessor16CancelEverythingEv @ 240 NONAME
	_ZN16CDialogProcessor16SelectConnectionER24MDialogProcessorObserverRK16TConnectionPrefs @ 241 NONAME
	_ZN16CDialogProcessor16SelectConnectionER24MDialogProcessorObserverRK16TConnectionPrefsi @ 242 NONAME
	_ZN16CDialogProcessor17WarnNewConnectionER24MDialogProcessorObserverRK16TConnectionPrefsPK7TDesC16PK19TIspConnectionNamesi @ 243 NONAME
	_ZN16CDialogProcessor22DestroyPctNotificationER24MDialogProcessorObserver @ 244 NONAME
	_ZN16CDialogProcessor22SelectModemAndLocationER24MDialogProcessorObserver @ 245 NONAME
	_ZN16CDialogProcessor4NewLEi @ 246 NONAME
	_ZN16CDialogProcessor5LoginER24MDialogProcessorObserverR6TDes16S3_i @ 247 NONAME
	_ZN16CDialogProcessor7OpenPctEv @ 248 NONAME
	_ZN16CDialogProcessor7ReadPctER24MDialogProcessorObserverR6TDes16 @ 249 NONAME
	_ZN16CDialogProcessor8ClosePctEv @ 250 NONAME
	_ZN16CDialogProcessor8WritePctERK7TDesC16 @ 251 NONAME
	_ZN16CDialogProcessor9ReconnectER24MDialogProcessorObserver @ 252 NONAME
	_ZN16CDialogProcessorD0Ev @ 253 NONAME
	_ZN16CDialogProcessorD1Ev @ 254 NONAME
	_ZN16CDialogProcessorD2Ev @ 255 NONAME
	_ZN19TConnectionSettingsC1Ev @ 256 NONAME
	_ZN19TConnectionSettingsC2Ev @ 257 NONAME
	_ZN22CNetworkControllerBase10AddBearerLEP11CBearerBase @ 258 NONAME
	_ZN22CNetworkControllerBase11AddNetworkLEP8CNetwork @ 259 NONAME
	_ZN22CNetworkControllerBaseC2Ev @ 260 NONAME
	_ZN22CNetworkControllerBaseD0Ev @ 261 NONAME
	_ZN22CNetworkControllerBaseD1Ev @ 262 NONAME
	_ZN22CNetworkControllerBaseD2Ev @ 263 NONAME
	_ZN22CStateMachineAgentBase10ConstructLEv @ 264 NONAME
	_ZN22CStateMachineAgentBase10DisconnectEi @ 265 NONAME
	_ZN22CStateMachineAgentBase12GetLastErrorERi @ 266 NONAME
	_ZN22CStateMachineAgentBase12NotificationE20TAgentToNifEventTypePv @ 267 NONAME
	_ZN22CStateMachineAgentBase12NotificationE20TNifToAgentEventTypePv @ 268 NONAME
	_ZN22CStateMachineAgentBase13CancelConnectEv @ 269 NONAME
	_ZN22CStateMachineAgentBase13GetExcessDataER5TDes8 @ 270 NONAME
	_ZN22CStateMachineAgentBase14ServiceStartedEv @ 271 NONAME
	_ZN22CStateMachineAgentBase14UpdateProgressEii @ 272 NONAME
	_ZN22CStateMachineAgentBase18ConnectionCompleteEi @ 273 NONAME
	_ZN22CStateMachineAgentBase18ConnectionCompleteEii @ 274 NONAME
	_ZN22CStateMachineAgentBase18DisconnectCompleteEv @ 275 NONAME
	_ZN22CStateMachineAgentBase24PreventConnectionRetriesEv @ 276 NONAME
	_ZN22CStateMachineAgentBase26IncomingConnectionReceivedEv @ 277 NONAME
	_ZN22CStateMachineAgentBase7ConnectE17TAgentConnectType @ 278 NONAME
	_ZN22CStateMachineAgentBase7ConnectE17TAgentConnectTypeP26CStoreableOverrideSettings @ 279 NONAME
	_ZN22CStateMachineAgentBaseC2Ev @ 280 NONAME
	_ZN22CStateMachineAgentBaseD0Ev @ 281 NONAME
	_ZN22CStateMachineAgentBaseD1Ev @ 282 NONAME
	_ZN22CStateMachineAgentBaseD2Ev @ 283 NONAME
	_ZN24MDialogProcessorObserver16MDPOWarnCompleteEii @ 284 NONAME
	_ZN24MDialogProcessorObserver17MDPOLoginCompleteEi @ 285 NONAME
	_ZN24MDialogProcessorObserver18MDPOSelectCompleteEiRK19TConnectionSettings @ 286 NONAME
	_ZN24MDialogProcessorObserver19MDPOReadPctCompleteEi @ 287 NONAME
	_ZN24MDialogProcessorObserver21MDPOReconnectCompleteEi @ 288 NONAME
	_ZN24MDialogProcessorObserver22MDPODestroyPctCompleteEi @ 289 NONAME
	_ZN24MDialogProcessorObserver22MDPOQoSWarningCompleteEii @ 290 NONAME
	_ZN24MDialogProcessorObserver24MDPOAuthenticateCompleteEi @ 291 NONAME
	_ZN24MDialogProcessorObserver34MDPOSelectModemAndLocationCompleteEiRK19TConnectionSettings @ 292 NONAME
	_ZN3Nif12CreateAgentLERK7TDesC16i @ 293 NONAME
	_ZN3Nif14NewConnectionLEP17MConnectionNotifyj @ 294 NONAME
	_ZN3Nif14SetSocketStateE15TNifSocketStateP17CServProviderBase @ 295 NONAME
	_ZN3Nif15CheckInstalledLEv @ 296 NONAME
	_ZN3Nif16CreateInterfaceLERK7TDesC16 @ 297 NONAME
	_ZN3Nif16CreateInterfaceLERK7TDesC16P12MNifIfNotify @ 298 NONAME
	_ZN3Nif16IsProtocolLoadedERK7TDesC16 @ 299 NONAME
	_ZN3Nif18NetworkLayerClosedER10MNifIfUser @ 300 NONAME
	_ZN3Nif26CheckInstalledMBufManagerLEv @ 301 NONAME
	_ZN3Nif4StopEPvP10CNifIfBase @ 302 NONAME
	_ZN3Nif4StopERK7TDesC16 @ 303 NONAME
	_ZN3Nif5BindLER10MNifIfUserPvR6TDes16RK7TDesC16 @ 304 NONAME
	_ZN3Nif6StartLER6TDes16RK7TDesC16 @ 305 NONAME
	_ZN3Nif9ProgressLER12TNifProgressPvP10CNifIfBase @ 306 NONAME
	_ZN3Nif9ProgressLER12TNifProgressRK7TDesC16 @ 307 NONAME
	_ZN5MComm10CommCancelEv @ 308 NONAME
	_ZN5MComm10CommDeleteEv @ 309 NONAME
	_ZN5MComm13CommReadReadyEv @ 310 NONAME
	_ZN5MComm14CommConstructLEii @ 311 NONAME
	_ZN5MComm14CommReadCancelEv @ 312 NONAME
	_ZN5MComm14CommWriteReadyEv @ 313 NONAME
	_ZN5MComm15CommWriteCancelEv @ 314 NONAME
	_ZN5MComm17CommReadOneOrMoreER5TDes8 @ 315 NONAME
	_ZN5MComm8CommOpenERK7TDesC1611TCommAccess @ 316 NONAME
	_ZN5MComm8CommOpenERK7TDesC16S2_11TCommAccess @ 317 NONAME
	_ZN5MComm8CommOpenERK7TDesC16S2_11TCommAccess9TCommRole @ 318 NONAME
	_ZN5MComm8CommReadER5TDes8 @ 319 NONAME
	_ZN5MComm9CommCloseEv @ 320 NONAME
	_ZN5MComm9CommWriteERK6TDesC8 @ 321 NONAME
	_ZN6MTimer10TimerAfterE27TTimeIntervalMicroSeconds32 @ 322 NONAME
	_ZN6MTimer11TimerCancelEv @ 323 NONAME
	_ZN6MTimer11TimerDeleteEv @ 324 NONAME
	_ZN6MTimer15TimerConstructLEi @ 325 NONAME
	_ZN6MTimer7TimerAtERK5TTime @ 326 NONAME
	_ZN6MTimer9TimerLockE14TTimerLockSpec @ 327 NONAME
	_ZN8CNetwork10ConstructLEv @ 328 NONAME
	_ZN8CNetwork12RemoveAgentLEP13CNifAgentBase @ 329 NONAME
	_ZN8CNetwork4NewLEmP22CNetworkControllerBase @ 330 NONAME
	_ZN8CNetwork5NewLCEmP22CNetworkControllerBase @ 331 NONAME
	_ZN8CNetwork9AddAgentLEP13CNifAgentBase @ 332 NONAME
	_ZN8CNetworkC1EmP22CNetworkControllerBase @ 333 NONAME
	_ZN8CNetworkC2EmP22CNetworkControllerBase @ 334 NONAME
	_ZN8CNetworkD0Ev @ 335 NONAME
	_ZN8CNetworkD1Ev @ 336 NONAME
	_ZN8CNetworkD2Ev @ 337 NONAME
	_ZNK10CAgentBase8IsActiveEv @ 338 NONAME
	_ZNK11CBearerBase18AvailableBearerSetEv @ 339 NONAME
	_ZNK11CBearerBase18SupportedBearerSetEv @ 340 NONAME
	_ZNK14CCommsDbAccess10LocationIdEv @ 341 NONAME
	_ZNK14CCommsDbAccess11NetworkModeEv @ 342 NONAME
	_ZNK14CCommsDbAccess22GetConnectionDirectionEv @ 343 NONAME
	_ZNK22CNetworkControllerBase15FindNetworkByIdEmRP8CNetwork @ 344 NONAME
	_ZNK22CStateMachineAgentBase11IsReconnectEv @ 345 NONAME
	_ZNK5MComm13CommIsReadingEv @ 346 NONAME
	_ZNK5MComm13CommIsWritingEv @ 347 NONAME
	_ZNK8CNetwork14FindAgentByIapEmRP13CNifAgentBase @ 348 NONAME
	_ZNK8CNetwork9NetworkIdEv @ 349 NONAME
	_ZTI10CAgentBase @ 350 NONAME ; #<TI>#
	_ZTI10CNifIfBase @ 351 NONAME ; #<TI>#
	_ZTI10CNifIfLink @ 352 NONAME ; #<TI>#
	_ZTI11CBearerBase @ 353 NONAME ; #<TI>#
	_ZTI11CNifFactory @ 354 NONAME ; #<TI>#
	_ZTI12CAgentSMBase @ 355 NONAME ; #<TI>#
	_ZTI12CEventLogger @ 356 NONAME ; #<TI>#
	_ZTI13CNifAgentBase @ 357 NONAME ; #<TI>#
	_ZTI13CNifIfFactory @ 358 NONAME ; #<TI>#
	_ZTI14CCommsDbAccess @ 359 NONAME ; #<TI>#
	_ZTI14MCommsDbAccess @ 360 NONAME ; #<TI>#
	_ZTI15CAgentStateBase @ 361 NONAME ; #<TI>#
	_ZTI16CDialogProcessor @ 362 NONAME ; #<TI>#
	_ZTI22CNetworkControllerBase @ 363 NONAME ; #<TI>#
	_ZTI22CStateMachineAgentBase @ 364 NONAME ; #<TI>#
	_ZTI24MDialogProcessorObserver @ 365 NONAME ; #<TI>#
	_ZTI8CNetwork @ 366 NONAME ; #<TI>#
	_ZTV10CAgentBase @ 367 NONAME ; #<VT>#
	_ZTV10CNifIfBase @ 368 NONAME ; #<VT>#
	_ZTV10CNifIfLink @ 369 NONAME ; #<VT>#
	_ZTV11CBearerBase @ 370 NONAME ; #<VT>#
	_ZTV11CNifFactory @ 371 NONAME ; #<VT>#
	_ZTV12CAgentSMBase @ 372 NONAME ; #<VT>#
	_ZTV12CEventLogger @ 373 NONAME ; #<VT>#
	_ZTV13CNifAgentBase @ 374 NONAME ; #<VT>#
	_ZTV13CNifIfFactory @ 375 NONAME ; #<VT>#
	_ZTV14CCommsDbAccess @ 376 NONAME ; #<VT>#
	_ZTV14MCommsDbAccess @ 377 NONAME ; #<VT>#
	_ZTV15CAgentStateBase @ 378 NONAME ; #<VT>#
	_ZTV16CDialogProcessor @ 379 NONAME ; #<VT>#
	_ZTV22CNetworkControllerBase @ 380 NONAME ; #<VT>#
	_ZTV22CStateMachineAgentBase @ 381 NONAME ; #<VT>#
	_ZTV24MDialogProcessorObserver @ 382 NONAME ; #<VT>#
	_ZTV8CNetwork @ 383 NONAME ; #<VT>#
	_ZThn12_N10CAgentBase24MDPOAuthenticateCompleteEi @ 384 NONAME ; #<thunk>#
	_ZThn16_N10CAgentBase14SelectCompleteERK7TDesC16 @ 385 NONAME ; #<thunk>#
	_ZThn16_N10CAgentBase14SelectCompleteEi @ 386 NONAME ; #<thunk>#
	_ZThn16_N10CAgentBase17ReconnectCompleteEi @ 387 NONAME ; #<thunk>#
	_ZThn28_N12CAgentSMBase12NotificationE20TAgentToNifEventTypePv @ 388 NONAME ; #<thunk>#
	_ZThn28_N12CAgentSMBase13CompleteStateEi @ 389 NONAME ; #<thunk>#
	_ZThn28_N12CAgentSMBase14ServiceStartedEv @ 390 NONAME ; #<thunk>#
	_ZThn28_N12CAgentSMBase14UpdateProgressEii @ 391 NONAME ; #<thunk>#
	_ZThn28_N12CAgentSMBase18ConnectionCompleteEi @ 392 NONAME ; #<thunk>#
	_ZThn28_N12CAgentSMBase18ConnectionCompleteEii @ 393 NONAME ; #<thunk>#
	_ZThn28_N12CAgentSMBase18DisconnectCompleteEv @ 394 NONAME ; #<thunk>#
	_ZThn28_N12CAgentSMBase24PreventConnectionRetriesEv @ 395 NONAME ; #<thunk>#
	_ZThn28_N12CAgentSMBase26IncomingConnectionReceivedEv @ 396 NONAME ; #<thunk>#
	_ZThn28_N12CAgentSMBase2DbEv @ 397 NONAME ; #<thunk>#
	_ZThn28_N12CAgentSMBase6DlgPrcEv @ 398 NONAME ; #<thunk>#
	_ZThn316_N22CStateMachineAgentBase12NotificationE20TAgentToNifEventTypePv @ 399 NONAME ; #<thunk>#
	_ZThn316_N22CStateMachineAgentBase14ServiceStartedEv @ 400 NONAME ; #<thunk>#
	_ZThn316_N22CStateMachineAgentBase14UpdateProgressEii @ 401 NONAME ; #<thunk>#
	_ZThn316_N22CStateMachineAgentBase18ConnectionCompleteEi @ 402 NONAME ; #<thunk>#
	_ZThn316_N22CStateMachineAgentBase18ConnectionCompleteEii @ 403 NONAME ; #<thunk>#
	_ZThn316_N22CStateMachineAgentBase18DisconnectCompleteEv @ 404 NONAME ; #<thunk>#
	_ZThn316_N22CStateMachineAgentBase24PreventConnectionRetriesEv @ 405 NONAME ; #<thunk>#
	_ZThn316_N22CStateMachineAgentBase26IncomingConnectionReceivedEv @ 406 NONAME ; #<thunk>#
	_ZThn8_N10CAgentBase25ServiceChangeNotificationEmRK7TDesC16 @ 407 NONAME ; #<thunk>#
	_ZTIN4Meta11TMetaVarLenI5RBuf8EE @ 408 NONAME ABSENT ; #<TI>#
	_ZTIN4Meta11TMetaVarLenI6RBuf16EE @ 409 NONAME ABSENT ; #<TI>#
	_ZTIN4Meta12TMetaVarLen8I5RBuf8EE @ 410 NONAME ABSENT ; #<TI>#
	_ZTIN4Meta13TMetaVarLen16I6RBuf16EE @ 411 NONAME ABSENT ; #<TI>#
	_ZTVN4Meta11TMetaVarLenI5RBuf8EE @ 412 NONAME ABSENT ; #<VT>#
	_ZTVN4Meta11TMetaVarLenI6RBuf16EE @ 413 NONAME ABSENT ; #<VT>#
	_ZTVN4Meta12TMetaVarLen8I5RBuf8EE @ 414 NONAME ABSENT ; #<VT>#
	_ZTVN4Meta13TMetaVarLen16I6RBuf16EE @ 415 NONAME ABSENT ; #<VT>#
	_ZN7CNifMan6GlobalEv @ 416 NONAME

