EXPORTS
	_ZN9CTestStep15testBooleanTrueEiPci @ 1 NONAME ; CTestStep::testBooleanTrue(int, char*, int)
	_ZN4CLog12CloseLogFileEv @ 2 NONAME ; CLog::CloseLogFile(void)
	_ZN11CFileLogger8CloseLogEv @ 3 NONAME ; CFileLogger::CloseLog(void)
	_ZN11CFileLogger7ConnectEv @ 4 NONAME ; CFileLogger::Connect(void)
	_ZN10CTestSuite10ConstructLEv @ 5 NONAME ; CTestSuite::ConstructL(void)
	_ZN4CLog9ConstructEP12CConsoleBase @ 6 NONAME ; CLog::Construct(CConsoleBase*)
	_ZN11CFileLogger9CreateLogERK7TDesC16S2_ @ 7 NONAME ; CFileLogger::CreateLog(TDesC16 const&, TDesC16 const&)
	_ZN10CTestSuite10DoTestStepER7TDesC16S1_ @ 8 NONAME ; CTestSuite::DoTestStep(TDesC16&, TDesC16&)
	_ZN10CTestSuite10DoTestUnitER7TDesC16 @ 9 NONAME ; CTestSuite::DoTestUnit(TDesC16&)
	_ZN4CLog15EpocErrorToTextEi @ 10 NONAME ; CLog::EpocErrorToText(int)
	_ZN9CTestStep15EpocErrorToTextEi @ 11 NONAME ; CTestStep::EpocErrorToText(int)
	_ZN9CTestStep17GetBoolFromConfigERK7TDesC16S2_Ri @ 12 NONAME ; CTestStep::GetBoolFromConfig(TDesC16 const&, TDesC16 const&, int&)
	_ZN9CTestStep16GetIntFromConfigERK7TDesC16S2_Ri @ 13 NONAME ; CTestStep::GetIntFromConfig(TDesC16 const&, TDesC16 const&, int&)
	_ZN9CTestStep19GetStringFromConfigERK7TDesC16S2_R7TPtrC16 @ 14 NONAME ; CTestStep::GetStringFromConfig(TDesC16 const&, TDesC16 const&, TPtrC16&)
	_ZN10CTestSuite10GetVersionEv @ 15 NONAME ; CTestSuite::GetVersion(void)
	_ZN9CTestStep10LoadConfigER7TDesC16 @ 16 NONAME ; CTestStep::LoadConfig(TDesC16&)
	_ZN4CLog12LogBlankLineEi @ 17 NONAME ; CLog::LogBlankLine(int)
	_ZN10CTestSuite8LogExtraEPKhii11TRefByValueIK7TDesC16Ez @ 18 NONAME ; CTestSuite::LogExtra(unsigned char const*, int, int, TRefByValue<TDesC16 const>, ...)
	_ZN4CLog8LogExtraEPKhii11TRefByValueIK7TDesC16ESt9__va_list @ 19 NONAME ; CLog::LogExtra(unsigned char const*, int, int, TRefByValue<TDesC16 const>, std::__va_list)
	_ZN4CLog8LogExtraEPKhii11TRefByValueIK7TDesC16Ez @ 20 NONAME ; CLog::LogExtra(unsigned char const*, int, int, TRefByValue<TDesC16 const>, ...)
	_ZN9CTestStep8LogExtraEPKhii11TRefByValueIK7TDesC16Ez @ 21 NONAME ; CTestStep::LogExtra(unsigned char const*, int, int, TRefByValue<TDesC16 const>, ...)
	_ZN4CLog9LogResultE8TVerdict11TRefByValueIK7TDesC16Ez @ 22 NONAME ; CLog::LogResult(TVerdict, TRefByValue<TDesC16 const>, ...)
	_ZN10CTestSuite3LogE11TRefByValueIK7TDesC16Ez @ 23 NONAME ; CTestSuite::Log(TRefByValue<TDesC16 const>, ...)
	_ZN10CTestSuite3LogEi11TRefByValueIK7TDesC16Ez @ 24 NONAME ; CTestSuite::Log(int, TRefByValue<TDesC16 const>, ...)
	_ZN4CLog3LogE11TRefByValueIK7TDesC16ESt9__va_list @ 25 NONAME ; CLog::Log(TRefByValue<TDesC16 const>, std::__va_list)
	_ZN4CLog3LogE11TRefByValueIK7TDesC16Ez @ 26 NONAME ; CLog::Log(TRefByValue<TDesC16 const>, ...)
	_ZN4CLog3LogEi11TRefByValueIK7TDesC16Ez @ 27 NONAME ; CLog::Log(int, TRefByValue<TDesC16 const>, ...)
	_ZN9CTestStep3LogE11TRefByValueIK7TDesC16Ez @ 28 NONAME ; CTestStep::Log(TRefByValue<TDesC16 const>, ...)
	_ZN9CTestStep3LogEi11TRefByValueIK7TDesC16Ez @ 29 NONAME ; CTestStep::Log(int, TRefByValue<TDesC16 const>, ...)
	_ZN10CTestUtils4NewLEP4CLog @ 30 NONAME ; CTestUtils::NewL(CLog*)
	_ZN4CLog4NewLEP12CConsoleBase @ 31 NONAME ; CLog::NewL(CConsoleBase*)
	_ZN4CLog12OpenLogFileLERK4TBufILi256EE @ 32 NONAME ; CLog::OpenLogFileL(TBuf<256> const&)
	_ZN10CTestUtils8RunUtilsERK7TDesC16 @ 33 NONAME ; CTestUtils::RunUtils(TDesC16 const&)
	_ZN10CTestSuite12SetLogSystemEP4CLog @ 34 NONAME ; CTestSuite::SetLogSystem(CLog*)
	_ZN4CLog13SetPutSrcInfoEi @ 35 NONAME ; CLog::SetPutSrcInfo(int)
	_ZN10CTestSuite11SetSeverityEi @ 36 NONAME ; CTestSuite::SetSeverity(int)
	_ZN4CLog11SetSeverityEi @ 37 NONAME ; CLog::SetSeverity(int)
	_ZN10CTestSuite8SeverityEv @ 38 NONAME ; CTestSuite::Severity(void)
	_ZN4CLog8SeverityEv @ 39 NONAME ; CLog::Severity(void)
	_ZN9CTestStep22TestCheckPointCompareLEiiRK7TDesC16Pci @ 40 NONAME ; CTestStep::TestCheckPointCompareL(int, int, TDesC16 const&, char*, int)
	_ZN4CLog14TestResultTextE8TVerdict @ 41 NONAME ; CLog::TestResultText(TVerdict)
	_ZN9CTestStep12UnLoadConfigEv @ 42 NONAME ; CTestStep::UnLoadConfig(void)
	_ZN11CFileLogger11WriteFormatE11TRefByValueIK7TDesC16Ez @ 43 NONAME ; CFileLogger::WriteFormat(TRefByValue<TDesC16 const>, ...)
	_ZN10CTestSuiteD1Ev @ 44 NONAME ; CTestSuite::~CTestSuite(void)
	_ZN4CLogD1Ev @ 45 NONAME ; CLog::~CLog(void)
	_ZN9CTestStepD1Ev @ 46 NONAME ; CTestStep::~CTestStep(void)
	_ZTV15CTestActiveStep @ 47 NONAME ; vtable for CTestActiveStep
	_ZTI15CTestActiveStep @ 48 NONAME ; typeinfo for CTestActiveStep
	_ZN9CTestStep20doTestStepPostambleLEv @ 49 NONAME ; CTestStep::doTestStepPostambleL(void)
	_ZN9CTestStep19doTestStepPreambleLEv @ 50 NONAME ; CTestStep::doTestStepPreambleL(void)
	_ZN10CTestSuite16testBooleanTrueLEiPci @ 51 NONAME ; CTestSuite::testBooleanTrueL(int, char*, int)
	_ZN9CTestStep16testBooleanTrueLEiPci @ 52 NONAME ; CTestStep::testBooleanTrueL(int, char*, int)
	_ZN9CTestStep29testBooleanTrueWithErrorCodeLEiiPci @ 53 NONAME ; CTestStep::testBooleanTrueWithErrorCodeL(int, int, char*, int)
	_ZN9CTestStep28testBooleanTrueWithErrorCodeEiiPci @ 54 NONAME ; CTestStep::testBooleanTrueWithErrorCode(int, int, char*, int)
	_ZN10CTestSuite12AddTestStepLEP9CTestStep @ 55 NONAME ; CTestSuite::AddTestStepL(CTestStep*)
	_ZN10CTestSuite17OverrideSuiteNameERK7TDesC16 @ 56 NONAME ; CTestSuite::OverrideSuiteName(TDesC16 const&)
	_ZN14CActiveControl7ReStartEv @ 57 NONAME ; CActiveControl::ReStart(void)
	_ZN15CTestActiveStepD1Ev @ 58 NONAME ; CTestActiveStep::~CTestActiveStep(void)
	_ZN15CTestActiveStepD2Ev @ 59 NONAME ; CTestActiveStep::~CTestActiveStep [not-in-charge](void)
	_ZN4CLogD0Ev @ 60 NONAME ; CLog::~CLog [in-charge deleting](void)
	_ZN15CTestActiveStep20doTestStepPostambleLEv @ 61 NONAME ; CTestActiveStep::doTestStepPostambleL(void)
	_ZN15CTestActiveStep19doTestStepPreambleLEv @ 62 NONAME ; CTestActiveStep::doTestStepPreambleL(void)
	_ZN9CTestStepD2Ev @ 63 NONAME ; CTestStep::~CTestStep [not-in-charge](void)
	_ZTI10CTestSuite @ 64 NONAME ; typeinfo for CTestSuite
	_ZTI9CTestStep @ 65 NONAME ; typeinfo for CTestStep
	_ZTV10CTestSuite @ 66 NONAME ; vtable for CTestSuite
	_ZTV9CTestStep @ 67 NONAME ; vtable for CTestStep
	_ZN4CLogD2Ev @ 68 NONAME ; CLog::~CLog [not-in-charge](void)
	_ZN10CTestSuiteD0Ev @ 69 NONAME ; CTestSuite::~CTestSuite [in-charge deleting](void)
	_ZN10CTestSuiteD2Ev @ 70 NONAME ; CTestSuite::~CTestSuite [not-in-charge](void)
	_ZN9CTestStepD0Ev @ 71 NONAME ; CTestStep::~CTestStep [in-charge deleting](void)
	_ZN9CTestStepC2Ev @ 72 NONAME ; CTestStep::CTestStep[not-in-charge](void)
	_ZN9CTestStepC2ERK7TDesC16 @ 73 NONAME ; CTestStep::CTestStep[not-in-charge](TDesC16 const&)
	_ZN15CTestActiveStepC2ERK7TDesC16 @ 74 NONAME ; CTestActiveStep::CTestActiveStep[not-in-charge](TDesC16 const&)
	_ZN15CTestActiveStepC2Ev @ 75 NONAME ; CTestActiveStep::CTestActiveStep[not-in-charge](void)
	_ZN15CTestActiveStepD0Ev @ 76 NONAME ; CTestActiveStep::~CTestActiveStep [in-charge deleting](void)
	_ZTI14CActiveControl @ 77 NONAME ; #<TI>#
	_ZTI29TIntegrationTestLog16Overflow @ 78 NONAME ; #<TI>#
	_ZTI4CLog @ 79 NONAME ; #<TI>#
	_ZTV14CActiveControl @ 80 NONAME ; #<VT>#
	_ZTV29TIntegrationTestLog16Overflow @ 81 NONAME ; #<VT>#
	_ZTV4CLog @ 82 NONAME ; #<VT>#

