EXPORTS
	_ZN10CExtension10AddStringLERK7TDesC16S2_ @ 1 NONAME
	_ZN10CExtension11AddIntegerLERK7TDesC16i @ 2 NONAME
	_ZN10CExtension12FindVariableERK7TDesC16 @ 3 NONAME
	_ZN10CExtension4CopyER5TDes8 @ 4 NONAME
	_ZN10CExtension4DataEv @ 5 NONAME
	_ZN10CExtension4NewLERK6TDesC8 @ 6 NONAME
	_ZN10CExtension4NewLEv @ 7 NONAME
	_ZN10CExtension5CopyLERK6TDesC8 @ 8 NONAME
	_ZN10CExtension5CopyLERS_ @ 9 NONAME
	_ZN10CExtension7SetNameERK7TDesC16 @ 10 NONAME
	_ZN10CExtension8AddRealLERK7TDesC16d @ 11 NONAME
	_ZN10CExtensionD0Ev @ 12 NONAME
	_ZN10CExtensionD1Ev @ 13 NONAME
	_ZN10CExtensionD2Ev @ 14 NONAME
	_ZN10TPfqosBaseC1Ev @ 15 NONAME
	_ZN10TPfqosBaseC2Ev @ 16 NONAME
	_ZN11TPfqosEventC1Ev @ 17 NONAME
	_ZN11TPfqosEventC2Ev @ 18 NONAME
	_ZN11T_pfqos_msgC1Ehm @ 19 NONAME
	_ZN11T_pfqos_msgC2Ehm @ 20 NONAME
	_ZN12CPfqosStream10AddAddressERK9TInetAddrS2_ht @ 21 NONAME
	_ZN12CPfqosStream10AddChannelEm @ 22 NONAME
	_ZN12CPfqosStream10ConstructLEj @ 23 NONAME
	_ZN12CPfqosStream11AddSelectorEhRK8TUidTypemmmRK7TDesC16 @ 24 NONAME
	_ZN12CPfqosStream13AddConfigFileERK7TDesC16 @ 25 NONAME
	_ZN12CPfqosStream13AddDstAddressERK9TInetAddrS2_t @ 26 NONAME
	_ZN12CPfqosStream13AddModulespecEmmRK7TDesC16S2_RK6TDesC8 @ 27 NONAME
	_ZN12CPfqosStream13AddSrcAddressERK9TInetAddrS2_t @ 28 NONAME
	_ZN12CPfqosStream16AddQoSParametersERK14TQoSParameters @ 29 NONAME
	_ZN12CPfqosStream18AddExtensionHeaderEt @ 30 NONAME
	_ZN12CPfqosStream18AddExtensionPolicyER6TDesC8 @ 31 NONAME
	_ZN12CPfqosStream4InitEhm @ 32 NONAME
	_ZN12CPfqosStream4NewLEj @ 33 NONAME
	_ZN12CPfqosStream4SendER15RInternalSocket @ 34 NONAME
	_ZN12CPfqosStream4SendER15RInternalSocketR14TRequestStatus @ 35 NONAME
	_ZN12CPfqosStream4SendER7RSocket @ 36 NONAME
	_ZN12CPfqosStream4SendER7RSocketR14TRequestStatus @ 37 NONAME
	_ZN12CPfqosStreamC1Ev @ 38 NONAME
	_ZN12CPfqosStreamC2Ev @ 39 NONAME
	_ZN12CPfqosStreamD0Ev @ 40 NONAME
	_ZN12CPfqosStreamD1Ev @ 41 NONAME
	_ZN12CPfqosStreamD2Ev @ 42 NONAME
	_ZN12TIntVariableC1ERK7TDesC16i @ 43 NONAME
	_ZN12TIntVariableC2ERK7TDesC16i @ 44 NONAME
	_ZN12TPfqosModuleC1Ev @ 45 NONAME
	_ZN12TPfqosModuleC2Ev @ 46 NONAME
	_ZN13CSelectorBaseC1ER10TPfqosBaseR14TPfqosSelectorR13TPfqosAddressS5_j @ 47 NONAME
	_ZN13CSelectorBaseC1ERS_ @ 48 NONAME
	_ZN13CSelectorBaseC1Ej @ 49 NONAME
	_ZN13CSelectorBaseC2ER10TPfqosBaseR14TPfqosSelectorR13TPfqosAddressS5_j @ 50 NONAME
	_ZN13CSelectorBaseC2ERS_ @ 51 NONAME
	_ZN13CSelectorBaseC2Ej @ 52 NONAME
	_ZN13CSelectorBaseD0Ev @ 53 NONAME
	_ZN13CSelectorBaseD1Ev @ 54 NONAME
	_ZN13CSelectorBaseD2Ev @ 55 NONAME
	_ZN13TPfqosAddressC1Ev @ 56 NONAME
	_ZN13TPfqosAddressC2Ev @ 57 NONAME
	_ZN13TPfqosChannelC1Ev @ 58 NONAME
	_ZN13TPfqosChannelC2Ev @ 59 NONAME
	_ZN13TPfqosMessage10AddModuleLER14T_pfqos_moduleRK6TDesC8 @ 60 NONAME
	_ZN13TPfqosMessage11ByteStreamLER10RMBufChain @ 61 NONAME
	_ZN13TPfqosMessage12AddExtensionER16CPfqosPolicyData @ 62 NONAME
	_ZN13TPfqosMessage12ModuleLengthEv @ 63 NONAME
	_ZN13TPfqosMessage13AddExtensionLERK6TDesC8i @ 64 NONAME
	_ZN13TPfqosMessage15ExtensionLengthEv @ 65 NONAME
	_ZN13TPfqosMessage16RemovePolicyDataEv @ 66 NONAME
	_ZN13TPfqosMessage3AddER12TPfqosModule @ 67 NONAME
	_ZN13TPfqosMessage8Length64Ev @ 68 NONAME
	_ZN13TPfqosMessageC1ERK6TDesC8 @ 69 NONAME
	_ZN13TPfqosMessageC1Ev @ 70 NONAME
	_ZN13TPfqosMessageC2ERK6TDesC8 @ 71 NONAME
	_ZN13TPfqosMessageC2Ev @ 72 NONAME
	_ZN13TPfqosMessageD1Ev @ 73 NONAME
	_ZN13TPfqosMessageD2Ev @ 74 NONAME
	_ZN13TPolicyParser6ParseLEv @ 75 NONAME
	_ZN13TPolicyParserC1ERK7TDesC16 @ 76 NONAME
	_ZN13TPolicyParserC2ERK7TDesC16 @ 77 NONAME
	_ZN13TPolicyParserD1Ev @ 78 NONAME
	_ZN13TPolicyParserD2Ev @ 79 NONAME
	_ZN13TRealVariableC1ERK7TDesC16d @ 80 NONAME
	_ZN13TRealVariableC2ERK7TDesC16d @ 81 NONAME
	_ZN13TVariableBaseD0Ev @ 82 NONAME
	_ZN13TVariableBaseD1Ev @ 83 NONAME
	_ZN13TVariableBaseD2Ev @ 84 NONAME
	_ZN13T_pfqos_eventC1Ehtt @ 85 NONAME
	_ZN13T_pfqos_eventC2Ehtt @ 86 NONAME
	_ZN14TPfqosFlowSpecC1Ev @ 87 NONAME
	_ZN14TPfqosFlowSpecC2Ev @ 88 NONAME
	_ZN14TPfqosSelector6GetUidER11TCheckedUid @ 89 NONAME
	_ZN14TPfqosSelectorC1Ev @ 90 NONAME
	_ZN14TPfqosSelectorC2Ev @ 91 NONAME
	_ZN14TQoSParameters12SetAdaptModeEi @ 92 NONAME
	_ZN14TQoSParameters13SetHeaderModeEi @ 93 NONAME
	_ZN14TQoSParameters14SetUpLinkDelayEi @ 94 NONAME
	_ZN14TQoSParameters16SetDownLinkDelayEi @ 95 NONAME
	_ZN14TQoSParameters17SetUpLinkPriorityEi @ 96 NONAME
	_ZN14TQoSParameters18SetUplinkBandwidthEi @ 97 NONAME
	_ZN14TQoSParameters19SetDownLinkPriorityEi @ 98 NONAME
	_ZN14TQoSParameters20SetDownlinkBandwidthEi @ 99 NONAME
	_ZN14TQoSParameters25SetUpLinkMaximumBurstSizeEi @ 100 NONAME
	_ZN14TQoSParameters26SetUpLinkAveragePacketSizeEi @ 101 NONAME
	_ZN14TQoSParameters26SetUpLinkMaximumPacketSizeEi @ 102 NONAME
	_ZN14TQoSParameters27SetDownLinkMaximumBurstSizeEi @ 103 NONAME
	_ZN14TQoSParameters28SetDownLinkAveragePacketSizeEi @ 104 NONAME
	_ZN14TQoSParameters28SetDownLinkMaximumPacketSizeEi @ 105 NONAME
	_ZN14TQoSParameters4CopyER10CExtension @ 106 NONAME
	_ZN14TQoSParameters7SetNameERK4TBufILi128EE @ 107 NONAME
	_ZN14TQoSParametersC1Ev @ 108 NONAME
	_ZN14TQoSParametersC2Ev @ 109 NONAME
	_ZN14TQoSParametersaSERKS_ @ 110 NONAME
	_ZN14T_pfqos_moduleC1EjmRK7TDesC16S2_i @ 111 NONAME
	_ZN14T_pfqos_moduleC2EjmRK7TDesC16S2_i @ 112 NONAME
	_ZN15TPfqosConfigureC1Ev @ 113 NONAME
	_ZN15TPfqosConfigureC2Ev @ 114 NONAME
	_ZN15TStringVariableC1ERK7TDesC16S2_ @ 115 NONAME
	_ZN15TStringVariableC2ERK7TDesC16S2_ @ 116 NONAME
	_ZN15T_pfqos_addressC1Ejt @ 117 NONAME
	_ZN15T_pfqos_addressC2Ejt @ 118 NONAME
	_ZN15T_pfqos_channelC1Em @ 119 NONAME
	_ZN15T_pfqos_channelC2Em @ 120 NONAME
	_ZN16CExtensionPolicy13AddExtensionLER10CExtension @ 121 NONAME
	_ZN16CExtensionPolicy13AddExtensionLERK6TDesC8 @ 122 NONAME
	_ZN16CExtensionPolicyC1ER10TPfqosBaseR14TPfqosSelectorR13TPfqosAddressS5_i @ 123 NONAME
	_ZN16CExtensionPolicyC1Ev @ 124 NONAME
	_ZN16CExtensionPolicyC2ER10TPfqosBaseR14TPfqosSelectorR13TPfqosAddressS5_i @ 125 NONAME
	_ZN16CExtensionPolicyC2Ev @ 126 NONAME
	_ZN16CExtensionPolicyD0Ev @ 127 NONAME
	_ZN16CExtensionPolicyD1Ev @ 128 NONAME
	_ZN16CExtensionPolicyD2Ev @ 129 NONAME
	_ZN16CPfqosPolicyData10ConstructLEv @ 130 NONAME
	_ZN16CPfqosPolicyData4DataEv @ 131 NONAME
	_ZN16CPfqosPolicyData4NewLEi @ 132 NONAME
	_ZN16CPfqosPolicyData4NewLEiPKhi @ 133 NONAME
	_ZN16CPfqosPolicyData4TypeEv @ 134 NONAME
	_ZN16CPfqosPolicyData5CopyLEPKhi @ 135 NONAME
	_ZN16CPfqosPolicyDataC1Ei @ 136 NONAME
	_ZN16CPfqosPolicyDataC2Ei @ 137 NONAME
	_ZN16CPfqosPolicyDataD0Ev @ 138 NONAME
	_ZN16CPfqosPolicyDataD1Ev @ 139 NONAME
	_ZN16CPfqosPolicyDataD2Ev @ 140 NONAME
	_ZN16TPfqosConfigFileC1Ev @ 141 NONAME
	_ZN16TPfqosConfigFileC2Ev @ 142 NONAME
	_ZN16T_pfqos_flowspecC1ERK14TQoSParameters @ 143 NONAME
	_ZN16T_pfqos_flowspecC2ERK14TQoSParameters @ 144 NONAME
	_ZN16T_pfqos_selectorC1EP13CSelectorBase @ 145 NONAME
	_ZN16T_pfqos_selectorC2EP13CSelectorBase @ 146 NONAME
	_ZN17T_pfqos_configureC1Et @ 147 NONAME
	_ZN17T_pfqos_configureC2Et @ 148 NONAME
	_ZNK10CExtension6LengthEv @ 149 NONAME
	_ZNK10TPfqosBase10ByteStreamER10RMBufChaini @ 150 NONAME
	_ZNK10TPfqosBase6LengthEv @ 151 NONAME
	_ZNK11TPfqosEvent10ByteStreamER10RMBufChaini @ 152 NONAME
	_ZNK11TPfqosEvent6LengthEv @ 153 NONAME
	_ZNK12TPfqosModule10ByteStreamER10RMBufChaini @ 154 NONAME
	_ZNK12TPfqosModule6LengthEv @ 155 NONAME
	_ZNK13TPfqosAddress10ByteStreamER10RMBufChaini @ 156 NONAME
	_ZNK13TPfqosAddress6LengthEv @ 157 NONAME
	_ZNK13TPfqosChannel10ByteStreamER10RMBufChaini @ 158 NONAME
	_ZNK13TPfqosChannel6LengthEv @ 159 NONAME
	_ZNK13TPfqosMessage16SetQoSParametersER14TQoSParameters @ 160 NONAME
	_ZNK14TPfqosFlowSpec10ByteStreamER10RMBufChaini @ 161 NONAME
	_ZNK14TPfqosFlowSpec6LengthEv @ 162 NONAME
	_ZNK14TPfqosSelector10ByteStreamER10RMBufChaini @ 163 NONAME
	_ZNK14TPfqosSelector6LengthEv @ 164 NONAME
	_ZNK14TQoSParameters13GetHeaderModeEv @ 165 NONAME
	_ZNK14TQoSParameters9AdaptModeEv @ 166 NONAME
	_ZNK14TQoSParameterseqERKS_ @ 167 NONAME
	_ZNK15TPfqosConfigure10ByteStreamER10RMBufChaini @ 168 NONAME
	_ZNK15TPfqosConfigure6LengthEv @ 169 NONAME
	_ZNK16CPfqosPolicyData10ByteStreamER10RMBufChaini @ 170 NONAME
	_ZNK16CPfqosPolicyData4SizeEv @ 171 NONAME
	_ZNK16CPfqosPolicyData6LengthEv @ 172 NONAME
	_ZNK16TPfqosConfigFile10ByteStreamER10RMBufChaini @ 173 NONAME
	_ZNK16TPfqosConfigFile6LengthEv @ 174 NONAME
	_ZTI10CExtension @ 175 NONAME ; #<TI>#
	_ZTI12CPfqosStream @ 176 NONAME ; #<TI>#
	_ZTI13CSelectorBase @ 177 NONAME ; #<TI>#
	_ZTI13TVariableBase @ 178 NONAME ; #<TI>#
	_ZTI16CExtensionPolicy @ 179 NONAME ; #<TI>#
	_ZTI16CPfqosPolicyData @ 180 NONAME ; #<TI>#
	_ZTV10CExtension @ 181 NONAME ; #<VT>#
	_ZTV12CPfqosStream @ 182 NONAME ; #<VT>#
	_ZTV13CSelectorBase @ 183 NONAME ; #<VT>#
	_ZTV13TVariableBase @ 184 NONAME ; #<VT>#
	_ZTV16CExtensionPolicy @ 185 NONAME ; #<VT>#
	_ZTV16CPfqosPolicyData @ 186 NONAME ; #<VT>#

