EXPORTS
	??1CNetCfgExtProvision@@UAE@XZ @ 1 NONAME ; CNetCfgExtProvision::~CNetCfgExtProvision(void)
	??1CNetworkConfigExtensionBase@@UAE@XZ @ 2 NONAME ; CNetworkConfigExtensionBase::~CNetworkConfigExtensionBase(void)
	?AsyncDelete@CNetworkConfigExtensionBase@@UAEXXZ @ 3 NONAME ; void CNetworkConfigExtensionBase::AsyncDelete(void)
	?CancelControl@CNetworkConfigExtensionBase@@UAEXXZ @ 4 NONAME ; void CNetworkConfigExtensionBase::CancelControl(void)
	?ConfigureNetworkL@CNetworkConfigExtensionBase@@UAEXXZ @ 5 NONAME ; void CNetworkConfigExtensionBase::ConfigureNetworkL(void)
	?ConstructL@CNetworkConfigExtensionBase@@IAEXXZ @ 6 NONAME ; void CNetworkConfigExtensionBase::ConstructL(void)
	?Deregister@CNetworkConfigExtensionBase@@UAEXH@Z @ 7 NONAME ; void CNetworkConfigExtensionBase::Deregister(int)
	?DoCancel@CNetworkConfigExtensionBase@@MAEXXZ @ 8 NONAME ; void CNetworkConfigExtensionBase::DoCancel(void)
	?EventNotification@CNetworkConfigExtensionBase@@UAEXW4TNetworkAdaptorEventType@@IABVTDesC8@@PAX@Z @ 9 NONAME ; void CNetworkConfigExtensionBase::EventNotification(enum TNetworkAdaptorEventType, unsigned int, class TDesC8 const &, void *)
	?InitialiseConfigL@CNetCfgExtProvision@@QAEXPAVCCommsDatIapView@ESock@@@Z @ 10 NONAME ; void CNetCfgExtProvision::InitialiseConfigL(class ESock::CCommsDatIapView *)
	?LinkLayerDown@CNetworkConfigExtensionBase@@UAEXXZ @ 11 NONAME ; void CNetworkConfigExtensionBase::LinkLayerDown(void)
	?LinkLayerUp@CNetworkConfigExtensionBase@@UAEXXZ @ 12 NONAME ; void CNetworkConfigExtensionBase::LinkLayerUp(void)
	?NewL@CNetCfgExtProvision@@SAPAV1@XZ @ 13 NONAME ; class CNetCfgExtProvision * CNetCfgExtProvision::NewL(void)
	?NewL@CNifConfigurationControl@@SAPAV1@AAVMNifIfNotify@@@Z @ 14 NONAME ; class CNifConfigurationControl * CNifConfigurationControl::NewL(class MNifIfNotify &)
	?RunError@CNetworkConfigExtensionBase@@MAEHH@Z @ 15 NONAME ; int CNetworkConfigExtensionBase::RunError(int)
	?RunL@CNetworkConfigExtensionBase@@MAEXXZ @ 16 NONAME ; void CNetworkConfigExtensionBase::RunL(void)
	?SendIoctlMessageL@CNetworkConfigExtensionBase@@UAEXABVRLegacyResponseMsg@ESock@@@Z @ 17  NONAME ; void CNetworkConfigExtensionBase::SendIoctlMessageL(class ESock::RLegacyResponseMsg const &)
	?NewL@CNetCfgExtNotify@@SAPAV1@PAVCSubConnectionProviderBase@ESock@@@Z @ 18 NONAME ; class CNetCfgExtNotify * CNetCfgExtNotify::NewL(class ESock::CSubConnectionProviderBase *)
	?DeleteThis@ADeferredDeletion@@UAEXXZ @ 19 NONAME ; void ADeferredDeletion::DeleteThis(void)
	?DeleteThis@CNetworkConfigExtensionBase@@UAEXXZ @ 20 NONAME ; void CNetworkConfigExtensionBase::DeleteThis(void)
	?NotifyDeletionL@ADeferredDeletion@@QAEXPAVADeletionNotifier@@@Z @ 21 NONAME ; void ADeferredDeletion::NotifyDeletionL(class ADeletionNotifier *)

