EXPORTS
	??0CPppLcp@@IAE@AAVCSubConnectionFlowFactoryBase@ESock@@ABUTNodeId@Messages@@PAVCProtocolIntfBase@2@@Z @ 1 NONAME ABSENT ; CPppLcp::CPppLcp(class ESock::CSubConnectionFlowFactoryBase &, struct Messages::TNodeId const &, class ESock::CProtocolIntfBase *)
	??0TPppAddr@@QAE@XZ @ 2 NONAME ; TPppAddr::TPppAddr(void)
	??1CPppLcp@@MAE@XZ @ 3 NONAME ; CPppLcp::~CPppLcp(void)
	??1CPppProvisionInfo@@UAE@XZ @ 4 NONAME ; CPppProvisionInfo::~CPppProvisionInfo(void)
	??4TPppAddr@@QAEAAV0@ABVTSockAddr@@@Z @ 5 NONAME ; class TPppAddr & TPppAddr::operator=(class TSockAddr const &)
	?AgentToFlowNotification@CPppLcp@@UAEXH@Z @ 6 NONAME ; void CPppLcp::AgentToFlowNotification(int)
	?AppendCallbackRequestL@CPppLcp@@AAEXAAVRPppOptionList@@@Z @ 7 NONAME ; void CPppLcp::AppendCallbackRequestL(class RPppOptionList &)
	?AuthenticateResponseMessage@CPppLcp@@UAEXXZ @ 8 NONAME ; void CPppLcp::AuthenticateResponseMessage(void)
	?BindL@CPppLcp@@UAEPAVMLowerDataSender@ESock@@ABVTDesC8@@PAVMUpperDataReceiver@3@PAVMUpperControl@3@@Z @ 9 NONAME ; class ESock::MLowerDataSender * CPppLcp::BindL(class TDesC8 const &, class ESock::MUpperDataReceiver *, class ESock::MUpperControl *)
	?BinderLinkUp@CPppLcp@@UAEXW4TPppProtocol@1@@Z @ 10 NONAME ; void CPppLcp::BinderLinkUp(enum CPppLcp::TPppProtocol)
	?Destroy@CPppLcp@@UAEXXZ @ 11 NONAME ; void CPppLcp::Destroy(void)
	?DoGetBinderControlL@CPppLcp@@MAEPAVMFlowBinderControl@ESock@@XZ @ 12 NONAME ; class ESock::MFlowBinderControl * CPppLcp::DoGetBinderControlL(void)
	?Error@CPppLcp@@UAEXH@Z @ 13 NONAME ; void CPppLcp::Error(int)
	?Flow@CPppLcp@@UAEPAVCSubConnectionFlowBase@ESock@@XZ @ 14 NONAME ; class ESock::CSubConnectionFlowBase * CPppLcp::Flow(void)
	?FlowOn@MPppRecvr@@UAEXXZ @ 15 NONAME ; void MPppRecvr::FlowOn(void)
	?FrameError@MPppFsm@@EAEXXZ @ 16 NONAME ; void MPppFsm::FrameError(void)
	?FsmAckOptionsValid@CPppLcp@@MAEHAAVRPppOptionList@@0@Z @ 17 NONAME ; int CPppLcp::FsmAckOptionsValid(class RPppOptionList &, class RPppOptionList &)
	?FsmApplyConfigRequest@CPppLcp@@MAEXAAVRPppOptionList@@@Z @ 18 NONAME ; void CPppLcp::FsmApplyConfigRequest(class RPppOptionList &)
	?FsmCheckConfigRequest@CPppLcp@@MAEXAAVRPppOptionList@@000@Z @ 19 NONAME ; void CPppLcp::FsmCheckConfigRequest(class RPppOptionList &, class RPppOptionList &, class RPppOptionList &, class RPppOptionList &)
	?FsmConfigRequestOptionsValid@CPppLcp@@MAEHAAVRPppOptionList@@@Z @ 20 NONAME ; int CPppLcp::FsmConfigRequestOptionsValid(class RPppOptionList &)
	?FsmFillinConfigRequestL@CPppLcp@@MAEXAAVRPppOptionList@@@Z @ 21 NONAME ; void CPppLcp::FsmFillinConfigRequestL(class RPppOptionList &)
	?FsmLayerDown@CPppLcp@@MAEXH@Z @ 22 NONAME ; void CPppLcp::FsmLayerDown(int)
	?FsmLayerFinished@CPppLcp@@MAEXH@Z @ 23 NONAME ; void CPppLcp::FsmLayerFinished(int)
	?FsmLayerStarted@CPppLcp@@MAEHXZ @ 24 NONAME ; int CPppLcp::FsmLayerStarted(void)
	?FsmLayerUp@CPppLcp@@MAEXXZ @ 25 NONAME ; void CPppLcp::FsmLayerUp(void)
	?FsmRecvConfigAck@CPppLcp@@MAEXAAVRPppOptionList@@@Z @ 26 NONAME ; void CPppLcp::FsmRecvConfigAck(class RPppOptionList &)
	?FsmRecvConfigNak@CPppLcp@@MAEXAAVRPppOptionList@@0@Z @ 27 NONAME ; void CPppLcp::FsmRecvConfigNak(class RPppOptionList &, class RPppOptionList &)
	?FsmRecvConfigReject@CPppLcp@@MAEXAAVRPppOptionList@@0@Z @ 28 NONAME ; void CPppLcp::FsmRecvConfigReject(class RPppOptionList &, class RPppOptionList &)
	?FsmRecvUnknownCode@CPppLcp@@MAEHEEHAAVRMBufChain@@@Z @ 29 NONAME ; int CPppLcp::FsmRecvUnknownCode(unsigned char, unsigned char, int, class RMBufChain &)
	?FsmRejectOptionsValid@CPppLcp@@MAEHAAVRPppOptionList@@0@Z @ 30 NONAME ; int CPppLcp::FsmRejectOptionsValid(class RPppOptionList &, class RPppOptionList &)
	?FsmTerminationPhaseComplete@CPppLcp@@MAEXXZ @ 31 NONAME ; void CPppLcp::FsmTerminationPhaseComplete(void)
	?GetAttribPtr@CPppAuthConfig@@UBEPAEH@Z @ 32 NONAME ; unsigned char * CPppAuthConfig::GetAttribPtr(int) const
	?GetAttribPtr@CPppLcpConfig@@UBEPAEH@Z @ 33 NONAME ; unsigned char * CPppLcpConfig::GetAttribPtr(int) const
	?GetAttribPtr@CPppProvisionInfo@@UBEPAEH@Z @ 34 NONAME ; unsigned char * CPppProvisionInfo::GetAttribPtr(int) const
	?GetControlL@CPppLcp@@UAEPAVMLowerControl@ESock@@ABVTDesC8@@@Z @ 35 NONAME ; class ESock::MLowerControl * CPppLcp::GetControlL(class TDesC8 const &)
	?GetVDataTable@CPppAuthConfig@@UBEPBUSVDataTableEntry@Meta@@XZ @ 36 NONAME ; struct Meta::SVDataTableEntry const * CPppAuthConfig::GetVDataTable(void) const
	?GetVDataTable@CPppLcpConfig@@UBEPBUSVDataTableEntry@Meta@@XZ @ 37 NONAME ; struct Meta::SVDataTableEntry const * CPppLcpConfig::GetVDataTable(void) const
	?GetVDataTable@CPppProvisionInfo@@UBEPBUSVDataTableEntry@Meta@@XZ @ 38 NONAME ; struct Meta::SVDataTableEntry const * CPppProvisionInfo::GetVDataTable(void) const
	?GetVDataTableStatic@CPppAuthConfig@@SAPBUSVDataTableEntry@Meta@@XZ @ 39 NONAME ; struct Meta::SVDataTableEntry const * CPppAuthConfig::GetVDataTableStatic(void)
	?GetVDataTableStatic@CPppLcpConfig@@SAPBUSVDataTableEntry@Meta@@XZ @ 40 NONAME ; struct Meta::SVDataTableEntry const * CPppLcpConfig::GetVDataTableStatic(void)
	?GetVDataTableStatic@CPppProvisionInfo@@SAPBUSVDataTableEntry@Meta@@XZ @ 41 NONAME ; struct Meta::SVDataTableEntry const * CPppProvisionInfo::GetVDataTableStatic(void)
	?KillProtocol@MPppFsm@@MAEXXZ @ 42 NONAME ; void MPppFsm::KillProtocol(void)
	?LowerLayerDown@MPppFsm@@EAEXH@Z @ 43 NONAME ; void MPppFsm::LowerLayerDown(int)
	?LowerLayerUp@MPppFsm@@EAEXXZ @ 44 NONAME ; void MPppFsm::LowerLayerUp(void)
	??0CPppLcp@@IAE@AAVCSubConnectionFlowFactoryBase@ESock@@ABVTNodeId@Messages@@PAVCProtocolIntfBase@2@@Z @ 45 NONAME ; CPppLcp::CPppLcp(class ESock::CSubConnectionFlowFactoryBase &, class Messages::TNodeId const &, class ESock::CProtocolIntfBase *)
	?GetAttribPtr@CPppTsyConfig@@UBEPAEH@Z @ 46 NONAME ; unsigned char * CPppTsyConfig::GetAttribPtr(int) const
	?GetVDataTable@CPppTsyConfig@@UBEPBUSVDataTableEntry@Meta@@XZ @ 47 NONAME ; struct Meta::SVDataTableEntry const * CPppTsyConfig::GetVDataTable(void) const
	?GetVDataTableStatic@CPppTsyConfig@@SAPBUSVDataTableEntry@Meta@@XZ @ 48 NONAME ; struct Meta::SVDataTableEntry const * CPppTsyConfig::GetVDataTableStatic(void)
	?NewL@CPppLcp@@SAPAV1@AAVCSubConnectionFlowFactoryBase@ESock@@ABVTNodeId@Messages@@PAVCProtocolIntfBase@3@@Z @ 49 NONAME ; class CPppLcp * CPppLcp::NewL(class ESock::CSubConnectionFlowFactoryBase &, class Messages::TNodeId const &, class ESock::CProtocolIntfBase *)
	?NewLC@CPppAuthConfig@@SAPAV1@PAVCCommsDatIapView@ESock@@@Z @ 50 NONAME ; class CPppAuthConfig * CPppAuthConfig::NewLC(class ESock::CCommsDatIapView *)
	?NewLC@CPppLcpConfig@@SAPAV1@PAVCCommsDatIapView@ESock@@@Z @ 51 NONAME ; class CPppLcpConfig * CPppLcpConfig::NewLC(class ESock::CCommsDatIapView *)
	?NewLC@CPppTsyConfig@@SAPAV1@PAVCCommsDatIapView@ESock@@@Z @ 52 NONAME ; class CPppTsyConfig * CPppTsyConfig::NewLC(class ESock::CCommsDatIapView *)
	?Process@CPppLcp@@UAEXAAVRMBufChain@@@Z @ 53 NONAME ; void CPppLcp::Process(class RMBufChain &)
	?ProvisionConfig@CPppLcp@@UAEXABVRMetaExtensionContainerC@ESock@@@Z @ 54  NONAME ; void CPppLcp::ProvisionConfig(class ESock::RMetaExtensionContainerC const &)
	?ReceivedL@CPppLcp@@MAEXABVTRuntimeCtxId@Messages@@ABVTNodeId@3@AAVTSignatureBase@3@@Z @ 55 NONAME ; void CPppLcp::ReceivedL(class Messages::TRuntimeCtxId const &, class Messages::TNodeId const &, class Messages::TSignatureBase &)
	?RecvFrame@MPppFsm@@EAEHAAVRMBufChain@@@Z @ 56 NONAME ; int MPppFsm::RecvFrame(class RMBufChain &)
	?StartFlowL@CPppLcp@@UAEXXZ @ 57 NONAME ; void CPppLcp::StartFlowL(void)
	?StartSending@CPppLcp@@UAEXXZ @ 58 NONAME ; void CPppLcp::StartSending(void)
	?StopFlow@CPppLcp@@UAEXH@Z @ 59 NONAME ; void CPppLcp::StopFlow(int)
	?SubConnectionError@CPppLcp@@UAEXH@Z @ 60 NONAME ; void CPppLcp::SubConnectionError(int)
	?SubConnectionGoingDown@CPppLcp@@UAEXXZ @ 61 NONAME ; void CPppLcp::SubConnectionGoingDown(void)
	?TimerComplete@MPppFsm@@EAEXH@Z @ 62 NONAME ; void MPppFsm::TimerComplete(int)
	?Unbind@CPppLcp@@UAEXPAVMUpperDataReceiver@ESock@@PAVMUpperControl@3@@Z @ 63 NONAME ; void CPppLcp::Unbind(class ESock::MUpperDataReceiver *, class ESock::MUpperControl *)

